 PhysXCooking_64

 Timestamp is 629c9ad9 (Sun Jun  5 20:00:25 2022)

 Preferred load address is 0000000180000000

 Start         Length     Name                   Class
 0001:00000000 00000ba0H .text$di                CODE
 0001:00000ba0 000f16a0H .text$mn                CODE
 0001:000f2240 00000040H .text$mn$00             CODE
 0001:000f2280 0000103dH .text$x                 CODE
 0002:00000000 000002e0H .idata$5                DATA
 0002:000002e0 00000038H .00cfg                  DATA
 0002:00000318 00000008H .CRT$XCA                DATA
 0002:00000320 000001f0H .CRT$XCU                DATA
 0002:00000510 00000008H .CRT$XCZ                DATA
 0002:00000518 00000008H .CRT$XIA                DATA
 0002:00000520 00000018H .CRT$XIC                DATA
 0002:00000538 00000008H .CRT$XIZ                DATA
 0002:00000540 00000008H .CRT$XPA                DATA
 0002:00000548 00000010H .CRT$XPX                DATA
 0002:00000558 00000008H .CRT$XPXA               DATA
 0002:00000560 00000008H .CRT$XPZ                DATA
 0002:00000568 00000008H .CRT$XTA                DATA
 0002:00000570 00000010H .CRT$XTZ                DATA
 0002:00000578 00000000H .gehcont$y              DATA
 0002:00000578 00000000H .gfids$y                DATA
 0002:00000580 00027700H .rdata                  DATA
 0002:00027c80 00000080H .rdata$CastGuardVftablesA DATA
 0002:00027d00 00000080H .rdata$CastGuardVftablesC DATA
 0002:00027d80 00000464H .rdata$r                DATA
 0002:000281e4 000001a0H .rdata$voltmd           DATA
 0002:00028384 00000484H .rdata$zzzdbg           DATA
 0002:00028808 00000008H .rtc$IAA                DATA
 0002:00028810 000000a0H .rtc$IMZ                DATA
 0002:000288b0 00000008H .rtc$IZZ                DATA
 0002:000288b8 00000008H .rtc$TAA                DATA
 0002:000288c0 000000a0H .rtc$TMZ                DATA
 0002:00028960 00000010H .rtc$TZZ                DATA
 0002:00028970 00008ba8H .xdata                  DATA
 0002:00031518 00000084H .xdata$x                DATA
 0002:0003159c 00000040H .didat$2                DATA
 0002:000315dc 00000024H .didat$3                DATA
 0002:00031600 000001d0H .didat$4                DATA
 0002:000317d0 00000b30H .didat$6                DATA
 0002:00032300 000001d0H .didat$7                DATA
 0002:000324d0 00001d34H .edata                  DATA
 0002:00034204 00000014H .idata$2                DATA
 0002:00034218 00000018H .idata$3                DATA
 0002:00034230 000002e0H .idata$4                DATA
 0002:00034510 000006bcH .idata$6                DATA
 0003:00000000 00000af0H .data                   DATA
 0003:00000af0 00000380H .data$r                 DATA
 0003:00000e70 000000f0H .data$rs                DATA
 0003:00000f60 000001d0H .didat$5                DATA
 0003:00001130 000020e8H .bss                    DATA
 0004:00000000 0000b490H .pdata                  DATA
 0005:00000000 0000015cH _RDATA                  DATA
 0006:00000000 000000a0H .rsrc$01                DATA
 0006:000000a0 000004b0H .rsrc$02                DATA

  Address         Publics by Value              Rva+Base               Lib:Object

 0000:00000000       __AbsoluteZero             0000000000000000     <absolute>
 0000:00000000       ___safe_se_handler_count   0000000000000000     <absolute>
 0000:00000000       ___safe_se_handler_table   0000000000000000     <absolute>
 0000:00000000       __arm64x_extra_rfe_table   0000000000000000     <absolute>
 0000:00000000       __arm64x_extra_rfe_table_size 0000000000000000     <absolute>
 0000:00000000       __arm64x_native_entrypoint 0000000000000000     <absolute>
 0000:00000000       __arm64x_redirection_metadata 0000000000000000     <absolute>
 0000:00000000       __arm64x_redirection_metadata_count 0000000000000000     <absolute>
 0000:00000000       __dynamic_value_reloc_table 0000000000000000     <absolute>
 0000:00000000       __enclave_config           0000000000000000     <absolute>
 0000:00000000       __guard_check_icall_a64n_fptr 0000000000000000     <absolute>
 0000:00000000       __guard_eh_cont_count      0000000000000000     <absolute>
 0000:00000000       __guard_eh_cont_table      0000000000000000     <absolute>
 0000:00000000       __guard_fids_count         0000000000000000     <absolute>
 0000:00000000       __guard_fids_table         0000000000000000     <absolute>
 0000:00000000       __guard_iat_count          0000000000000000     <absolute>
 0000:00000000       __guard_iat_table          0000000000000000     <absolute>
 0000:00000000       __guard_longjmp_count      0000000000000000     <absolute>
 0000:00000000       __guard_longjmp_table      0000000000000000     <absolute>
 0000:00000000       __hybrid_auxiliary_iat     0000000000000000     <absolute>
 0000:00000000       __hybrid_auxiliary_iat_copy 0000000000000000     <absolute>
 0000:00000000       __hybrid_code_map          0000000000000000     <absolute>
 0000:00000000       __hybrid_code_map_count    0000000000000000     <absolute>
 0000:00000000       __x64_code_ranges_to_entry_points 0000000000000000     <absolute>
 0000:00000000       __x64_code_ranges_to_entry_points_count 0000000000000000     <absolute>
 0000:00000100       __guard_flags              0000000000000100     <absolute>
 0000:00000000       __ImageBase                0000000180000000     <linker-defined>
 0001:00000ba0       ?ComputeNbBoundaryEdges@AdjTriangle@physx@@QEBAIXZ 0000000180001ba0 f   Adjacencies.obj
 0001:00000c30       ?ComputeNbNeighbors@AdjTriangle@physx@@QEBAIXZ 0000000180001c30 f   Adjacencies.obj
 0001:00000cc0       ?HasNeighbor@AdjTriangle@physx@@QEBA_NIPEAI@Z 0000000180001cc0 f   Adjacencies.obj
 0001:00000dd0       ?Flip@AdjTriangle@physx@@QEAAXXZ 0000000180001dd0 f   Adjacencies.obj
 0001:00000e20       ??0Adjacencies@physx@@QEAA@XZ 0000000180001e20 f   Adjacencies.obj
 0001:00000e50       ??1Adjacencies@physx@@QEAA@XZ 0000000180001e50 f   Adjacencies.obj
 0001:00000eb0       ?Load@Adjacencies@physx@@QEAA_NAEAVPxInputStream@2@@Z 0000000180001eb0 f   Adjacencies.obj
 0001:00001040       ?ComputeNbBoundaryEdges@Adjacencies@physx@@QEBAIXZ 0000000180002040 f   Adjacencies.obj
 0001:000010c0       ?GetBoundaryVertices@Adjacencies@physx@@QEBA_NIPEA_NPEBU?$TriangleT@I@Gu@2@@Z 00000001800020c0 f   Adjacencies.obj
 0001:000013d0       ?MakeLastRef@Adjacencies@physx@@QEAA_NAEAVAdjTriangle@2@IPEAU?$TriangleT@I@Gu@2@@Z 00000001800023d0 f   Adjacencies.obj
 0001:00001730       ?AssignNewEdgeCode@Adjacencies@physx@@AEAAXIE@Z 0000000180002730 f   Adjacencies.obj
 0001:000017d0       ??0AdjacenciesBuilder@physx@@QEAA@XZ 00000001800027d0 f   Adjacencies.obj
 0001:00001800       ??1AdjacenciesBuilder@physx@@QEAA@XZ 0000000180002800 f   Adjacencies.obj
 0001:00001820       ?Init@AdjacenciesBuilder@physx@@QEAA_NAEBUADJACENCIESCREATE@2@@Z 0000000180002820 f   Adjacencies.obj
 0001:00002b10       ??$?_UI@@YAPEAX_KV?$ReflectionAllocator@I@shdfnd@physx@@PEBDH@Z 0000000180003b10 f i Adjacencies.obj
 0001:00002b50       ??$?_UV?$ReflectionAllocator@VAdjEdge@@@shdfnd@physx@@@UserAllocated@shdfnd@physx@@SAPEAX_KV?$ReflectionAllocator@VAdjEdge@@@12@PEBDH@Z 0000000180003b50 f i Adjacencies.obj
 0001:00002b90       ??$?_UV?$ReflectionAllocator@VAdjTriangle@physx@@@shdfnd@physx@@@UserAllocated@shdfnd@physx@@SAPEAX_KV?$ReflectionAllocator@VAdjTriangle@physx@@@12@PEBDH@Z 0000000180003b90 f i Adjacencies.obj
 0001:00002bd0       ??$swap@I@shdfnd@physx@@YAXAEAI0@Z 0000000180003bd0 f i Adjacencies.obj
 0001:00002c10       ??0?$ReflectionAllocator@I@shdfnd@physx@@QEAA@PEBD@Z 0000000180003c10 f i Adjacencies.obj
 0001:00002c20       ??0?$ReflectionAllocator@VAdjEdge@@@shdfnd@physx@@QEAA@PEBD@Z 0000000180003c20 f i Adjacencies.obj
 0001:00002c30       ??0?$ReflectionAllocator@VAdjTriangle@physx@@@shdfnd@physx@@QEAA@PEBD@Z 0000000180003c30 f i Adjacencies.obj
 0001:00002c40       ??0?$TriangleT@I@Gu@physx@@QEAA@XZ 0000000180003c40 f i Adjacencies.obj
 0001:00002c50       ??0AdjEdge@@QEAA@XZ        0000000180003c50 f i Adjacencies.obj
 0001:00002c60       ??0AdjTriangle@physx@@QEAA@XZ 0000000180003c60 f i Adjacencies.obj
 0001:00002c70       ??0Allocator@shdfnd@physx@@QEAA@PEBD@Z 0000000180003c70 f i Adjacencies.obj
 0001:00002c80       ??0EDGELISTCREATE@Gu@physx@@QEAA@XZ 0000000180003c80 f i Adjacencies.obj
 0001:00002cf0       ??0NonTrackingAllocator@shdfnd@physx@@QEAA@PEBD@Z 0000000180003cf0 f i Adjacencies.obj
 0001:00002d00       ??0PxFoundation@physx@@QEAA@AEBV01@@Z 0000000180003d00 f i Adjacencies.obj
 0001:00002d20       ??0PxFoundation@physx@@QEAA@XZ 0000000180003d20 f i Adjacencies.obj
 0001:00002d40       ??1AdjEdge@@QEAA@XZ        0000000180003d40 f i Adjacencies.obj
 0001:00002d50       ??1AdjTriangle@physx@@QEAA@XZ 0000000180003d50 f i Adjacencies.obj
 0001:00002d60       ??1PxFoundation@physx@@MEAA@XZ 0000000180003d60 f i Adjacencies.obj
 0001:00002d80       ??3UserAllocated@shdfnd@physx@@SAXPEAX@Z 0000000180003d80 f i Adjacencies.obj
 0001:00002db0       ??4Allocator@shdfnd@physx@@QEAAAEAV012@$$QEAV012@@Z 0000000180003db0 f i Adjacencies.obj
 0001:00002dc0       ??4Allocator@shdfnd@physx@@QEAAAEAV012@AEBV012@@Z 0000000180003dc0 f i Adjacencies.obj
 0001:00002dd0       ??4MutexImpl@shdfnd@physx@@QEAAAEAV012@AEBV012@@Z 0000000180003dd0 f i Adjacencies.obj
 0001:00002de0       ??4PxFoundation@physx@@QEAAAEAV01@AEBV01@@Z 0000000180003de0 f i Adjacencies.obj
 0001:00002df0       ??_EAdjEdge@@QEAAPEAXI@Z   0000000180003df0 f i Adjacencies.obj
 0001:00002ed0       ??_EAdjTriangle@physx@@QEAAPEAXI@Z 0000000180003ed0 f i Adjacencies.obj
 0001:00002fb0       ??_EPxFoundation@physx@@MEAAPEAXI@Z 0000000180003fb0 f i Adjacencies.obj
 0001:00003050       ??_FAllocator@shdfnd@physx@@QEAAXXZ 0000000180004050 f i Adjacencies.obj
 0001:00003070       ??_FNamedAllocator@shdfnd@physx@@QEAAXXZ 0000000180004070 f i Adjacencies.obj
 0001:00003090       ??_GPxFoundation@physx@@MEAAPEAXI@Z 0000000180004090 f i Adjacencies.obj
 0001:000030d0       ??_H@YAXPEAX_K1P6APEAX0@Z@Z 00000001800040d0 f i Adjacencies.obj
 0001:00003150       ??_I@YAXPEAX_K1P6AX0@Z@Z   0000000180004150 f i Adjacencies.obj
 0001:000031e0       ??_VUserAllocated@shdfnd@physx@@SAXPEAX@Z 00000001800041e0 f i Adjacencies.obj
 0001:00003210       ?GetNbHits@RadixSort@Cm@physx@@QEBAIXZ 0000000180004210 f i Adjacencies.obj
 0001:00003220       ?GetNbTotalCalls@RadixSort@Cm@physx@@QEBAIXZ 0000000180004220 f i Adjacencies.obj
 0001:00003230       ?GetRanks@RadixSort@Cm@physx@@QEBAPEBIXZ 0000000180004230 f i Adjacencies.obj
 0001:00003240       ?GetRecyclable@RadixSort@Cm@physx@@QEBAPEAIXZ 0000000180004240 f i Adjacencies.obj
 0001:00003250       ?HasActiveEdge01@AdjTriangle@physx@@QEBAHXZ 0000000180004250 f i Adjacencies.obj
 0001:00003270       ?HasActiveEdge01@EdgeTriangleAC@Gu@physx@@SAHAEBUEdgeTriangleData@23@@Z 0000000180004270 f i Adjacencies.obj
 0001:00003290       ?HasActiveEdge12@AdjTriangle@physx@@QEBAHXZ 0000000180004290 f i Adjacencies.obj
 0001:000032b0       ?HasActiveEdge12@EdgeTriangleAC@Gu@physx@@SAHAEBUEdgeTriangleData@23@@Z 00000001800042b0 f i Adjacencies.obj
 0001:000032d0       ?HasActiveEdge20@AdjTriangle@physx@@QEBAHXZ 00000001800042d0 f i Adjacencies.obj
 0001:000032f0       ?HasActiveEdge20@EdgeTriangleAC@Gu@physx@@SAHAEBUEdgeTriangleData@23@@Z 00000001800042f0 f i Adjacencies.obj
 0001:00003310       ?PxMemZero@physx@@YAPEAXPEAXI@Z 0000000180004310 f i Adjacencies.obj
 0001:00003330       ?__empty_global_delete@@YAXPEAX@Z 0000000180004330 f i Adjacencies.obj
 0001:00003340       ?__empty_global_delete@@YAXPEAX_K@Z 0000000180004340 f i Adjacencies.obj
 0001:00003350       ?allocate@?$ReflectionAllocator@I@shdfnd@physx@@QEAAPEAX_KPEBDH@Z 0000000180004350 f i Adjacencies.obj
 0001:000033d0       ?allocate@?$ReflectionAllocator@VAdjEdge@@@shdfnd@physx@@QEAAPEAX_KPEBDH@Z 00000001800043d0 f i Adjacencies.obj
 0001:00003450       ?allocate@?$ReflectionAllocator@VAdjTriangle@physx@@@shdfnd@physx@@QEAAPEAX_KPEBDH@Z 0000000180004450 f i Adjacencies.obj
 0001:000034d0       ?deallocate@NonTrackingAllocator@shdfnd@physx@@QEAAXPEAX@Z 00000001800044d0 f i Adjacencies.obj
 0001:00003510       ?findEdge@?$TriangleT@I@Gu@physx@@QEBAEII@Z 0000000180004510 f i Adjacencies.obj
 0001:00003670       ?getAllocator@Foundation@shdfnd@physx@@QEAAAEAVPxAllocatorCallback@3@XZ 0000000180004670 f i Adjacencies.obj
 0001:00003680       ?getAllocatorCallback@Foundation@shdfnd@physx@@UEAAAEAVPxAllocatorCallback@3@XZ 0000000180004680 f i Adjacencies.obj
 0001:00003690       ?getEdgeTriangle@EdgeList@Gu@physx@@QEBAAEBUEdgeTriangleData@23@I@Z 0000000180004690 f i Adjacencies.obj
 0001:000036b0       ?getErrorCallback@Foundation@shdfnd@physx@@UEAAAEAVPxErrorCallback@3@XZ 00000001800046b0 f i Adjacencies.obj
 0001:000036c0       ?getErrorLevel@Foundation@shdfnd@physx@@UEBA?AW4Enum@PxErrorCode@3@XZ 00000001800046c0 f i Adjacencies.obj
 0001:000036e0       ?getFoundation@shdfnd@physx@@YAAEAVFoundation@12@XZ 00000001800046e0 f i Adjacencies.obj
 0001:000036f0       ?getInternalErrorCallback@Foundation@shdfnd@physx@@QEAAAEAVPxErrorCallback@3@XZ 00000001800046f0 f i Adjacencies.obj
 0001:00003710       ?getName@?$ReflectionAllocator@I@shdfnd@physx@@CAPEBDXZ 0000000180004710 f i Adjacencies.obj
 0001:00003750       ?getName@?$ReflectionAllocator@VAdjEdge@@@shdfnd@physx@@CAPEBDXZ 0000000180004750 f i Adjacencies.obj
 0001:00003790       ?getName@?$ReflectionAllocator@VAdjTriangle@physx@@@shdfnd@physx@@CAPEBDXZ 0000000180004790 f i Adjacencies.obj
 0001:000037d0       ?getNamedAllocMap@Foundation@shdfnd@physx@@QEAAAEAV?$HashMap@PEBVNamedAllocator@shdfnd@physx@@PEBDU?$Hash@PEBVNamedAllocator@shdfnd@physx@@@23@VNonTrackingAllocator@23@@23@XZ 00000001800047d0 f i Adjacencies.obj
 0001:000037f0       ?getNamedAllocMutex@Foundation@shdfnd@physx@@QEAAAEAV?$MutexT@VAllocator@shdfnd@physx@@@23@XZ 00000001800047f0 f i Adjacencies.obj
 0001:00003810       ?getReportAllocationNames@Foundation@shdfnd@physx@@UEBA_NXZ 0000000180004810 f i Adjacencies.obj
 0001:00003830       ?getTempAllocFreeTable@Foundation@shdfnd@physx@@QEAAAEAV?$Array@PEATTempAllocatorChunk@shdfnd@physx@@VAllocator@23@@23@XZ 0000000180004830 f i Adjacencies.obj
 0001:00003850       ?getTempAllocMutex@Foundation@shdfnd@physx@@QEAAAEAV?$MutexT@VAllocator@shdfnd@physx@@@23@XZ 0000000180004850 f i Adjacencies.obj
 0001:00003870       ?invalidateRanks@RadixSort@Cm@physx@@QEAAXXZ 0000000180004870 f i Adjacencies.obj
 0001:00003890       ?memZero@intrinsics@physx@@YAPEAXPEAXI@Z 0000000180004890 f i Adjacencies.obj
 0001:000038c0       ?name@type_info@@QEBAPEBDXZ 00000001800048c0 f i Adjacencies.obj
 0001:000038f0       ?setErrorLevel@Foundation@shdfnd@physx@@UEAAXW4Enum@PxErrorCode@3@@Z 00000001800048f0 f i Adjacencies.obj
 0001:00003910       ?setReportAllocationNames@Foundation@shdfnd@physx@@UEAAX_N@Z 0000000180004910 f i Adjacencies.obj
 0001:00003930       PxCreateCooking            0000000180004930 f   Cooking.obj
 0001:00003a20       ?release@Cooking@physx@@UEAAXXZ 0000000180004a20 f   Cooking.obj
 0001:00003a70       ?setParams@Cooking@physx@@UEAAXAEBUPxCookingParams@2@@Z 0000000180004a70 f   Cooking.obj
 0001:00003aa0       ?getParams@Cooking@physx@@UEBAAEBUPxCookingParams@2@XZ 0000000180004aa0 f   Cooking.obj
 0001:00003ac0       ?platformMismatch@Cooking@physx@@UEBA_NXZ 0000000180004ac0 f   Cooking.obj
 0001:00003b10       ?cookTriangleMesh@Cooking@physx@@UEBA_NAEBVPxTriangleMeshDesc@2@AEAVPxOutputStream@2@PEAW4Enum@PxTriangleMeshCookingResult@2@@Z 0000000180004b10 f   Cooking.obj
 0001:00003c20       ?createTriangleMesh@Cooking@physx@@UEBAPEAVPxTriangleMesh@2@AEBVPxTriangleMeshDesc@2@AEAVPxPhysicsInsertionCallback@2@PEAW4Enum@PxTriangleMeshCookingResult@2@@Z 0000000180004c20 f   Cooking.obj
 0001:00003d30       ?validateTriangleMesh@Cooking@physx@@UEBA_NAEBVPxTriangleMeshDesc@2@@Z 0000000180004d30 f   Cooking.obj
 0001:00003e00       ?cookConvexMesh@Cooking@physx@@UEBA_NAEBVPxConvexMeshDesc@2@AEAVPxOutputStream@2@PEAW4Enum@PxConvexMeshCookingResult@2@@Z 0000000180004e00 f   Cooking.obj
 0001:00004130       ?createConvexMesh@Cooking@physx@@UEBAPEAVPxConvexMesh@2@AEBVPxConvexMeshDesc@2@AEAVPxPhysicsInsertionCallback@2@PEAW4Enum@PxConvexMeshCookingResult@2@@Z 0000000180005130 f   Cooking.obj
 0001:000044b0       ?validateConvexMesh@Cooking@physx@@UEBA_NAEBVPxConvexMeshDesc@2@@Z 00000001800054b0 f   Cooking.obj
 0001:00004530       ?computeHullPolygons@Cooking@physx@@UEBA_NAEBVPxSimpleTriangleMesh@2@AEAVPxAllocatorCallback@2@AEAIAEAPEAVPxVec3@2@2AEAPEAI2AEAPEAUPxHullPolygon@2@@Z 0000000180005530 f   Cooking.obj
 0001:00004800       ?cookHeightField@Cooking@physx@@UEBA_NAEBVPxHeightFieldDesc@2@AEAVPxOutputStream@2@@Z 0000000180005800 f   Cooking.obj
 0001:00004960       ?createHeightField@Cooking@physx@@UEBAPEAVPxHeightField@2@AEBVPxHeightFieldDesc@2@AEAVPxPhysicsInsertionCallback@2@@Z 0000000180005960 f   Cooking.obj
 0001:00004c50       ?cookBVHStructure@Cooking@physx@@UEBA_NAEBVPxBVHStructureDesc@2@AEAVPxOutputStream@2@@Z 0000000180005c50 f   Cooking.obj
 0001:00004d70       ?createBVHStructure@Cooking@physx@@UEBAPEAVPxBVHStructure@2@AEBVPxBVHStructureDesc@2@AEAVPxPhysicsInsertionCallback@2@@Z 0000000180005d70 f   Cooking.obj
 0001:00004ea0       ?cookConvexMeshInternal@Cooking@physx@@AEBA_NAEBVPxConvexMeshDesc@2@AEAVConvexMeshBuilder@2@PEAVConvexHullLib@2@PEAW4Enum@PxConvexMeshCookingResult@2@@Z 0000000180005ea0 f   Cooking.obj
 0001:000051c0       ?cookTriangleMesh@Cooking@physx@@AEBA_NAEAVTriangleMeshBuilder@2@AEBVPxTriangleMeshDesc@2@AEAVPxOutputStream@2@PEAW4Enum@PxTriangleMeshCookingResult@2@@Z 00000001800061c0 f   Cooking.obj
 0001:000052a0       ?createTriangleMesh@Cooking@physx@@AEBAPEAVPxTriangleMesh@2@AEAVTriangleMeshBuilder@2@AEBVPxTriangleMeshDesc@2@AEAVPxPhysicsInsertionCallback@2@PEAW4Enum@PxTriangleMeshCookingResult@2@@Z 00000001800062a0 f   Cooking.obj
 0001:00005470       ??$?2V?$ReflectionAllocator@VCooking@physx@@@shdfnd@physx@@@UserAllocated@shdfnd@physx@@SAPEAX_KV?$ReflectionAllocator@VCooking@physx@@@12@PEBDH@Z 0000000180006470 f i Cooking.obj
 0001:000054b0       ??$?2V?$ReflectionAllocator@VQuickHullConvexHullLib@physx@@@shdfnd@physx@@@UserAllocated@shdfnd@physx@@SAPEAX_KV?$ReflectionAllocator@VQuickHullConvexHullLib@physx@@@12@PEBDH@Z 00000001800064b0 f i Cooking.obj
 0001:000054f0       ??$PX_UNUSED@VPxFoundation@physx@@@@YAXAEBVPxFoundation@physx@@@Z 00000001800064f0 f i Cooking.obj
 0001:00005500       ??$PX_UNUSED@W4PxIDENTITY@physx@@@@YAXAEBW4PxIDENTITY@physx@@@Z 0000000180006500 f i Cooking.obj
 0001:00005510       ??$PxMax@I@physx@@YAIII@Z  0000000180006510 f i Cooking.obj
 0001:00005540       ??$PxMin@G@physx@@YAGGG@Z  0000000180006540 f i Cooking.obj
 0001:00005580       ??0?$PxBitAndDataT@G$0IAAA@@physx@@QEAA@XZ 0000000180006580 f i Cooking.obj
 0001:000055a0       ??0?$PxFlags@W4Enum@PxBaseFlag@physx@@G@physx@@QEAA@AEBV01@@Z 00000001800065a0 f i Cooking.obj
 0001:000055c0       ??0?$PxFlags@W4Enum@PxConvexFlag@physx@@G@physx@@QEAA@AEBV01@@Z 00000001800065c0 f i Cooking.obj
 0001:000055e0       ??0?$PxFlags@W4Enum@PxConvexFlag@physx@@G@physx@@QEAA@W4Enum@PxConvexFlag@1@@Z 00000001800065e0 f i Cooking.obj
 0001:00005600       ??0?$PxFlags@W4Enum@PxConvexFlag@physx@@G@physx@@QEAA@XZ 0000000180006600 f i Cooking.obj
 0001:00005620       ??0?$PxFlags@W4Enum@PxHeightFieldFlag@physx@@G@physx@@QEAA@AEBV01@@Z 0000000180006620 f i Cooking.obj
 0001:00005640       ??0?$PxFlags@W4Enum@PxHeightFieldFlag@physx@@G@physx@@QEAA@W4PxEMPTY@1@@Z 0000000180006640 f i Cooking.obj
 0001:00005650       ??0?$PxFlags@W4Enum@PxHeightFieldFlag@physx@@G@physx@@QEAA@XZ 0000000180006650 f i Cooking.obj
 0001:00005670       ??0?$PxFlags@W4Enum@PxMeshFlag@physx@@G@physx@@QEAA@AEBV01@@Z 0000000180006670 f i Cooking.obj
 0001:00005690       ??0?$PxFlags@W4Enum@PxMeshPreprocessingFlag@physx@@I@physx@@QEAA@AEBV01@@Z 0000000180006690 f i Cooking.obj
 0001:000056b0       ??0?$ReflectionAllocator@VCooking@physx@@@shdfnd@physx@@QEAA@PEBD@Z 00000001800066b0 f i Cooking.obj
 0001:000056c0       ??0?$ReflectionAllocator@VHeightField@Gu@physx@@@shdfnd@physx@@QEAA@PEBD@Z 00000001800066c0 f i Cooking.obj
 0001:000056d0       ??0?$ReflectionAllocator@VQuickHullConvexHullLib@physx@@@shdfnd@physx@@QEAA@PEBD@Z 00000001800066d0 f i Cooking.obj
 0001:000056e0       ??0CenterExtents@Gu@physx@@QEAA@AEBV012@@Z 00000001800066e0 f i Cooking.obj
 0001:00005730       ??0CenterExtents@Gu@physx@@QEAA@XZ 0000000180006730 f i Cooking.obj
 0001:00005770       ??0ConvexHullData@Gu@physx@@QEAA@XZ 0000000180006770 f i Cooking.obj
 0001:000057c0       ??0ConvexHullInitData@Gu@physx@@QEAA@XZ 00000001800067c0 f i Cooking.obj
 0001:00005800       ??0Cooking@physx@@QEAA@AEBUPxCookingParams@1@@Z 0000000180006800 f i Cooking.obj
 0001:00005850       ??0DebugText@Cm@physx@@QEAA@$$QEAU012@@Z 0000000180006850 f i Cooking.obj
 0001:000058c0       ??0DebugText@Cm@physx@@QEAA@AEBU012@@Z 00000001800068c0 f i Cooking.obj
 0001:00005930       ??0HeightFieldData@Gu@physx@@QEAA@$$QEAU012@@Z 0000000180006930 f i Cooking.obj
 0001:00005a10       ??0HeightFieldData@Gu@physx@@QEAA@AEBU012@@Z 0000000180006a10 f i Cooking.obj
 0001:00005af0       ??0HeightFieldData@Gu@physx@@QEAA@W4PxEMPTY@2@@Z 0000000180006af0 f i Cooking.obj
 0001:00005b30       ??0HeightFieldData@Gu@physx@@QEAA@XZ 0000000180006b30 f i Cooking.obj
 0001:00005b70       ??0PxConvexMeshDesc@physx@@QEAA@AEBV01@@Z 0000000180006b70 f i Cooking.obj
 0001:00005c10       ??0PxCooking@physx@@QEAA@XZ 0000000180006c10 f i Cooking.obj
 0001:00005c30       ??0PxCookingParams@physx@@QEAA@AEBU01@@Z 0000000180006c30 f i Cooking.obj
 0001:00005d20       ??0PxDebugLine@physx@@QEAA@AEBU01@@Z 0000000180006d20 f i Cooking.obj
 0001:00005d90       ??0PxMat33@physx@@QEAA@XZ  0000000180006d90 f i Cooking.obj
 0001:00005de0       ??0PxMat44@physx@@QEAA@AEBV01@@Z 0000000180006de0 f i Cooking.obj
 0001:00005e60       ??0PxMat44@physx@@QEAA@W4PxIDENTITY@1@@Z 0000000180006e60 f i Cooking.obj
 0001:00005f20       ??0PxVec3@physx@@QEAA@AEBV01@@Z 0000000180006f20 f i Cooking.obj
 0001:00005f70       ??0PxVec3@physx@@QEAA@M@Z  0000000180006f70 f i Cooking.obj
 0001:00005fb0       ??0PxVec3@physx@@QEAA@MMM@Z 0000000180006fb0 f i Cooking.obj
 0001:00006000       ??0PxVec3@physx@@QEAA@XZ   0000000180007000 f i Cooking.obj
 0001:00006010       ??0PxVec4@physx@@QEAA@AEBV01@@Z 0000000180007010 f i Cooking.obj
 0001:00006070       ??0PxVec4@physx@@QEAA@MMMM@Z 0000000180007070 f i Cooking.obj
 0001:000060d0       ??0RenderOutput@Cm@physx@@QEAA@AEAVRenderBuffer@12@@Z 00000001800070d0 f i Cooking.obj
 0001:00006160       ??0RenderOutput@Cm@physx@@QEAA@AEBV012@@Z 0000000180007160 f i Cooking.obj
 0001:00006210       ??1CenterExtents@Gu@physx@@QEAA@XZ 0000000180007210 f i Cooking.obj
 0001:00006220       ??1ConvexHullData@Gu@physx@@QEAA@XZ 0000000180007220 f i Cooking.obj
 0001:00006240       ??1ConvexHullInitData@Gu@physx@@QEAA@XZ 0000000180007240 f i Cooking.obj
 0001:00006260       ??1Cooking@physx@@UEAA@XZ  0000000180007260 f i Cooking.obj
 0001:00006280       ??1HeightFieldData@Gu@physx@@QEAA@XZ 0000000180007280 f i Cooking.obj
 0001:000062a0       ??1PxBase@physx@@MEAA@XZ   00000001800072a0 f i Cooking.obj
 0001:000062c0       ??1PxConvexMesh@physx@@MEAA@XZ 00000001800072c0 f i Cooking.obj
 0001:000062f0       ??1PxCooking@physx@@MEAA@XZ 00000001800072f0 f i Cooking.obj
 0001:00006310       ??1PxHeightField@physx@@MEAA@XZ 0000000180007310 f i Cooking.obj
 0001:00006340       ??2@YAPEAX_KPEAX@Z         0000000180007340 f i Cooking.obj
 0001:00006350       ??2UserAllocated@shdfnd@physx@@SAPEAX_KPEAX@Z 0000000180007350 f i Cooking.obj
 0001:00006360       ??4?$PxFlags@W4Enum@PxHeightFieldFlag@physx@@G@physx@@QEAAAEAV01@AEBV01@@Z 0000000180007360 f i Cooking.obj
 0001:00006380       ??4?$PxFlags@W4Enum@PxMeshPreprocessingFlag@physx@@I@physx@@QEAAAEAV01@AEBV01@@Z 0000000180007380 f i Cooking.obj
 0001:000063a0       ??4CenterExtents@Gu@physx@@QEAAAEAV012@AEBV012@@Z 00000001800073a0 f i Cooking.obj
 0001:000063f0       ??4DebugText@Cm@physx@@QEAAAEAU012@$$QEAU012@@Z 00000001800073f0 f i Cooking.obj
 0001:00006490       ??4DebugText@Cm@physx@@QEAAAEAU012@AEBU012@@Z 0000000180007490 f i Cooking.obj
 0001:00006530       ??4FPUGuard@shdfnd@physx@@QEAAAEAV012@AEBV012@@Z 0000000180007530 f i Cooking.obj
 0001:00006560       ??4HeightFieldData@Gu@physx@@QEAAAEAU012@$$QEAU012@@Z 0000000180007560 f i Cooking.obj
 0001:00006640       ??4HeightFieldData@Gu@physx@@QEAAAEAU012@AEBU012@@Z 0000000180007640 f i Cooking.obj
 0001:00006720       ??4PxCookingParams@physx@@QEAAAEAU01@AEBU01@@Z 0000000180007720 f i Cooking.obj
 0001:00006810       ??4PxVec3@physx@@QEAAAEAV01@AEBV01@@Z 0000000180007810 f i Cooking.obj
 0001:00006860       ??9?$PxFlags@W4Enum@PxHeightFieldFlag@physx@@G@physx@@QEBA_NAEBV01@@Z 0000000180007860 f i Cooking.obj
 0001:000068a0       ??B?$PxBitAndDataT@E$0IA@@physx@@QEBAEXZ 00000001800078a0 f i Cooking.obj
 0001:000068c0       ??B?$PxBitAndDataT@G$0IAAA@@physx@@QEBAGXZ 00000001800078c0 f i Cooking.obj
 0001:000068e0       ??B?$PxFlags@W4Enum@PxBaseFlag@physx@@G@physx@@QEBA_NXZ 00000001800078e0 f i Cooking.obj
 0001:00006910       ??B?$PxFlags@W4Enum@PxConvexFlag@physx@@G@physx@@QEBA_NXZ 0000000180007910 f i Cooking.obj
 0001:00006940       ??B?$PxFlags@W4Enum@PxMeshFlag@physx@@G@physx@@QEBA_NXZ 0000000180007940 f i Cooking.obj
 0001:00006970       ??B?$PxFlags@W4Enum@PxMeshPreprocessingFlag@physx@@I@physx@@QEBA_NXZ 0000000180007970 f i Cooking.obj
 0001:000069a0       ??I?$PxFlags@W4Enum@PxBaseFlag@physx@@G@physx@@QEBA?AV01@W4Enum@PxBaseFlag@1@@Z 00000001800079a0 f i Cooking.obj
 0001:000069f0       ??I?$PxFlags@W4Enum@PxConvexFlag@physx@@G@physx@@QEBA?AV01@W4Enum@PxConvexFlag@1@@Z 00000001800079f0 f i Cooking.obj
 0001:00006a40       ??I?$PxFlags@W4Enum@PxHeightFieldFlag@physx@@G@physx@@QEBA?AV01@W4Enum@PxHeightFieldFlag@1@@Z 0000000180007a40 f i Cooking.obj
 0001:00006a90       ??I?$PxFlags@W4Enum@PxMeshFlag@physx@@G@physx@@QEBA?AV01@W4Enum@PxMeshFlag@1@@Z 0000000180007a90 f i Cooking.obj
 0001:00006ae0       ??I?$PxFlags@W4Enum@PxMeshPreprocessingFlag@physx@@I@physx@@QEBA?AV01@W4Enum@PxMeshPreprocessingFlag@1@@Z 0000000180007ae0 f i Cooking.obj
 0001:00006b30       ??S?$PxFlags@W4Enum@PxConvexFlag@physx@@G@physx@@QEBA?AV01@XZ 0000000180007b30 f i Cooking.obj
 0001:00006b70       ??Sphysx@@YA?AV?$PxFlags@W4Enum@PxConvexFlag@physx@@G@0@W4Enum@PxConvexFlag@0@@Z 0000000180007b70 f i Cooking.obj
 0001:00006bb0       ??_4?$PxFlags@W4Enum@PxConvexFlag@physx@@G@physx@@QEAAAEAV01@AEBV01@@Z 0000000180007bb0 f i Cooking.obj
 0001:00006be0       ??_EPxConvexMesh@physx@@MEAAPEAXI@Z 0000000180007be0 f i Cooking.obj
 0001:00006c80       ??_EPxHeightField@physx@@MEAAPEAXI@Z 0000000180007c80 f i Cooking.obj
 0001:00006d20       ??_ECooking@physx@@UEAAPEAXI@Z 0000000180007d20 f i Cooking.obj
 0001:00006d20       ??_GCooking@physx@@UEAAPEAXI@Z 0000000180007d20 f i Cooking.obj
 0001:00006d80       ??_EPxBase@physx@@MEAAPEAXI@Z 0000000180007d80 f i Cooking.obj
 0001:00006d80       ??_GPxBase@physx@@MEAAPEAXI@Z 0000000180007d80 f i Cooking.obj
 0001:00006dc0       ??_EPxCooking@physx@@MEAAPEAXI@Z 0000000180007dc0 f i Cooking.obj
 0001:00006dc0       ??_GPxCooking@physx@@MEAAPEAXI@Z 0000000180007dc0 f i Cooking.obj
 0001:00006e00       ?FLoad@aos@shdfnd@physx@@YA?AT__m128@@M@Z 0000000180007e00 f i Cooking.obj
 0001:00006e30       ?PxMemCopy@physx@@YAPEAXPEAXPEBXI@Z 0000000180007e30 f i Cooking.obj
 0001:00006e60       ?V3Load@aos@shdfnd@physx@@YA?AT__m128@@M@Z 0000000180007e60 f i Cooking.obj
 0001:00006ea0       ?V4Load@aos@shdfnd@physx@@YA?AT__m128@@M@Z 0000000180007ea0 f i Cooking.obj
 0001:00006ed0       ?allocate@?$Array@UPxDebugLine@physx@@VNamedAllocator@shdfnd@2@@shdfnd@physx@@IEAAPEAUPxDebugLine@3@I@Z 0000000180007ed0 f i Cooking.obj
 0001:00006f60       ?allocate@?$ReflectionAllocator@VCooking@physx@@@shdfnd@physx@@QEAAPEAX_KPEBDH@Z 0000000180007f60 f i Cooking.obj
 0001:00006fe0       ?allocate@?$ReflectionAllocator@VHeightField@Gu@physx@@@shdfnd@physx@@QEAAPEAX_KPEBDH@Z 0000000180007fe0 f i Cooking.obj
 0001:00007060       ?allocate@?$ReflectionAllocator@VQuickHullConvexHullLib@physx@@@shdfnd@physx@@QEAAPEAX_KPEBDH@Z 0000000180008060 f i Cooking.obj
 0001:000070e0       ?capacity@?$Array@UPxDebugLine@physx@@VNamedAllocator@shdfnd@2@@shdfnd@physx@@QEBAIXZ 00000001800080e0 f i Cooking.obj
 0001:00007100       ?copy@?$Array@UPxDebugLine@physx@@VNamedAllocator@shdfnd@2@@shdfnd@physx@@KAXPEAUPxDebugLine@3@0PEBU43@@Z 0000000180008100 f i Cooking.obj
 0001:00007180       ?deallocate@?$Array@UPxDebugLine@physx@@VNamedAllocator@shdfnd@2@@shdfnd@physx@@IEAAXPEAX@Z 0000000180008180 f i Cooking.obj
 0001:000071b0       ?destroy@?$Array@UPxDebugLine@physx@@VNamedAllocator@shdfnd@2@@shdfnd@physx@@KAXPEAUPxDebugLine@3@0@Z 00000001800081b0 f i Cooking.obj
 0001:000071e0       ?end@?$Array@UPxDebugLine@physx@@VNamedAllocator@shdfnd@2@@shdfnd@physx@@QEAAPEAUPxDebugLine@3@XZ 00000001800081e0 f i Cooking.obj
 0001:00007200       ?forceSize_Unsafe@?$Array@UPxDebugLine@physx@@VNamedAllocator@shdfnd@2@@shdfnd@physx@@QEAAXI@Z 0000000180008200 f i Cooking.obj
 0001:00007280       ?fsel@intrinsics@physx@@YAMMMM@Z 0000000180008280 f i Cooking.obj
 0001:000072d0       ?gatherStrided@Cooking@physx@@SAXPEBXPEAXIII@Z 00000001800082d0 f i Cooking.obj
 0001:00007360       ?getConcreteTypeName@PxConvexMesh@physx@@UEBAPEBDXZ 0000000180008360 f i Cooking.obj
 0001:00007370       ?getConcreteTypeName@PxHeightField@physx@@UEBAPEBDXZ 0000000180008370 f i Cooking.obj
 0001:00007380       ?getConvexEdgeThreshold@HeightField@Gu@physx@@UEBAMXZ 0000000180008380 f i Cooking.obj
 0001:00007390       ?getFlags@HeightField@Gu@physx@@UEBA?AV?$PxFlags@W4Enum@PxHeightFieldFlag@physx@@G@3@XZ 0000000180008390 f i Cooking.obj
 0001:000073c0       ?getFormat@HeightField@Gu@physx@@UEBA?AW4Enum@PxHeightFieldFormat@3@XZ 00000001800083c0 f i Cooking.obj
 0001:000073d0       ?getHeight@HeightField@Gu@physx@@QEBAMI@Z 00000001800083d0 f i Cooking.obj
 0001:00007400       ?getHeight@HeightField@Gu@physx@@UEBAMMM@Z 0000000180008400 f i Cooking.obj
 0001:00007430       ?getHeightInternal2@HeightField@Gu@physx@@QEBAMIMM@Z 0000000180008430 f i Cooking.obj
 0001:000076a0       ?getHeightInternal@HeightField@Gu@physx@@QEBAMMM@Z 00000001800086a0 f i Cooking.obj
 0001:00007700       ?getHullVertices@ConvexHullData@Gu@physx@@QEBAPEBVPxVec3@3@XZ 0000000180008700 f i Cooking.obj
 0001:00007740       ?getIndexBuffer@ConvexMesh@Gu@physx@@UEBAPEBEXZ 0000000180008740 f i Cooking.obj
 0001:00007760       ?getMaterialIndex0@HeightField@Gu@physx@@QEBAGI@Z 0000000180008760 f i Cooking.obj
 0001:00007790       ?getMaterialIndex1@HeightField@Gu@physx@@QEBAGI@Z 0000000180008790 f i Cooking.obj
 0001:000077c0       ?getMeshData@TriangleMeshBuilder@physx@@QEAAAEAVTriangleMeshData@Gu@2@XZ 00000001800087c0 f i Cooking.obj
 0001:000077d0       ?getName@?$ReflectionAllocator@VCooking@physx@@@shdfnd@physx@@CAPEBDXZ 00000001800087d0 f i Cooking.obj
 0001:00007810       ?getName@?$ReflectionAllocator@VHeightField@Gu@physx@@@shdfnd@physx@@CAPEBDXZ 0000000180008810 f i Cooking.obj
 0001:00007850       ?getName@?$ReflectionAllocator@VQuickHullConvexHullLib@physx@@@shdfnd@physx@@CAPEBDXZ 0000000180008850 f i Cooking.obj
 0001:00007890       ?getNbColumns@HeightField@Gu@physx@@UEBAIXZ 0000000180008890 f i Cooking.obj
 0001:000078a0       ?getNbColumnsFast@HeightField@Gu@physx@@QEBAIXZ 00000001800088a0 f i Cooking.obj
 0001:000078b0       ?getNbPolygons@ConvexMesh@Gu@physx@@UEBAIXZ 00000001800088b0 f i Cooking.obj
 0001:000078c0       ?getNbRows@HeightField@Gu@physx@@UEBAIXZ 00000001800088c0 f i Cooking.obj
 0001:000078d0       ?getNbVertices@ConvexMesh@Gu@physx@@UEBAIXZ 00000001800088d0 f i Cooking.obj
 0001:000078e0       ?getPaddedBounds@HeightFieldData@Gu@physx@@QEBAAEBVCenterExtentsPadded@23@XZ 00000001800088e0 f i Cooking.obj
 0001:000078f0       ?getSample@HeightField@Gu@physx@@QEBAAEBUPxHeightFieldSample@3@I@Z 00000001800088f0 f i Cooking.obj
 0001:00007970       ?getSample@HeightField@Gu@physx@@UEBAAEBUPxHeightFieldSample@3@II@Z 0000000180008970 f i Cooking.obj
 0001:000079b0       ?getSampleStride@HeightField@Gu@physx@@UEBAIXZ 00000001800089b0 f i Cooking.obj
 0001:000079c0       ?getTimestamp@HeightField@Gu@physx@@UEBAIXZ 00000001800089c0 f i Cooking.obj
 0001:000079d0       ?getTriangleMaterial@HeightField@Gu@physx@@QEBAGI@Z 00000001800089d0 f i Cooking.obj
 0001:00007a30       ?getTriangleMaterialIndex@HeightField@Gu@physx@@UEBAGI@Z 0000000180008a30 f i Cooking.obj
 0001:00007a50       ?getTriangleNormal@HeightField@Gu@physx@@UEBA?AVPxVec3@3@I@Z 0000000180008a50 f i Cooking.obj
 0001:00007a90       ?getTriangleNormalInternal@HeightField@Gu@physx@@QEBA?AVPxVec3@3@I@Z 0000000180008a90 f i Cooking.obj
 0001:00007cf0       ?getTriangleVertexIndices@HeightField@Gu@physx@@QEBAXIAEAI00@Z 0000000180008cf0 f i Cooking.obj
 0001:00007e40       ?getType@PxMidphaseDesc@physx@@QEBA?AW4Enum@PxMeshMidPhase@2@XZ 0000000180008e40 f i Cooking.obj
 0001:00007e50       ?getVertexData8@ConvexHullData@Gu@physx@@QEBAPEBEXZ 0000000180008e50 f i Cooking.obj
 0001:00007f30       ?getVertices@ConvexMesh@Gu@physx@@UEBAPEBVPxVec3@3@XZ 0000000180008f30 f i Cooking.obj
 0001:00007f50       ?grow@?$Array@UPxDebugLine@physx@@VNamedAllocator@shdfnd@2@@shdfnd@physx@@IEAAXI@Z 0000000180008f50 f i Cooking.obj
 0001:00007fd0       ?isBitSet@?$PxBitAndDataT@E$0IA@@physx@@QEBAEXZ 0000000180008fd0 f i Cooking.obj
 0001:00007ff0       ?isBitSet@?$PxBitAndDataT@G$0IAAA@@physx@@QEBAGXZ 0000000180008ff0 f i Cooking.obj
 0001:00008010       ?isFirstTriangle@HeightField@Gu@physx@@QEBA_NI@Z 0000000180009010 f i Cooking.obj
 0001:00008050       ?isInUserMemory@?$Array@UPxDebugLine@physx@@VNamedAllocator@shdfnd@2@@shdfnd@physx@@QEBAIXZ 0000000180009050 f i Cooking.obj
 0001:00008070       ?isKindOf@PxBase@physx@@MEBA_NPEBD@Z 0000000180009070 f i Cooking.obj
 0001:000080b0       ?isKindOf@PxConvexMesh@physx@@MEBA_NPEBD@Z 00000001800090b0 f i Cooking.obj
 0001:00008110       ?isKindOf@PxHeightField@physx@@MEBA_NPEBD@Z 0000000180009110 f i Cooking.obj
 0001:00008170       ?isReleasable@PxBase@physx@@UEBA_NXZ 0000000180009170 f i Cooking.obj
 0001:000081b0       ?isValid@PxBVHStructureDesc@physx@@QEBA_NXZ 00000001800091b0 f i Cooking.obj
 0001:000081f0       ?isValid@PxConvexMeshDesc@physx@@QEBA_NXZ 00000001800091f0 f i Cooking.obj
 0001:00008400       ?isValid@PxHeightFieldDesc@physx@@QEBA_NXZ 0000000180009400 f i Cooking.obj
 0001:000084b0       ?isValid@PxSimpleTriangleMesh@physx@@QEBA_NXZ 00000001800094b0 f i Cooking.obj
 0001:00008590       ?isValid@PxTriangleMeshDesc@physx@@QEBA_NXZ 0000000180009590 f i Cooking.obj
 0001:00008600       ?isValidVertex@HeightField@Gu@physx@@QEBA_NI@Z 0000000180009600 f i Cooking.obj
 0001:00008640       ?isZerothVertexShared@HeightField@Gu@physx@@QEBA_NI@Z 0000000180009640 f i Cooking.obj
 0001:00008690       ?littleEndian@shdfnd@physx@@YADXZ 0000000180009690 f i Cooking.obj
 0001:000086b0       ?markSerializedMem@Cm@physx@@YAXPEAXI@Z 00000001800096b0 f i Cooking.obj
 0001:000086f0       ?memCopy@intrinsics@physx@@YAPEAXPEAXPEBXI@Z 00000001800096f0 f i Cooking.obj
 0001:00008720       ?outputSegment@RenderOutput@Cm@physx@@QEAAXAEBVPxVec3@3@0@Z 0000000180009720 f i Cooking.obj
 0001:000087a0       ?preExportDataReset@ConvexMesh@Gu@physx@@QEAAXXZ 00000001800097a0 f i Cooking.obj
 0001:000087c0       ?preExportDataReset@HeightField@Gu@physx@@QEAAXXZ 00000001800097c0 f i Cooking.obj
 0001:000087e0       ?preExportDataReset@RefCountable@Cm@physx@@QEAAXXZ 00000001800097e0 f i Cooking.obj
 0001:00008800       ?recreate@?$Array@UPxDebugLine@physx@@VNamedAllocator@shdfnd@2@@shdfnd@physx@@IEAAXI@Z 0000000180009800 f i Cooking.obj
 0001:00008920       ?reserve@?$Array@UPxDebugLine@physx@@VNamedAllocator@shdfnd@2@@shdfnd@physx@@QEAAXI@Z 0000000180009920 f i Cooking.obj
 0001:00008950       ?reserveSegments@RenderOutput@Cm@physx@@QEAAPEAUPxDebugLine@3@I@Z 0000000180009950 f i Cooking.obj
 0001:00008980       ?size@?$Array@UPxDebugLine@physx@@VNamedAllocator@shdfnd@2@@shdfnd@physx@@QEBAIXZ 0000000180009980 f i Cooking.obj
 0001:00008990       ?tessFlag@PxHeightFieldSample@physx@@QEBAEXZ 0000000180009990 f i Cooking.obj
 0001:000089d0       ??0ReducedVertexCloud@physx@@QEAA@PEBVPxVec3@1@I@Z 00000001800099d0 f   CookingUtils.obj
 0001:00008a30       ??1ReducedVertexCloud@physx@@QEAA@XZ 0000000180009a30 f   CookingUtils.obj
 0001:00008a50       ?Clean@ReducedVertexCloud@physx@@QEAAAEAV12@XZ 0000000180009a50 f   CookingUtils.obj
 0001:00008ac0       ?Reduce@ReducedVertexCloud@physx@@QEAA_NPEAUREDUCEDCLOUD@2@@Z 0000000180009ac0 f   CookingUtils.obj
 0001:00008fc0       ??$?_UM@@YAPEAX_KV?$ReflectionAllocator@M@shdfnd@physx@@PEBDH@Z 0000000180009fc0 f i CookingUtils.obj
 0001:00009000       ??0?$ReflectionAllocator@M@shdfnd@physx@@QEAA@PEBD@Z 000000018000a000 f i CookingUtils.obj
 0001:00009010       ?allocate@?$ReflectionAllocator@M@shdfnd@physx@@QEAAPEAX_KPEBDH@Z 000000018000a010 f i CookingUtils.obj
 0001:00009090       ?getName@?$ReflectionAllocator@M@shdfnd@physx@@CAPEBDXZ 000000018000a090 f i CookingUtils.obj
 0001:000090d0       ??0EdgeList@Gu@physx@@QEAA@XZ 000000018000a0d0 f   EdgeList.obj
 0001:00009120       ??1EdgeList@Gu@physx@@QEAA@XZ 000000018000a120 f   EdgeList.obj
 0001:000091e0       ?load@EdgeList@Gu@physx@@QEAA_NAEAVPxInputStream@3@@Z 000000018000a1e0 f   EdgeList.obj
 0001:00009510       ??0EdgeListBuilder@Gu@physx@@QEAA@XZ 000000018000a510 f   EdgeList.obj
 0001:00009540       ??1EdgeListBuilder@Gu@physx@@QEAA@XZ 000000018000a540 f   EdgeList.obj
 0001:00009560       ?init@EdgeListBuilder@Gu@physx@@QEAA_NAEBUEDGELISTCREATE@23@@Z 000000018000a560 f   EdgeList.obj
 0001:00009740       ?createFacesToEdges@EdgeListBuilder@Gu@physx@@AEAA_NIPEBIPEBG@Z 000000018000a740 f   EdgeList.obj
 0001:00009f10       ?createEdgesToFaces@EdgeListBuilder@Gu@physx@@AEAA_NIPEBIPEBG@Z 000000018000af10 f   EdgeList.obj
 0001:0000a4b0       ?computeActiveEdges@EdgeListBuilder@Gu@physx@@AEAA_NIPEBIPEBGPEBVPxVec3@3@M@Z 000000018000b4b0 f   EdgeList.obj
 0001:0000bfa0       ??$?_UUEdgeData@Gu@physx@@@@YAPEAX_KV?$ReflectionAllocator@UEdgeData@Gu@physx@@@shdfnd@physx@@PEBDH@Z 000000018000cfa0 f i EdgeList.obj
 0001:0000bfe0       ??$?_UUEdgeTriangleData@Gu@physx@@@@YAPEAX_KV?$ReflectionAllocator@UEdgeTriangleData@Gu@physx@@@shdfnd@physx@@PEBDH@Z 000000018000cfe0 f i EdgeList.obj
 0001:0000c020       ??0?$ReflectionAllocator@UEdgeData@Gu@physx@@@shdfnd@physx@@QEAA@PEBD@Z 000000018000d020 f i EdgeList.obj
 0001:0000c030       ??0?$ReflectionAllocator@UEdgeTriangleData@Gu@physx@@@shdfnd@physx@@QEAA@PEBD@Z 000000018000d030 f i EdgeList.obj
 0001:0000c040       ??0PxPlane@physx@@QEAA@AEBVPxVec3@1@00@Z 000000018000d040 f i EdgeList.obj
 0001:0000c100       ??0PxTriangle@physx@@QEAA@AEBVPxVec3@1@00@Z 000000018000d100 f i EdgeList.obj
 0001:0000c1b0       ??1PxTriangle@physx@@QEAA@XZ 000000018000d1b0 f i EdgeList.obj
 0001:0000c1c0       ??DPxVec3@physx@@QEBA?AV01@M@Z 000000018000d1c0 f i EdgeList.obj
 0001:0000c230       ??GPxVec3@physx@@QEBA?AV01@AEBV01@@Z 000000018000d230 f i EdgeList.obj
 0001:0000c2b0       ??_0PxVec3@physx@@QEAAAEAV01@M@Z 000000018000d2b0 f i EdgeList.obj
 0001:0000c330       ?PxAtan2@physx@@YAMMM@Z    000000018000d330 f i EdgeList.obj
 0001:0000c360       ?PxRecipSqrt@physx@@YAMM@Z 000000018000d360 f i EdgeList.obj
 0001:0000c380       ?PxSqrt@physx@@YAMM@Z      000000018000d380 f i EdgeList.obj
 0001:0000c3a0       ?allocate@?$ReflectionAllocator@UEdgeData@Gu@physx@@@shdfnd@physx@@QEAAPEAX_KPEBDH@Z 000000018000d3a0 f i EdgeList.obj
 0001:0000c420       ?allocate@?$ReflectionAllocator@UEdgeTriangleData@Gu@physx@@@shdfnd@physx@@QEAAPEAX_KPEBDH@Z 000000018000d420 f i EdgeList.obj
 0001:0000c4a0       ?angle@shdfnd@physx@@YAMAEBVPxVec3@2@0@Z 000000018000d4a0 f i EdgeList.obj
 0001:0000c500       ?cross@PxVec3@physx@@QEBA?AV12@AEBV12@@Z 000000018000d500 f i EdgeList.obj
 0001:0000c5c0       ?distance@PxPlane@physx@@QEBAMAEBVPxVec3@2@@Z 000000018000d5c0 f i EdgeList.obj
 0001:0000c5f0       ?dot@PxVec3@physx@@QEBAMAEBV12@@Z 000000018000d5f0 f i EdgeList.obj
 0001:0000c640       ?getEdgeToTriangles@EdgeList@Gu@physx@@QEBAPEBUEdgeDescData@23@XZ 000000018000d640 f i EdgeList.obj
 0001:0000c650       ?getEdges@EdgeList@Gu@physx@@QEBAPEBUEdgeData@23@XZ 000000018000d650 f i EdgeList.obj
 0001:0000c660       ?getFacesByEdges@EdgeList@Gu@physx@@QEBAPEBIXZ 000000018000d660 f i EdgeList.obj
 0001:0000c670       ?getName@?$ReflectionAllocator@UEdgeData@Gu@physx@@@shdfnd@physx@@CAPEBDXZ 000000018000d670 f i EdgeList.obj
 0001:0000c6b0       ?getName@?$ReflectionAllocator@UEdgeTriangleData@Gu@physx@@@shdfnd@physx@@CAPEBDXZ 000000018000d6b0 f i EdgeList.obj
 0001:0000c6f0       ?getNbEdges@EdgeList@Gu@physx@@QEBAIXZ 000000018000d6f0 f i EdgeList.obj
 0001:0000c700       ?getNormalized@PxVec3@physx@@QEBA?AV12@XZ 000000018000d700 f i EdgeList.obj
 0001:0000c790       ?magnitude@PxVec3@physx@@QEBAMXZ 000000018000d790 f i EdgeList.obj
 0001:0000c7b0       ?magnitudeSquared@PxVec3@physx@@QEBAMXZ 000000018000d7b0 f i EdgeList.obj
 0001:0000c800       ?normal@PxTriangle@physx@@QEBAXAEAVPxVec3@2@@Z 000000018000d800 f i EdgeList.obj
 0001:0000c8c0       ?normalize@PxVec3@physx@@QEAAMXZ 000000018000d8c0 f i EdgeList.obj
 0001:0000c910       ?recipSqrt@intrinsics@physx@@YAMM@Z 000000018000d910 f i EdgeList.obj
 0001:0000c940       ?sqrt@intrinsics@physx@@YAMM@Z 000000018000d940 f i EdgeList.obj
 0001:0000c960       fabsf                      000000018000d960 f i EdgeList.obj
 0001:0000c980       ??0MeshCleaner@physx@@QEAA@IPEBVPxVec3@1@IPEBIM@Z 000000018000d980 f   MeshCleaner.obj
 0001:0000d650       ??1MeshCleaner@physx@@QEAA@XZ 000000018000e650 f   MeshCleaner.obj
 0001:0000d960       ??9Indices@@QEBA_NAEBU0@@Z 000000018000e960 f i MeshCleaner.obj
 0001:0000da00       ??9PxVec3@physx@@QEBA_NAEBV01@@Z 000000018000ea00 f i MeshCleaner.obj
 0001:0000da70       ?PxFloor@physx@@YAMM@Z     000000018000ea70 f i MeshCleaner.obj
 0001:0000da90       ?nextPowerOfTwo@shdfnd@physx@@YAII@Z 000000018000ea90 f i MeshCleaner.obj
 0001:0000db00       ?createQuantizer@physx@@YAPEAVQuantizer@1@XZ 000000018000eb00 f   Quantizer.obj
 0001:0000db80       ?kmeans_cluster3d@@YAIPEBVPxVec3@physx@@IIPEAV12@PEAIMM@Z 000000018000eb80 f   Quantizer.obj
 0001:0000dbe0       ??$?2V?$ReflectionAllocator@VQuantizerImpl@@@shdfnd@physx@@@UserAllocated@shdfnd@physx@@SAPEAX_KV?$ReflectionAllocator@VQuantizerImpl@@@12@PEBDH@Z 000000018000ebe0 f i Quantizer.obj
 0001:0000dc20       ??$PX_UNUSED@W4PxZERO@physx@@@@YAXAEBW4PxZERO@physx@@@Z 000000018000ec20 f i Quantizer.obj
 0001:0000dc30       ??$PxMax@M@physx@@YAMMM@Z  000000018000ec30 f i Quantizer.obj
 0001:0000dc60       ??$PxMin@M@physx@@YAMMM@Z  000000018000ec60 f i Quantizer.obj
 0001:0000dc90       ??$kmeans_cluster@VPxVec3@physx@@M@@YAIPEBVPxVec3@physx@@IIPEAV01@PEAIMM@Z 000000018000ec90 f i Quantizer.obj
 0001:0000e3f0       ??0?$Array@VPxVec3@physx@@VNamedAllocator@shdfnd@2@@shdfnd@physx@@QEAA@AEBVNamedAllocator@12@@Z 000000018000f3f0 f i Quantizer.obj
 0001:0000e440       ??0?$ReflectionAllocator@VQuantizerImpl@@@shdfnd@physx@@QEAA@PEBD@Z 000000018000f440 f i Quantizer.obj
 0001:0000e450       ??0PxBounds3@physx@@QEAA@XZ 000000018000f450 f i Quantizer.obj
 0001:0000e490       ??0PxVec3@physx@@QEAA@W4PxZERO@1@@Z 000000018000f490 f i Quantizer.obj
 0001:0000e4e0       ??0Quantizer@physx@@QEAA@XZ 000000018000f4e0 f i Quantizer.obj
 0001:0000e500       ??0QuantizerImpl@@QEAA@XZ  000000018000f500 f i Quantizer.obj
 0001:0000e600       ??1?$Array@VPxVec3@physx@@VNamedAllocator@shdfnd@2@@shdfnd@physx@@QEAA@XZ 000000018000f600 f i Quantizer.obj
 0001:0000e670       ??1Quantizer@physx@@MEAA@XZ 000000018000f670 f i Quantizer.obj
 0001:0000e690       ??1QuantizerImpl@@EEAA@XZ  000000018000f690 f i Quantizer.obj
 0001:0000e6e0       ??A?$Array@VPxVec3@physx@@VNamedAllocator@shdfnd@2@@shdfnd@physx@@QEAAAEAVPxVec3@2@I@Z 000000018000f6e0 f i Quantizer.obj
 0001:0000e760       ??APxVec3@physx@@QEAAAEAMI@Z 000000018000f760 f i Quantizer.obj
 0001:0000e7b0       ??HPxVec3@physx@@QEBA?AV01@AEBV01@@Z 000000018000f7b0 f i Quantizer.obj
 0001:0000e830       ??XPxVec3@physx@@QEAAAEAV01@M@Z 000000018000f830 f i Quantizer.obj
 0001:0000e890       ??YPxVec3@physx@@QEAAAEAV01@AEBV01@@Z 000000018000f890 f i Quantizer.obj
 0001:0000e900       ??_EQuantizer@physx@@MEAAPEAXI@Z 000000018000f900 f i Quantizer.obj
 0001:0000e900       ??_GQuantizer@physx@@MEAAPEAXI@Z 000000018000f900 f i Quantizer.obj
 0001:0000e940       ??_EQuantizerImpl@@EEAAPEAXI@Z 000000018000f940 f i Quantizer.obj
 0001:0000e940       ??_GQuantizerImpl@@EEAAPEAXI@Z 000000018000f940 f i Quantizer.obj
 0001:0000e9a0       ?PxAbs@physx@@YAMM@Z       000000018000f9a0 f i Quantizer.obj
 0001:0000e9c0       ?PxIsFinite@physx@@YA_NM@Z 000000018000f9c0 f i Quantizer.obj
 0001:0000e9e0       ?abs@intrinsics@physx@@YAMM@Z 000000018000f9e0 f i Quantizer.obj
 0001:0000ea00       ?allocate@?$Array@VPxVec3@physx@@VNamedAllocator@shdfnd@2@@shdfnd@physx@@IEAAPEAVPxVec3@3@I@Z 000000018000fa00 f i Quantizer.obj
 0001:0000ea90       ?allocate@?$ReflectionAllocator@VQuantizerImpl@@@shdfnd@physx@@QEAAPEAX_KPEBDH@Z 000000018000fa90 f i Quantizer.obj
 0001:0000eb10       ?capacity@?$Array@VPxVec3@physx@@VNamedAllocator@shdfnd@2@@shdfnd@physx@@QEBAIXZ 000000018000fb10 f i Quantizer.obj
 0001:0000eb30       ?capacityIncrement@?$Array@VPxVec3@physx@@VNamedAllocator@shdfnd@2@@shdfnd@physx@@IEBAIXZ 000000018000fb30 f i Quantizer.obj
 0001:0000eb70       ?clear@?$Array@VPxVec3@physx@@VNamedAllocator@shdfnd@2@@shdfnd@physx@@QEAAXXZ 000000018000fb70 f i Quantizer.obj
 0001:0000ebb0       ?copy@?$Array@VPxVec3@physx@@VNamedAllocator@shdfnd@2@@shdfnd@physx@@KAXPEAVPxVec3@3@0PEBV43@@Z 000000018000fbb0 f i Quantizer.obj
 0001:0000ec30       ?deallocate@?$Array@VPxVec3@physx@@VNamedAllocator@shdfnd@2@@shdfnd@physx@@IEAAXPEAX@Z 000000018000fc30 f i Quantizer.obj
 0001:0000ec60       ?destroy@?$Array@VPxVec3@physx@@VNamedAllocator@shdfnd@2@@shdfnd@physx@@KAXPEAVPxVec3@3@0@Z 000000018000fc60 f i Quantizer.obj
 0001:0000ec90       ?getCenter@PxBounds3@physx@@QEBA?AVPxVec3@2@XZ 000000018000fc90 f i Quantizer.obj
 0001:0000ed10       ?getDenormalizeCenter@QuantizerImpl@@UEBAAEBVPxVec3@physx@@XZ 000000018000fd10 f i Quantizer.obj
 0001:0000ed20       ?getDenormalizeScale@QuantizerImpl@@UEBAAEBVPxVec3@physx@@XZ 000000018000fd20 f i Quantizer.obj
 0001:0000ed30       ?getDimensions@PxBounds3@physx@@QEBA?AVPxVec3@2@XZ 000000018000fd30 f i Quantizer.obj
 0001:0000ed90       ?getName@?$ReflectionAllocator@VQuantizerImpl@@@shdfnd@physx@@CAPEBDXZ 000000018000fd90 f i Quantizer.obj
 0001:0000edd0       ?growAndPushBack@?$Array@VPxVec3@physx@@VNamedAllocator@shdfnd@2@@shdfnd@physx@@IEAAAEAVPxVec3@3@AEBV43@@Z 000000018000fdd0 f i Quantizer.obj
 0001:0000ef60       ?include@PxBounds3@physx@@QEAAXAEBVPxVec3@2@@Z 000000018000ff60 f i Quantizer.obj
 0001:0000eff0       ?isFinite@PxBounds3@physx@@QEBA_NXZ 000000018000fff0 f i Quantizer.obj
 0001:0000f050       ?isFinite@PxVec3@physx@@QEBA_NXZ 0000000180010050 f i Quantizer.obj
 0001:0000f0c0       ?isFinite@intrinsics@physx@@YA_NM@Z 00000001800100c0 f i Quantizer.obj
 0001:0000f100       ?isInUserMemory@?$Array@VPxVec3@physx@@VNamedAllocator@shdfnd@2@@shdfnd@physx@@QEBAIXZ 0000000180010100 f i Quantizer.obj
 0001:0000f120       ?isValid@PxBounds3@physx@@QEBA_NXZ 0000000180010120 f i Quantizer.obj
 0001:0000f210       ?kmeansQuantize3D@QuantizerImpl@@UEAAPEBVPxVec3@physx@@IPEBV23@I_NIAEAI@Z 0000000180010210 f i Quantizer.obj
 0001:0000f540       ?maximum@PxVec3@physx@@QEBA?AV12@AEBV12@@Z 0000000180010540 f i Quantizer.obj
 0001:0000f5e0       ?minimum@PxVec3@physx@@QEBA?AV12@AEBV12@@Z 00000001800105e0 f i Quantizer.obj
 0001:0000f680       ?multiply@PxVec3@physx@@QEBA?AV12@AEBV12@@Z 0000000180010680 f i Quantizer.obj
 0001:0000f700       ?normalizeInput@QuantizerImpl@@AEAAXIPEBVPxVec3@physx@@I@Z 0000000180010700 f i Quantizer.obj
 0001:0000f9a0       ?pushBack@?$Array@VPxVec3@physx@@VNamedAllocator@shdfnd@2@@shdfnd@physx@@QEAAAEAVPxVec3@3@AEBV43@@Z 00000001800109a0 f i Quantizer.obj
 0001:0000fa40       ?release@QuantizerImpl@@UEAAXXZ 0000000180010a40 f i Quantizer.obj
 0001:0000fa90       ?selectMax@intrinsics@physx@@YAMMM@Z 0000000180010a90 f i Quantizer.obj
 0001:0000fad0       ?selectMin@intrinsics@physx@@YAMMM@Z 0000000180010ad0 f i Quantizer.obj
 0001:0000fb10       ?setEmpty@PxBounds3@physx@@QEAAXXZ 0000000180010b10 f i Quantizer.obj
 0001:0000fb60       ??0BVHStructureBuilder@physx@@QEAA@XZ 0000000180010b60 f   BVHStructureBuilder.obj
 0001:0000fbb0       ??1BVHStructureBuilder@physx@@QEAA@XZ 0000000180010bb0 f   BVHStructureBuilder.obj
 0001:0000fc40       ?loadFromDesc@BVHStructureBuilder@physx@@QEAA_NAEBVPxBVHStructureDesc@2@@Z 0000000180010c40 f   BVHStructureBuilder.obj
 0001:0000ff80       ?save@BVHStructureBuilder@physx@@QEBA_NAEAVPxOutputStream@2@_N@Z 0000000180010f80 f   BVHStructureBuilder.obj
 0001:00010180       ?moveData@BVHStructureBuilder@physx@@QEAAXAEAUBVHStructureData@Gu@2@@Z 0000000180011180 f   BVHStructureBuilder.obj
 0001:00010230       ?flatten@@YAXAEBVNodeAllocator@Gu@physx@@PEAUBVHNode@23@@Z 0000000180011230 f   BVHStructureBuilder.obj
 0001:000105d0       ??$?4VNamedAllocator@shdfnd@physx@@@?$Array@USlab@NodeAllocator@Gu@physx@@VNamedAllocator@shdfnd@4@@shdfnd@physx@@QEAAAEAV012@AEBV012@@Z 00000001800115d0 f i BVHStructureBuilder.obj
 0001:00010660       ??$PX_UNUSED@_N@@YAXAEB_N@Z 0000000180011660 f i BVHStructureBuilder.obj
 0001:00010670       ??$copy@VNamedAllocator@shdfnd@physx@@@?$Array@USlab@NodeAllocator@Gu@physx@@VNamedAllocator@shdfnd@4@@shdfnd@physx@@IEAAXAEBV012@@Z 0000000180011670 f i BVHStructureBuilder.obj
 0001:00010730       ??0?$Array@USlab@NodeAllocator@Gu@physx@@VNamedAllocator@shdfnd@4@@shdfnd@physx@@QEAA@AEBV012@AEBVNamedAllocator@12@@Z 0000000180011730 f i BVHStructureBuilder.obj
 0001:00010770       ??0AABBTreeBuildNode@Gu@physx@@QEAA@AEBV012@@Z 0000000180011770 f i BVHStructureBuilder.obj
 0001:000107d0       ??0AABBTreeBuildNode@Gu@physx@@QEAA@XZ 00000001800117d0 f i BVHStructureBuilder.obj
 0001:000107f0       ??0AABBTreeBuildParams@Gu@physx@@QEAA@IIPEBVPxBounds3@2@@Z 00000001800117f0 f i BVHStructureBuilder.obj
 0001:00010840       ??0BuildStats@Gu@physx@@QEAA@XZ 0000000180011840 f i BVHStructureBuilder.obj
 0001:00010870       ??0NodeAllocator@Gu@physx@@QEAA@AEBV012@@Z 0000000180011870 f i BVHStructureBuilder.obj
 0001:00010900       ??0PxBounds3@physx@@QEAA@AEBV01@@Z 0000000180011900 f i BVHStructureBuilder.obj
 0001:00010950       ??0PxVec4@physx@@QEAA@XZ   0000000180011950 f i BVHStructureBuilder.obj
 0001:00010960       ??1AABBTreeBuildNode@Gu@physx@@QEAA@XZ 0000000180011960 f i BVHStructureBuilder.obj
 0001:00010970       ??1AABBTreeBuildParams@Gu@physx@@QEAA@XZ 0000000180011970 f i BVHStructureBuilder.obj
 0001:00010990       ??4?$Array@USlab@NodeAllocator@Gu@physx@@VNamedAllocator@shdfnd@4@@shdfnd@physx@@QEAAAEAV012@AEBV012@@Z 0000000180011990 f i BVHStructureBuilder.obj
 0001:000109c0       ??4AABBTreeBuildNode@Gu@physx@@QEAAAEAV012@AEBV012@@Z 00000001800119c0 f i BVHStructureBuilder.obj
 0001:00010a20       ??4AABBTreeBuildParams@Gu@physx@@QEAAAEAV012@AEBV012@@Z 0000000180011a20 f i BVHStructureBuilder.obj
 0001:00010a50       ??4BuildStats@Gu@physx@@QEAAAEAU012@$$QEAU012@@Z 0000000180011a50 f i BVHStructureBuilder.obj
 0001:00010a80       ??4BuildStats@Gu@physx@@QEAAAEAU012@AEBU012@@Z 0000000180011a80 f i BVHStructureBuilder.obj
 0001:00010aa0       ??4NodeAllocator@Gu@physx@@QEAAAEAV012@AEBV012@@Z 0000000180011aa0 f i BVHStructureBuilder.obj
 0001:00010b10       ??4PxBounds3@physx@@QEAAAEAV01@AEBV01@@Z 0000000180011b10 f i BVHStructureBuilder.obj
 0001:00010b60       ??A?$Array@USlab@NodeAllocator@Gu@physx@@VNamedAllocator@shdfnd@4@@shdfnd@physx@@QEBAAEBUSlab@NodeAllocator@Gu@2@I@Z 0000000180011b60 f i BVHStructureBuilder.obj
 0001:00010be0       ??_FAABBTreeBuildParams@Gu@physx@@QEAAXXZ 0000000180011be0 f i BVHStructureBuilder.obj
 0001:00010c10       ?V4Add@aos@shdfnd@physx@@YA?AT__m128@@T4@0@Z 0000000180011c10 f i BVHStructureBuilder.obj
 0001:00010c40       ?V4LoadU@aos@shdfnd@physx@@YA?AT__m128@@QEBM@Z 0000000180011c40 f i BVHStructureBuilder.obj
 0001:00010c60       ?V4Scale@aos@shdfnd@physx@@YA?AT__m128@@T4@0@Z 0000000180011c60 f i BVHStructureBuilder.obj
 0001:00010c90       ?V4StoreA@aos@shdfnd@physx@@YAXT__m128@@PEAM@Z 0000000180011c90 f i BVHStructureBuilder.obj
 0001:00010d10       ?V4StoreU@aos@shdfnd@physx@@YAXT__m128@@PEAM@Z 0000000180011d10 f i BVHStructureBuilder.obj
 0001:00010d30       ?V4Sub@aos@shdfnd@physx@@YA?AT__m128@@T4@0@Z 0000000180011d30 f i BVHStructureBuilder.obj
 0001:00010d60       ?__global_array_delete@@YAXPEAX@Z 0000000180011d60 f i BVHStructureBuilder.obj
 0001:00010d80       ?__global_array_delete@@YAXPEAX_K@Z 0000000180011d80 f i BVHStructureBuilder.obj
 0001:00010db0       ?__global_delete@@YAXPEAX@Z 0000000180011db0 f i BVHStructureBuilder.obj
 0001:00010dd0       ?__global_delete@@YAXPEAX_K@Z 0000000180011dd0 f i BVHStructureBuilder.obj
 0001:00010e00       ?allocate@?$Array@USlab@NodeAllocator@Gu@physx@@VNamedAllocator@shdfnd@4@@shdfnd@physx@@IEAAPEAUSlab@NodeAllocator@Gu@3@I@Z 0000000180011e00 f i BVHStructureBuilder.obj
 0001:00010e90       ?begin@?$Array@USlab@NodeAllocator@Gu@physx@@VNamedAllocator@shdfnd@4@@shdfnd@physx@@QEBAPEBUSlab@NodeAllocator@Gu@3@XZ 0000000180011e90 f i BVHStructureBuilder.obj
 0001:00010ea0       ?capacity@?$Array@USlab@NodeAllocator@Gu@physx@@VNamedAllocator@shdfnd@4@@shdfnd@physx@@QEBAIXZ 0000000180011ea0 f i BVHStructureBuilder.obj
 0001:00010ec0       ?clear@?$Array@USlab@NodeAllocator@Gu@physx@@VNamedAllocator@shdfnd@4@@shdfnd@physx@@QEAAXXZ 0000000180011ec0 f i BVHStructureBuilder.obj
 0001:00010f00       ?copy@?$Array@USlab@NodeAllocator@Gu@physx@@VNamedAllocator@shdfnd@4@@shdfnd@physx@@KAXPEAUSlab@NodeAllocator@Gu@3@0PEBU4563@@Z 0000000180011f00 f i BVHStructureBuilder.obj
 0001:00010f80       ?deallocate@?$Array@USlab@NodeAllocator@Gu@physx@@VNamedAllocator@shdfnd@4@@shdfnd@physx@@IEAAXPEAX@Z 0000000180011f80 f i BVHStructureBuilder.obj
 0001:00010fb0       ?destroy@?$Array@USlab@NodeAllocator@Gu@physx@@VNamedAllocator@shdfnd@4@@shdfnd@physx@@KAXPEAUSlab@NodeAllocator@Gu@3@0@Z 0000000180011fb0 f i BVHStructureBuilder.obj
 0001:00010fe0       ?empty@?$Array@USlab@NodeAllocator@Gu@physx@@VNamedAllocator@shdfnd@4@@shdfnd@physx@@QEBA_NXZ 0000000180011fe0 f i BVHStructureBuilder.obj
 0001:00011010       ?getAABB@AABBTreeBuildNode@Gu@physx@@QEBAAEBVPxBounds3@3@XZ 0000000180012010 f i BVHStructureBuilder.obj
 0001:00011020       ?getCount@BuildStats@Gu@physx@@QEBAIXZ 0000000180012020 f i BVHStructureBuilder.obj
 0001:00011030       ?getNbPrimitives@AABBTreeBuildNode@Gu@physx@@QEBAIXZ 0000000180012030 f i BVHStructureBuilder.obj
 0001:00011040       ?getNbRuntimePrimitives@AABBTreeBuildNode@Gu@physx@@QEBAIXZ 0000000180012040 f i BVHStructureBuilder.obj
 0001:00011050       ?getNeg@AABBTreeBuildNode@Gu@physx@@QEBAPEBV123@XZ 0000000180012050 f i BVHStructureBuilder.obj
 0001:00011090       ?getPos@AABBTreeBuildNode@Gu@physx@@QEBAPEBV123@XZ 0000000180012090 f i BVHStructureBuilder.obj
 0001:000110a0       ?getPrimitives@AABBTreeBuildNode@Gu@physx@@QEAAPEAIPEAI@Z 00000001800120a0 f i BVHStructureBuilder.obj
 0001:000110c0       ?getPrimitives@AABBTreeBuildNode@Gu@physx@@QEBAPEBIPEBI@Z 00000001800120c0 f i BVHStructureBuilder.obj
 0001:000110e0       ?grow@?$Array@USlab@NodeAllocator@Gu@physx@@VNamedAllocator@shdfnd@4@@shdfnd@physx@@IEAAXI@Z 00000001800120e0 f i BVHStructureBuilder.obj
 0001:00011160       ?increaseCount@BuildStats@Gu@physx@@QEAAXI@Z 0000000180012160 f i BVHStructureBuilder.obj
 0001:00011180       ?inflateBounds@@YAXAEAVPxBounds3@physx@@AEBV12@@Z 0000000180012180 f i BVHStructureBuilder.obj
 0001:00011370       ?isAligned16@aos@shdfnd@physx@@YA_NPEAX@Z 0000000180012370 f i BVHStructureBuilder.obj
 0001:000113a0       ?isInUserMemory@?$Array@USlab@NodeAllocator@Gu@physx@@VNamedAllocator@shdfnd@4@@shdfnd@physx@@QEBAIXZ 00000001800123a0 f i BVHStructureBuilder.obj
 0001:000113c0       ?isLeaf@AABBTreeBuildNode@Gu@physx@@QEBA_NXZ 00000001800123c0 f i BVHStructureBuilder.obj
 0001:00011400       ?recreate@?$Array@USlab@NodeAllocator@Gu@physx@@VNamedAllocator@shdfnd@4@@shdfnd@physx@@IEAAXI@Z 0000000180012400 f i BVHStructureBuilder.obj
 0001:00011520       ?reserve@?$Array@USlab@NodeAllocator@Gu@physx@@VNamedAllocator@shdfnd@4@@shdfnd@physx@@QEAAXI@Z 0000000180012520 f i BVHStructureBuilder.obj
 0001:00011550       ?reset@AABBTreeBuildParams@Gu@physx@@QEAAXXZ 0000000180012550 f i BVHStructureBuilder.obj
 0001:000115b0       ?reset@BuildStats@Gu@physx@@QEAAXXZ 00000001800125b0 f i BVHStructureBuilder.obj
 0001:000115d0       ?setCount@BuildStats@Gu@physx@@QEAAXI@Z 00000001800125d0 f i BVHStructureBuilder.obj
 0001:000115f0       ?setNbRunTimePrimitives@AABBTreeBuildNode@Gu@physx@@QEAAXI@Z 00000001800125f0 f i BVHStructureBuilder.obj
 0001:00011610       ?size@?$Array@USlab@NodeAllocator@Gu@physx@@VNamedAllocator@shdfnd@4@@shdfnd@physx@@QEBAIXZ 0000000180012610 f i BVHStructureBuilder.obj
 0001:00011620       ?saveHeightField@physx@@YA_NAEBVHeightField@Gu@1@AEAVPxOutputStream@1@_N@Z 0000000180012620 f   HeightFieldCooking.obj
 0001:000119d0       ??APxVec3@physx@@QEBAAEBMI@Z 00000001800129d0 f i HeightFieldCooking.obj
 0001:00011a20       ??B?$PxFlags@W4Enum@PxHeightFieldFlag@physx@@G@physx@@QEBAGXZ 0000000180012a20 f i HeightFieldCooking.obj
 0001:00011a30       ?getData@HeightField@Gu@physx@@QEBAAEBUHeightFieldData@23@XZ 0000000180012a30 f i HeightFieldCooking.obj
 0001:00011a40       ?getMax@CenterExtents@Gu@physx@@QEBAMI@Z 0000000180012a40 f i HeightFieldCooking.obj
 0001:00011a90       ?getMin@CenterExtents@Gu@physx@@QEBAMI@Z 0000000180012a90 f i HeightFieldCooking.obj
 0001:00011ae0       ?buildFromTriangles@RTreeCooker@physx@@SAXAEAURTree@Gu@2@PEBVPxVec3@2@IPEBGPEBIIAEAV?$Array@IVNamedAllocator@shdfnd@physx@@@shdfnd@2@PEAURemapCallback@12@MW4Enum@PxMeshCookingHint@2@@Z 0000000180012ae0 f   RTreeCooking.obj
 0001:00013320       ??$PX_UNUSED@I@@YAXAEBI@Z  0000000180014320 f i RTreeCooking.obj
 0001:00013330       ??$PX_UNUSED@M@@YAXAEBM@Z  0000000180014330 f i RTreeCooking.obj
 0001:00013340       ??$PX_UNUSED@PEAURTreeNodeNQ@physx@@@@YAXAEBQEAURTreeNodeNQ@physx@@@Z 0000000180014340 f i RTreeCooking.obj
 0001:00013350       ??$PX_UNUSED@URTreeNodeNQ@physx@@@@YAXAEBURTreeNodeNQ@physx@@@Z 0000000180014350 f i RTreeCooking.obj
 0001:00013360       ??$PxMax@H@physx@@YAHHH@Z  0000000180014360 f i RTreeCooking.obj
 0001:00013390       ??$PxMin@I@physx@@YAIII@Z  0000000180014390 f i RTreeCooking.obj
 0001:000133c0       ??$median3@I$$CBU?$Less@I@shdfnd@physx@@@internal@shdfnd@physx@@YAXPEAIHHAEBU?$Less@I@12@@Z 00000001800143c0 f i RTreeCooking.obj
 0001:00013520       ??$median3@I$$CBUSortBoundsPredicate@physx@@@internal@shdfnd@physx@@YAXPEAIHHAEBUSortBoundsPredicate@2@@Z 0000000180014520 f i RTreeCooking.obj
 0001:00013680       ??$partition@I$$CBU?$Less@I@shdfnd@physx@@@internal@shdfnd@physx@@YAHPEAIHHAEBU?$Less@I@12@@Z 0000000180014680 f i RTreeCooking.obj
 0001:00013870       ??$partition@I$$CBUSortBoundsPredicate@physx@@@internal@shdfnd@physx@@YAHPEAIHHAEBUSortBoundsPredicate@2@@Z 0000000180014870 f i RTreeCooking.obj
 0001:00013a60       ??$partition@UBoundsLTE@physx@@@quickSelect@physx@@YAIPEIAIIIIAEBUBoundsLTE@1@@Z 0000000180014a60 f i RTreeCooking.obj
 0001:00013db0       ??$quickSelectFirstK@UBoundsLTE@physx@@@quickSelect@physx@@YAXPEIAIIIIAEBUBoundsLTE@1@@Z 0000000180014db0 f i RTreeCooking.obj
 0001:00013f10       ??$smallSort@I$$CBU?$Less@I@shdfnd@physx@@@internal@shdfnd@physx@@YAXPEAIHHAEBU?$Less@I@12@@Z 0000000180014f10 f i RTreeCooking.obj
 0001:00013ff0       ??$smallSort@I$$CBUSortBoundsPredicate@physx@@@internal@shdfnd@physx@@YAXPEAIHHAEBUSortBoundsPredicate@2@@Z 0000000180014ff0 f i RTreeCooking.obj
 0001:000140d0       ??$sort@I@shdfnd@physx@@YAXPEAII@Z 00000001800150d0 f i RTreeCooking.obj
 0001:00014120       ??$sort@IU?$Less@I@shdfnd@physx@@VNamedAllocator@23@@shdfnd@physx@@YAXPEAIIAEBU?$Less@I@01@AEBVNamedAllocator@01@I@Z 0000000180015120 f i RTreeCooking.obj
 0001:00014410       ??$sort@IUSortBoundsPredicate@physx@@@shdfnd@physx@@YAXPEAIIAEBUSortBoundsPredicate@1@@Z 0000000180015410 f i RTreeCooking.obj
 0001:00014460       ??$sort@IUSortBoundsPredicate@physx@@VNamedAllocator@shdfnd@2@@shdfnd@physx@@YAXPEAIIAEBUSortBoundsPredicate@1@AEBVNamedAllocator@01@I@Z 0000000180015460 f i RTreeCooking.obj
 0001:00014750       ??0?$AlignedAllocator@$0IA@VNonTrackingAllocator@shdfnd@physx@@@shdfnd@physx@@QEAA@AEBVNonTrackingAllocator@12@@Z 0000000180015750 f i RTreeCooking.obj
 0001:00014760       ??0?$Array@IVNamedAllocator@shdfnd@physx@@@shdfnd@physx@@QEAA@IAEBIAEBVNamedAllocator@12@@Z 0000000180015760 f i RTreeCooking.obj
 0001:000147d0       ??0?$Array@UInterval@physx@@V?$InlineAllocator@$0CAAA@VNamedAllocator@shdfnd@physx@@@shdfnd@2@@shdfnd@physx@@QEAA@AEBV?$InlineAllocator@$0CAAA@VNamedAllocator@shdfnd@physx@@@12@@Z 00000001800157d0 f i RTreeCooking.obj
 0001:00014830       ??0?$Array@UPxBounds3V@physx@@VNamedAllocator@shdfnd@2@@shdfnd@physx@@QEAA@AEBVNamedAllocator@12@@Z 0000000180015830 f i RTreeCooking.obj
 0001:00014880       ??0?$Array@URTreeNodeNQ@physx@@VNamedAllocator@shdfnd@2@@shdfnd@physx@@QEAA@AEBVNamedAllocator@12@@Z 0000000180015880 f i RTreeCooking.obj
 0001:000148d0       ??0?$Array@URTreeNodeQ@Gu@physx@@VNamedAllocator@shdfnd@3@@shdfnd@physx@@QEAA@AEBVNamedAllocator@12@@Z 00000001800158d0 f i RTreeCooking.obj
 0001:00014920       ??0?$InlineAllocator@$0CAAA@VNamedAllocator@shdfnd@physx@@@shdfnd@physx@@QEAA@AEBV012@@Z 0000000180015920 f i RTreeCooking.obj
 0001:00014960       ??0?$InlineAllocator@$0CAAA@VNamedAllocator@shdfnd@physx@@@shdfnd@physx@@QEAA@AEBVNamedAllocator@12@@Z 0000000180015960 f i RTreeCooking.obj
 0001:000149a0       ??0?$InlineArray@UInterval@physx@@$0EAA@VNamedAllocator@shdfnd@2@@shdfnd@physx@@QEAA@AEBVNamedAllocator@12@@Z 00000001800159a0 f i RTreeCooking.obj
 0001:00014a30       ??0?$ScopedPointer@HVTempAllocator@shdfnd@physx@@@shdfnd@physx@@QEAA@XZ 0000000180015a30 f i RTreeCooking.obj
 0001:00014a50       ??0?$Stack@VNamedAllocator@shdfnd@physx@@@internal@shdfnd@physx@@QEAA@PEAHIAEBVNamedAllocator@23@@Z 0000000180015a50 f i RTreeCooking.obj
 0001:00014ac0       ??0BoundsLTE@physx@@QEAA@IPEBVPxVec3@1@@Z 0000000180015ac0 f i RTreeCooking.obj
 0001:00014af0       ??0Interval@physx@@QEAA@II@Z 0000000180015af0 f i RTreeCooking.obj
 0001:00014b20       ??0PxBounds3@physx@@QEAA@AEBVPxVec3@1@0@Z 0000000180015b20 f i RTreeCooking.obj
 0001:00014b70       ??0PxBounds3V@physx@@QEAA@AEAT__m128@@0@Z 0000000180015b70 f i RTreeCooking.obj
 0001:00014bb0       ??0PxBounds3V@physx@@QEAA@UU@01@@Z 0000000180015bb0 f i RTreeCooking.obj
 0001:00014bc0       ??0PxVec4@physx@@QEAA@AEBVPxVec3@1@M@Z 0000000180015bc0 f i RTreeCooking.obj
 0001:00014c20       ??0PxVec4@physx@@QEAA@M@Z  0000000180015c20 f i RTreeCooking.obj
 0001:00014c70       ??0RTreeNodeNQ@physx@@QEAA@AEBU01@@Z 0000000180015c70 f i RTreeCooking.obj
 0001:00014cc0       ??0RTreeNodeNQ@physx@@QEAA@XZ 0000000180015cc0 f i RTreeCooking.obj
 0001:00014d00       ??0SortBoundsPredicate@physx@@QEAA@IPEBUPxBounds3V@1@@Z 0000000180015d00 f i RTreeCooking.obj
 0001:00014d30       ??0SubSortQuick@physx@@QEAA@PEAIPEBUPxBounds3V@1@IM@Z 0000000180015d30 f i RTreeCooking.obj
 0001:00014ea0       ??0SubSortSAH@physx@@QEAA@PEAIPEBUPxBounds3V@1@IPEBI22222M@Z 0000000180015ea0 f i RTreeCooking.obj
 0001:000150c0       ??0TempAllocator@shdfnd@physx@@QEAA@PEBD@Z 00000001800160c0 f i RTreeCooking.obj
 0001:000150d0       ??1?$Array@IVNamedAllocator@shdfnd@physx@@@shdfnd@physx@@QEAA@XZ 00000001800160d0 f i RTreeCooking.obj
 0001:00015140       ??1?$Array@UInterval@physx@@V?$InlineAllocator@$0CAAA@VNamedAllocator@shdfnd@physx@@@shdfnd@2@@shdfnd@physx@@QEAA@XZ 0000000180016140 f i RTreeCooking.obj
 0001:000151c0       ??1?$Array@UPxBounds3V@physx@@VNamedAllocator@shdfnd@2@@shdfnd@physx@@QEAA@XZ 00000001800161c0 f i RTreeCooking.obj
 0001:00015230       ??1?$Array@URTreeNodeNQ@physx@@VNamedAllocator@shdfnd@2@@shdfnd@physx@@QEAA@XZ 0000000180016230 f i RTreeCooking.obj
 0001:000152a0       ??1?$Array@URTreeNodeQ@Gu@physx@@VNamedAllocator@shdfnd@3@@shdfnd@physx@@QEAA@XZ 00000001800162a0 f i RTreeCooking.obj
 0001:00015310       ??1?$InlineAllocator@$0CAAA@VNamedAllocator@shdfnd@physx@@@shdfnd@physx@@QEAA@XZ 0000000180016310 f i RTreeCooking.obj
 0001:00015330       ??1?$InlineArray@UInterval@physx@@$0EAA@VNamedAllocator@shdfnd@2@@shdfnd@physx@@QEAA@XZ 0000000180016330 f i RTreeCooking.obj
 0001:00015350       ??1?$ScopedPointer@HVTempAllocator@shdfnd@physx@@@shdfnd@physx@@QEAA@XZ 0000000180016350 f i RTreeCooking.obj
 0001:00015380       ??1?$Stack@VNamedAllocator@shdfnd@physx@@@internal@shdfnd@physx@@QEAA@XZ 0000000180016380 f i RTreeCooking.obj
 0001:000153c0       ??1SubSortQuick@physx@@QEAA@XZ 00000001800163c0 f i RTreeCooking.obj
 0001:000153e0       ??1SubSortSAH@physx@@QEAA@XZ 00000001800163e0 f i RTreeCooking.obj
 0001:000154a0       ??4PxVec4@physx@@QEAAAEAV01@AEBV01@@Z 00000001800164a0 f i RTreeCooking.obj
 0001:00015500       ??A?$Array@IVNamedAllocator@shdfnd@physx@@@shdfnd@physx@@QEAAAEAII@Z 0000000180016500 f i RTreeCooking.obj
 0001:00015580       ??A?$Array@UInterval@physx@@V?$InlineAllocator@$0CAAA@VNamedAllocator@shdfnd@physx@@@shdfnd@2@@shdfnd@physx@@QEAAAEAUInterval@2@I@Z 0000000180016580 f i RTreeCooking.obj
 0001:00015600       ??A?$Array@URTreeNodeNQ@physx@@VNamedAllocator@shdfnd@2@@shdfnd@physx@@QEAAAEAURTreeNodeNQ@2@I@Z 0000000180016600 f i RTreeCooking.obj
 0001:00015680       ??A?$Array@URTreeNodeQ@Gu@physx@@VNamedAllocator@shdfnd@3@@shdfnd@physx@@QEAAAEAURTreeNodeQ@Gu@2@I@Z 0000000180016680 f i RTreeCooking.obj
 0001:00015700       ??B?$ScopedPointer@HVTempAllocator@shdfnd@physx@@@shdfnd@physx@@QEBAPEAHXZ 0000000180016700 f i RTreeCooking.obj
 0001:00015710       ??GPxVec4@physx@@QEBA?AV01@AEBV01@@Z 0000000180016710 f i RTreeCooking.obj
 0001:000157a0       ??KPxVec4@physx@@QEBA?AV01@M@Z 00000001800167a0 f i RTreeCooking.obj
 0001:00015840       ??R?$Less@I@shdfnd@physx@@QEBA_NAEBI0@Z 0000000180016840 f i RTreeCooking.obj
 0001:00015880       ??RBoundsLTE@physx@@QEBA_NAEBI0@Z 0000000180016880 f i RTreeCooking.obj
 0001:00015920       ??RSortBoundsPredicate@physx@@QEBA_NAEBI0@Z 0000000180016920 f i RTreeCooking.obj
 0001:00015a50       ?FMax@aos@shdfnd@physx@@YA?AT__m128@@XZ 0000000180016a50 f i RTreeCooking.obj
 0001:00015a70       ?FNegMax@aos@shdfnd@physx@@YA?AT__m128@@XZ 0000000180016a70 f i RTreeCooking.obj
 0001:00015a90       ?FStore@aos@shdfnd@physx@@YAXT__m128@@PEIAM@Z 0000000180016a90 f i RTreeCooking.obj
 0001:00015b20       ?PxAbs@physx@@YAHH@Z       0000000180016b20 f i RTreeCooking.obj
 0001:00015b40       ?V3Add@aos@shdfnd@physx@@YA?AT__m128@@T4@0@Z 0000000180016b40 f i RTreeCooking.obj
 0001:00015c50       ?V3Dot@aos@shdfnd@physx@@YA?AT__m128@@T4@0@Z 0000000180016c50 f i RTreeCooking.obj
 0001:00015df0       ?V3LoadU@aos@shdfnd@physx@@YA?AT__m128@@AEBVPxVec3@3@@Z 0000000180016df0 f i RTreeCooking.obj
 0001:00015e40       ?V3Max@aos@shdfnd@physx@@YA?AT__m128@@T4@0@Z 0000000180016e40 f i RTreeCooking.obj
 0001:00015f50       ?V3Min@aos@shdfnd@physx@@YA?AT__m128@@T4@0@Z 0000000180016f50 f i RTreeCooking.obj
 0001:00016060       ?V3PermZXY@aos@shdfnd@physx@@YA?AT__m128@@T4@@Z 0000000180017060 f i RTreeCooking.obj
 0001:000160f0       ?V3ReadXYZ@aos@shdfnd@physx@@YAAEBVPxVec3@3@AEBT__m128@@@Z 00000001800170f0 f i RTreeCooking.obj
 0001:00016100       ?V3Splat@aos@shdfnd@physx@@YA?AT__m128@@T4@@Z 0000000180017100 f i RTreeCooking.obj
 0001:000161e0       ?V3StoreA@aos@shdfnd@physx@@YAXT__m128@@AEAVPxVec3@3@@Z 00000001800171e0 f i RTreeCooking.obj
 0001:000162a0       ?V3StoreU@aos@shdfnd@physx@@YAXT__m128@@AEAVPxVec3@3@@Z 00000001800172a0 f i RTreeCooking.obj
 0001:00016310       ?V3Sub@aos@shdfnd@physx@@YA?AT__m128@@T4@0@Z 0000000180017310 f i RTreeCooking.obj
 0001:00016420       ?V3Zero@aos@shdfnd@physx@@YA?AT__m128@@XZ 0000000180017420 f i RTreeCooking.obj
 0001:00016440       ?V4ClearW@aos@shdfnd@physx@@YA?AT__m128@@T4@@Z 0000000180017440 f i RTreeCooking.obj
 0001:00016470       ?V4ReadW@aos@shdfnd@physx@@YAMAEBT__m128@@@Z 0000000180017470 f i RTreeCooking.obj
 0001:00016480       ?V4ReadX@aos@shdfnd@physx@@YAMAEBT__m128@@@Z 0000000180017480 f i RTreeCooking.obj
 0001:00016490       ?V4ReadY@aos@shdfnd@physx@@YAMAEBT__m128@@@Z 0000000180017490 f i RTreeCooking.obj
 0001:000164a0       ?V4ReadZ@aos@shdfnd@physx@@YAMAEBT__m128@@@Z 00000001800174a0 f i RTreeCooking.obj
 0001:000164b0       ?Vec3V_From_FloatV@aos@shdfnd@physx@@YA?AT__m128@@T4@@Z 00000001800174b0 f i RTreeCooking.obj
 0001:00016500       ?Vec3V_From_Vec4V@aos@shdfnd@physx@@YA?AT__m128@@T4@@Z 0000000180017500 f i RTreeCooking.obj
 0001:00016530       ?Vec4V_From_FloatV@aos@shdfnd@physx@@YA?AT__m128@@T4@@Z 0000000180017530 f i RTreeCooking.obj
 0001:00016540       ?allocate@?$AlignedAllocator@$0IA@VNonTrackingAllocator@shdfnd@physx@@@shdfnd@physx@@QEAAPEAX_KPEBDH@Z 0000000180017540 f i RTreeCooking.obj
 0001:000165e0       ?allocate@?$Array@IVNamedAllocator@shdfnd@physx@@@shdfnd@physx@@IEAAPEAII@Z 00000001800175e0 f i RTreeCooking.obj
 0001:00016670       ?allocate@?$Array@UInterval@physx@@V?$InlineAllocator@$0CAAA@VNamedAllocator@shdfnd@physx@@@shdfnd@2@@shdfnd@physx@@IEAAPEAUInterval@3@I@Z 0000000180017670 f i RTreeCooking.obj
 0001:00016700       ?allocate@?$Array@UPxBounds3V@physx@@VNamedAllocator@shdfnd@2@@shdfnd@physx@@IEAAPEAUPxBounds3V@3@I@Z 0000000180017700 f i RTreeCooking.obj
 0001:00016790       ?allocate@?$Array@URTreeNodeNQ@physx@@VNamedAllocator@shdfnd@2@@shdfnd@physx@@IEAAPEAURTreeNodeNQ@3@I@Z 0000000180017790 f i RTreeCooking.obj
 0001:00016820       ?allocate@?$Array@URTreeNodeQ@Gu@physx@@VNamedAllocator@shdfnd@3@@shdfnd@physx@@IEAAPEAURTreeNodeQ@Gu@3@I@Z 0000000180017820 f i RTreeCooking.obj
 0001:000168b0       ?allocate@?$InlineAllocator@$0CAAA@VNamedAllocator@shdfnd@physx@@@shdfnd@physx@@QEAAPEAXIPEBDH@Z 00000001800178b0 f i RTreeCooking.obj
 0001:00016920       ?allocate@NonTrackingAllocator@shdfnd@physx@@QEAAPEAX_KPEBDH@Z 0000000180017920 f i RTreeCooking.obj
 0001:00016990       ?begin@?$Array@IVNamedAllocator@shdfnd@physx@@@shdfnd@physx@@QEAAPEAIXZ 0000000180017990 f i RTreeCooking.obj
 0001:000169a0       ?begin@?$Array@UPxBounds3V@physx@@VNamedAllocator@shdfnd@2@@shdfnd@physx@@QEAAPEAUPxBounds3V@3@XZ 00000001800179a0 f i RTreeCooking.obj
 0001:000169b0       ?begin@?$Array@VPxVec3@physx@@VNamedAllocator@shdfnd@2@@shdfnd@physx@@QEAAPEAVPxVec3@3@XZ 00000001800179b0 f i RTreeCooking.obj
 0001:000169c0       ?capacity@?$Array@IVNamedAllocator@shdfnd@physx@@@shdfnd@physx@@QEBAIXZ 00000001800179c0 f i RTreeCooking.obj
 0001:000169e0       ?capacity@?$Array@UInterval@physx@@V?$InlineAllocator@$0CAAA@VNamedAllocator@shdfnd@physx@@@shdfnd@2@@shdfnd@physx@@QEBAIXZ 00000001800179e0 f i RTreeCooking.obj
 0001:00016a00       ?capacity@?$Array@UPxBounds3V@physx@@VNamedAllocator@shdfnd@2@@shdfnd@physx@@QEBAIXZ 0000000180017a00 f i RTreeCooking.obj
 0001:00016a20       ?capacity@?$Array@URTreeNodeNQ@physx@@VNamedAllocator@shdfnd@2@@shdfnd@physx@@QEBAIXZ 0000000180017a20 f i RTreeCooking.obj
 0001:00016a40       ?capacity@?$Array@URTreeNodeQ@Gu@physx@@VNamedAllocator@shdfnd@3@@shdfnd@physx@@QEBAIXZ 0000000180017a40 f i RTreeCooking.obj
 0001:00016a60       ?capacityIncrement@?$Array@IVNamedAllocator@shdfnd@physx@@@shdfnd@physx@@IEBAIXZ 0000000180017a60 f i RTreeCooking.obj
 0001:00016aa0       ?capacityIncrement@?$Array@UInterval@physx@@V?$InlineAllocator@$0CAAA@VNamedAllocator@shdfnd@physx@@@shdfnd@2@@shdfnd@physx@@IEBAIXZ 0000000180017aa0 f i RTreeCooking.obj
 0001:00016ae0       ?capacityIncrement@?$Array@UPxBounds3V@physx@@VNamedAllocator@shdfnd@2@@shdfnd@physx@@IEBAIXZ 0000000180017ae0 f i RTreeCooking.obj
 0001:00016b20       ?capacityIncrement@?$Array@URTreeNodeNQ@physx@@VNamedAllocator@shdfnd@2@@shdfnd@physx@@IEBAIXZ 0000000180017b20 f i RTreeCooking.obj
 0001:00016b60       ?capacityIncrement@?$Array@URTreeNodeQ@Gu@physx@@VNamedAllocator@shdfnd@3@@shdfnd@physx@@IEBAIXZ 0000000180017b60 f i RTreeCooking.obj
 0001:00016ba0       ?computeSA@SubSortSAH@physx@@QEAAMPEBIAEBUInterval@2@@Z 0000000180017ba0 f i RTreeCooking.obj
 0001:00016db0       ?copy@?$Array@IVNamedAllocator@shdfnd@physx@@@shdfnd@physx@@KAXPEAI0PEBI@Z 0000000180017db0 f i RTreeCooking.obj
 0001:00016e30       ?copy@?$Array@UInterval@physx@@V?$InlineAllocator@$0CAAA@VNamedAllocator@shdfnd@physx@@@shdfnd@2@@shdfnd@physx@@KAXPEAUInterval@3@0PEBU43@@Z 0000000180017e30 f i RTreeCooking.obj
 0001:00016eb0       ?copy@?$Array@UPxBounds3V@physx@@VNamedAllocator@shdfnd@2@@shdfnd@physx@@KAXPEAUPxBounds3V@3@0PEBU43@@Z 0000000180017eb0 f i RTreeCooking.obj
 0001:00016f30       ?copy@?$Array@URTreeNodeNQ@physx@@VNamedAllocator@shdfnd@2@@shdfnd@physx@@KAXPEAURTreeNodeNQ@3@0PEBU43@@Z 0000000180017f30 f i RTreeCooking.obj
 0001:00016fb0       ?copy@?$Array@URTreeNodeQ@Gu@physx@@VNamedAllocator@shdfnd@3@@shdfnd@physx@@KAXPEAURTreeNodeQ@Gu@3@0PEBU453@@Z 0000000180017fb0 f i RTreeCooking.obj
 0001:00017030       ?create@?$Array@IVNamedAllocator@shdfnd@physx@@@shdfnd@physx@@KAXPEAI0AEBI@Z 0000000180018030 f i RTreeCooking.obj
 0001:00017090       ?deallocate@?$Array@IVNamedAllocator@shdfnd@physx@@@shdfnd@physx@@IEAAXPEAX@Z 0000000180018090 f i RTreeCooking.obj
 0001:000170c0       ?deallocate@?$Array@UInterval@physx@@V?$InlineAllocator@$0CAAA@VNamedAllocator@shdfnd@physx@@@shdfnd@2@@shdfnd@physx@@IEAAXPEAX@Z 00000001800180c0 f i RTreeCooking.obj
 0001:000170f0       ?deallocate@?$Array@UPxBounds3V@physx@@VNamedAllocator@shdfnd@2@@shdfnd@physx@@IEAAXPEAX@Z 00000001800180f0 f i RTreeCooking.obj
 0001:00017120       ?deallocate@?$Array@URTreeNodeNQ@physx@@VNamedAllocator@shdfnd@2@@shdfnd@physx@@IEAAXPEAX@Z 0000000180018120 f i RTreeCooking.obj
 0001:00017150       ?deallocate@?$Array@URTreeNodeQ@Gu@physx@@VNamedAllocator@shdfnd@3@@shdfnd@physx@@IEAAXPEAX@Z 0000000180018150 f i RTreeCooking.obj
 0001:00017180       ?deallocate@?$InlineAllocator@$0CAAA@VNamedAllocator@shdfnd@physx@@@shdfnd@physx@@QEAAXPEAX@Z 0000000180018180 f i RTreeCooking.obj
 0001:000171c0       ?destroy@?$Array@IVNamedAllocator@shdfnd@physx@@@shdfnd@physx@@KAXPEAI0@Z 00000001800181c0 f i RTreeCooking.obj
 0001:000171f0       ?destroy@?$Array@UInterval@physx@@V?$InlineAllocator@$0CAAA@VNamedAllocator@shdfnd@physx@@@shdfnd@2@@shdfnd@physx@@KAXPEAUInterval@3@0@Z 00000001800181f0 f i RTreeCooking.obj
 0001:00017220       ?destroy@?$Array@UPxBounds3V@physx@@VNamedAllocator@shdfnd@2@@shdfnd@physx@@KAXPEAUPxBounds3V@3@0@Z 0000000180018220 f i RTreeCooking.obj
 0001:00017250       ?destroy@?$Array@URTreeNodeNQ@physx@@VNamedAllocator@shdfnd@2@@shdfnd@physx@@KAXPEAURTreeNodeNQ@3@0@Z 0000000180018250 f i RTreeCooking.obj
 0001:00017280       ?destroy@?$Array@URTreeNodeQ@Gu@physx@@VNamedAllocator@shdfnd@3@@shdfnd@physx@@KAXPEAURTreeNodeQ@Gu@3@0@Z 0000000180018280 f i RTreeCooking.obj
 0001:000172b0       ?empty@?$Stack@VNamedAllocator@shdfnd@physx@@@internal@shdfnd@physx@@QEAA_NXZ 00000001800182b0 f i RTreeCooking.obj
 0001:000172e0       ?empty@PxBounds3@physx@@SA?AV12@XZ 00000001800182e0 f i RTreeCooking.obj
 0001:00017340       ?getExtents@PxBounds3V@physx@@QEBA?AT__m128@@XZ 0000000180018340 f i RTreeCooking.obj
 0001:000173a0       ?getMaxVec3@PxBounds3V@physx@@QEBA?BVPxVec3@2@XZ 00000001800183a0 f i RTreeCooking.obj
 0001:000173f0       ?getMinVec3@PxBounds3V@physx@@QEBA?BVPxVec3@2@XZ 00000001800183f0 f i RTreeCooking.obj
 0001:00017440       ?grow@?$Array@IVNamedAllocator@shdfnd@physx@@@shdfnd@physx@@IEAAXI@Z 0000000180018440 f i RTreeCooking.obj
 0001:000174c0       ?grow@?$Array@UPxBounds3V@physx@@VNamedAllocator@shdfnd@2@@shdfnd@physx@@IEAAXI@Z 00000001800184c0 f i RTreeCooking.obj
 0001:00017540       ?grow@?$Array@URTreeNodeNQ@physx@@VNamedAllocator@shdfnd@2@@shdfnd@physx@@IEAAXI@Z 0000000180018540 f i RTreeCooking.obj
 0001:000175c0       ?grow@?$Array@URTreeNodeQ@Gu@physx@@VNamedAllocator@shdfnd@3@@shdfnd@physx@@IEAAXI@Z 00000001800185c0 f i RTreeCooking.obj
 0001:00017640       ?grow@?$Array@VPxVec3@physx@@VNamedAllocator@shdfnd@2@@shdfnd@physx@@IEAAXI@Z 0000000180018640 f i RTreeCooking.obj
 0001:000176c0       ?grow@?$Stack@VNamedAllocator@shdfnd@physx@@@internal@shdfnd@physx@@QEAAXXZ 00000001800186c0 f i RTreeCooking.obj
 0001:00017770       ?growAndPushBack@?$Array@IVNamedAllocator@shdfnd@physx@@@shdfnd@physx@@IEAAAEAIAEBI@Z 0000000180018770 f i RTreeCooking.obj
 0001:000178f0       ?growAndPushBack@?$Array@UInterval@physx@@V?$InlineAllocator@$0CAAA@VNamedAllocator@shdfnd@physx@@@shdfnd@2@@shdfnd@physx@@IEAAAEAUInterval@3@AEBU43@@Z 00000001800188f0 f i RTreeCooking.obj
 0001:00017aa0       ?growAndPushBack@?$Array@UPxBounds3V@physx@@VNamedAllocator@shdfnd@2@@shdfnd@physx@@IEAAAEAUPxBounds3V@3@AEBU43@@Z 0000000180018aa0 f i RTreeCooking.obj
 0001:00017c70       ?growAndPushBack@?$Array@URTreeNodeNQ@physx@@VNamedAllocator@shdfnd@2@@shdfnd@physx@@IEAAAEAURTreeNodeNQ@3@AEBU43@@Z 0000000180018c70 f i RTreeCooking.obj
 0001:00017e00       ?growAndPushBack@?$Array@URTreeNodeQ@Gu@physx@@VNamedAllocator@shdfnd@3@@shdfnd@physx@@IEAAAEAURTreeNodeQ@Gu@3@AEBU453@@Z 0000000180018e00 f i RTreeCooking.obj
 0001:00017fd0       ?include@PxBounds3V@physx@@QEAAXAEBU12@@Z 0000000180018fd0 f i RTreeCooking.obj
 0001:00018080       ?isInUserMemory@?$Array@IVNamedAllocator@shdfnd@physx@@@shdfnd@physx@@QEBAIXZ 0000000180019080 f i RTreeCooking.obj
 0001:000180a0       ?isInUserMemory@?$Array@UInterval@physx@@V?$InlineAllocator@$0CAAA@VNamedAllocator@shdfnd@physx@@@shdfnd@2@@shdfnd@physx@@QEBAIXZ 00000001800190a0 f i RTreeCooking.obj
 0001:000180c0       ?isInUserMemory@?$Array@UPxBounds3V@physx@@VNamedAllocator@shdfnd@2@@shdfnd@physx@@QEBAIXZ 00000001800190c0 f i RTreeCooking.obj
 0001:000180e0       ?isInUserMemory@?$Array@URTreeNodeNQ@physx@@VNamedAllocator@shdfnd@2@@shdfnd@physx@@QEBAIXZ 00000001800190e0 f i RTreeCooking.obj
 0001:00018100       ?isInUserMemory@?$Array@URTreeNodeQ@Gu@physx@@VNamedAllocator@shdfnd@3@@shdfnd@physx@@QEBAIXZ 0000000180019100 f i RTreeCooking.obj
 0001:00018120       ?isInside@PxBounds3@physx@@QEBA_NAEBV12@@Z 0000000180019120 f i RTreeCooking.obj
 0001:00018210       ?isLeaf@RTreeNodeQ@Gu@physx@@QEBAIXZ 0000000180019210 f i RTreeCooking.obj
 0001:00018230       ?isValidFloatV@aos@shdfnd@physx@@YA_NT__m128@@@Z 0000000180019230 f i RTreeCooking.obj
 0001:00018340       ?isValidVec3V@aos@shdfnd@physx@@YA_NT__m128@@@Z 0000000180019340 f i RTreeCooking.obj
 0001:000183a0       ?pop@?$Stack@VNamedAllocator@shdfnd@physx@@@internal@shdfnd@physx@@QEAAXAEAH0@Z 00000001800193a0 f i RTreeCooking.obj
 0001:00018480       ?popBack@?$Array@IVNamedAllocator@shdfnd@physx@@@shdfnd@physx@@QEAAIXZ 0000000180019480 f i RTreeCooking.obj
 0001:00018520       ?push@?$Stack@VNamedAllocator@shdfnd@physx@@@internal@shdfnd@physx@@QEAAXHH@Z 0000000180019520 f i RTreeCooking.obj
 0001:000185b0       ?pushBack@?$Array@IVNamedAllocator@shdfnd@physx@@@shdfnd@physx@@QEAAAEAIAEBI@Z 00000001800195b0 f i RTreeCooking.obj
 0001:00018650       ?pushBack@?$Array@UInterval@physx@@V?$InlineAllocator@$0CAAA@VNamedAllocator@shdfnd@physx@@@shdfnd@2@@shdfnd@physx@@QEAAAEAUInterval@3@AEBU43@@Z 0000000180019650 f i RTreeCooking.obj
 0001:00018710       ?pushBack@?$Array@UPxBounds3V@physx@@VNamedAllocator@shdfnd@2@@shdfnd@physx@@QEAAAEAUPxBounds3V@3@AEBU43@@Z 0000000180019710 f i RTreeCooking.obj
 0001:000187c0       ?pushBack@?$Array@URTreeNodeNQ@physx@@VNamedAllocator@shdfnd@2@@shdfnd@physx@@QEAAAEAURTreeNodeNQ@3@AEBU43@@Z 00000001800197c0 f i RTreeCooking.obj
 0001:00018860       ?pushBack@?$Array@URTreeNodeQ@Gu@physx@@VNamedAllocator@shdfnd@3@@shdfnd@physx@@QEAAAEAURTreeNodeQ@Gu@3@AEBU453@@Z 0000000180019860 f i RTreeCooking.obj
 0001:00018910       ?recreate@?$Array@IVNamedAllocator@shdfnd@physx@@@shdfnd@physx@@IEAAXI@Z 0000000180019910 f i RTreeCooking.obj
 0001:00018a20       ?recreate@?$Array@UPxBounds3V@physx@@VNamedAllocator@shdfnd@2@@shdfnd@physx@@IEAAXI@Z 0000000180019a20 f i RTreeCooking.obj
 0001:00018b40       ?recreate@?$Array@URTreeNodeNQ@physx@@VNamedAllocator@shdfnd@2@@shdfnd@physx@@IEAAXI@Z 0000000180019b40 f i RTreeCooking.obj
 0001:00018c60       ?recreate@?$Array@URTreeNodeQ@Gu@physx@@VNamedAllocator@shdfnd@3@@shdfnd@physx@@IEAAXI@Z 0000000180019c60 f i RTreeCooking.obj
 0001:00018d80       ?recreate@?$Array@VPxVec3@physx@@VNamedAllocator@shdfnd@2@@shdfnd@physx@@IEAAXI@Z 0000000180019d80 f i RTreeCooking.obj
 0001:00018ea0       ?replaceWithLast@?$Array@UInterval@physx@@V?$InlineAllocator@$0CAAA@VNamedAllocator@shdfnd@physx@@@shdfnd@2@@shdfnd@physx@@QEAAXI@Z 0000000180019ea0 f i RTreeCooking.obj
 0001:00018f60       ?reserve@?$Array@IVNamedAllocator@shdfnd@physx@@@shdfnd@physx@@QEAAXI@Z 0000000180019f60 f i RTreeCooking.obj
 0001:00018f90       ?reserve@?$Array@UPxBounds3V@physx@@VNamedAllocator@shdfnd@2@@shdfnd@physx@@QEAAXI@Z 0000000180019f90 f i RTreeCooking.obj
 0001:00018fc0       ?reserve@?$Array@URTreeNodeNQ@physx@@VNamedAllocator@shdfnd@2@@shdfnd@physx@@QEAAXI@Z 0000000180019fc0 f i RTreeCooking.obj
 0001:00018ff0       ?reserve@?$Array@URTreeNodeQ@Gu@physx@@VNamedAllocator@shdfnd@3@@shdfnd@physx@@QEAAXI@Z 0000000180019ff0 f i RTreeCooking.obj
 0001:00019020       ?reserve@?$Array@VPxVec3@physx@@VNamedAllocator@shdfnd@2@@shdfnd@physx@@QEAAXI@Z 000000018001a020 f i RTreeCooking.obj
 0001:00019050       ?resize@?$Array@IVNamedAllocator@shdfnd@physx@@@shdfnd@physx@@QEAAXIAEBI@Z 000000018001a050 f i RTreeCooking.obj
 0001:000190e0       ?resizeUninitialized@?$Array@URTreeNodeNQ@physx@@VNamedAllocator@shdfnd@2@@shdfnd@physx@@QEAAXI@Z 000000018001a0e0 f i RTreeCooking.obj
 0001:00019110       ?setLeaf@RTreeNodeQ@Gu@physx@@QEAAX_N@Z 000000018001a110 f i RTreeCooking.obj
 0001:00019150       ?size@?$Array@IVNamedAllocator@shdfnd@physx@@@shdfnd@physx@@QEBAIXZ 000000018001a150 f i RTreeCooking.obj
 0001:00019160       ?size@?$Array@UInterval@physx@@V?$InlineAllocator@$0CAAA@VNamedAllocator@shdfnd@physx@@@shdfnd@2@@shdfnd@physx@@QEBAIXZ 000000018001a160 f i RTreeCooking.obj
 0001:00019180       ?size@?$Array@URTreeNodeNQ@physx@@VNamedAllocator@shdfnd@2@@shdfnd@physx@@QEBAIXZ 000000018001a180 f i RTreeCooking.obj
 0001:00019190       ?size@?$Array@URTreeNodeQ@Gu@physx@@VNamedAllocator@shdfnd@3@@shdfnd@physx@@QEBAIXZ 000000018001a190 f i RTreeCooking.obj
 0001:000191a0       ?size@?$Array@VPxVec3@physx@@VNamedAllocator@shdfnd@2@@shdfnd@physx@@QEBAIXZ 000000018001a1a0 f i RTreeCooking.obj
 0001:000191b0       ?sort4@SubSortQuick@physx@@QEAAXPEIAIIAEAV?$Array@URTreeNodeNQ@physx@@VNamedAllocator@shdfnd@2@@shdfnd@2@AEAIAEAUPxBounds3V@2@I@Z 000000018001a1b0 f i RTreeCooking.obj
 0001:00019bd0       ?sort4@SubSortSAH@physx@@QEAAXPEAIIAEAV?$Array@URTreeNodeNQ@physx@@VNamedAllocator@shdfnd@2@@shdfnd@2@AEAIIPEAURTreeNodeNQ@2@@Z 000000018001abd0 f i RTreeCooking.obj
 0001:0001a9e0       ?split@SubSortSAH@physx@@QEAAIPEAII@Z 000000018001b9e0 f i RTreeCooking.obj
 0001:0001b8c0       ?computeLocalBounds@MeshBulider@physx@@IEAAXAEAVMeshDataBase@Gu@2@@Z 000000018001c8c0 f   MeshBuilder.obj
 0001:0001b9c0       ??0TriangleMeshBuilder@physx@@QEAA@AEAVTriangleMeshData@Gu@1@AEBUPxCookingParams@1@@Z 000000018001c9c0 f   TriangleMeshBuilder.obj
 0001:0001ba20       ??1TriangleMeshBuilder@physx@@UEAA@XZ 000000018001ca20 f   TriangleMeshBuilder.obj
 0001:0001ba50       ?cleanMesh@TriangleMeshBuilder@physx@@QEAA_N_NPEAW4Enum@PxTriangleMeshCookingResult@2@@Z 000000018001ca50 f   TriangleMeshBuilder.obj
 0001:0001c2f0       ?remapTopology@TriangleMeshBuilder@physx@@QEAAXPEBI@Z 000000018001d2f0 f   TriangleMeshBuilder.obj
 0001:0001c720       ?createSharedEdgeData@TriangleMeshBuilder@physx@@QEAAX_N0@Z 000000018001d720 f   TriangleMeshBuilder.obj
 0001:0001cfd0       ?recordTriangleIndices@TriangleMeshBuilder@physx@@QEAAXXZ 000000018001dfd0 f   TriangleMeshBuilder.obj
 0001:0001d1d0       ?createGRBMidPhaseAndData@TriangleMeshBuilder@physx@@QEAAXI@Z 000000018001e1d0 f   TriangleMeshBuilder.obj
 0001:0001d530       ?createGRBData@TriangleMeshBuilder@physx@@QEAAXXZ 000000018001e530 f   TriangleMeshBuilder.obj
 0001:0001d6d0       ?loadFromDesc@TriangleMeshBuilder@physx@@QEAA_NAEBVPxTriangleMeshDesc@2@PEAW4Enum@PxTriangleMeshCookingResult@2@_N@Z 000000018001e6d0 f   TriangleMeshBuilder.obj
 0001:0001d9d0       ?save@TriangleMeshBuilder@physx@@QEBA_NAEAVPxOutputStream@2@_NAEBUPxCookingParams@2@@Z 000000018001e9d0 f   TriangleMeshBuilder.obj
 0001:0001e2f0       ?checkMeshIndicesSize@TriangleMeshBuilder@physx@@QEAAXXZ 000000018001f2f0 f   TriangleMeshBuilder.obj
 0001:0001e4f0       ?importMesh@TriangleMeshBuilder@physx@@IEAA_NAEBVPxTriangleMeshDesc@2@AEBUPxCookingParams@2@PEAW4Enum@PxTriangleMeshCookingResult@2@_N@Z 000000018001f4f0 f   TriangleMeshBuilder.obj
 0001:0001eb80       ?releaseEdgeList@TriangleMeshBuilder@physx@@IEAAXXZ 000000018001fb80 f   TriangleMeshBuilder.obj
 0001:0001ebe0       ?createEdgeList@TriangleMeshBuilder@physx@@IEAAXXZ 000000018001fbe0 f   TriangleMeshBuilder.obj
 0001:0001ed60       ??0RTreeTriangleMeshBuilder@physx@@QEAA@AEBUPxCookingParams@1@@Z 000000018001fd60 f   TriangleMeshBuilder.obj
 0001:0001edc0       ??1RTreeTriangleMeshBuilder@physx@@UEAA@XZ 000000018001fdc0 f   TriangleMeshBuilder.obj
 0001:0001ee00       ?createMidPhaseStructure@RTreeTriangleMeshBuilder@physx@@UEAAXXZ 000000018001fe00 f   TriangleMeshBuilder.obj
 0001:0001f020       ?saveMidPhaseStructure@RTreeTriangleMeshBuilder@physx@@UEBAXAEAVPxOutputStream@2@_N@Z 0000000180020020 f   TriangleMeshBuilder.obj
 0001:0001f300       ??0BV4TriangleMeshBuilder@physx@@QEAA@AEBUPxCookingParams@1@@Z 0000000180020300 f   TriangleMeshBuilder.obj
 0001:0001f360       ??1BV4TriangleMeshBuilder@physx@@UEAA@XZ 0000000180020360 f   TriangleMeshBuilder.obj
 0001:0001f3a0       ?createMidPhaseStructure@BV4TriangleMeshBuilder@physx@@UEAAXXZ 00000001800203a0 f   TriangleMeshBuilder.obj
 0001:0001f860       ?saveMidPhaseStructure@BV4TriangleMeshBuilder@physx@@UEBAXAEAVPxOutputStream@2@_N@Z 0000000180020860 f   TriangleMeshBuilder.obj
 0001:0001fab0       ?onMeshIndexFormatChange@BV4TriangleMeshBuilder@physx@@UEAAXXZ 0000000180020ab0 f   TriangleMeshBuilder.obj
 0001:0001fb40       ?createMidPhaseStructure@BV32TriangleMeshBuilder@physx@@SAXAEBUPxCookingParams@2@AEAVTriangleMeshData@Gu@2@AEAVBV32Tree@52@@Z 0000000180020b40 f   TriangleMeshBuilder.obj
 0001:0001fe30       ?saveMidPhaseStructure@BV32TriangleMeshBuilder@physx@@SAXPEAVBV32Tree@Gu@2@AEAVPxOutputStream@2@_N@Z 0000000180020e30 f   TriangleMeshBuilder.obj
 0001:000208c0       ?findSharpVertices@GrbTrimeshCookerHelper@physx@@YAXAEAV?$Array@USortedNeighbor@GrbTrimeshCookerHelper@physx@@VNamedAllocator@shdfnd@3@@shdfnd@2@AEAV?$Array@USharpEdgeRange@GrbTrimeshCookerHelper@physx@@VNamedAllocator@shdfnd@3@@42@PEBUuint3@2@PEBUuint4@2@II@Z 00000001800218c0 f   TriangleMeshBuilder.obj
 0001:00020dd0       ?buildVertexConnectionNew_p1@GrbTrimeshCookerHelper@physx@@YAIAEAV?$Array@USortedNeighbor@GrbTrimeshCookerHelper@physx@@VNamedAllocator@shdfnd@3@@shdfnd@2@AEAV?$Array@USharpEdgeRange@GrbTrimeshCookerHelper@physx@@VNamedAllocator@shdfnd@3@@42@PEBUuint3@2@PEBUuint4@2@II@Z 0000000180021dd0 f   TriangleMeshBuilder.obj
 0001:00020e70       ?buildVertexConnectionNew_p2@GrbTrimeshCookerHelper@physx@@YAXPEAI00AEAV?$Array@USortedNeighbor@GrbTrimeshCookerHelper@physx@@VNamedAllocator@shdfnd@3@@shdfnd@2@AEAV?$Array@USharpEdgeRange@GrbTrimeshCookerHelper@physx@@VNamedAllocator@shdfnd@3@@42@I@Z 0000000180021e70 f   TriangleMeshBuilder.obj
 0001:00020f50       ??$?2V?$ReflectionAllocator@VBV32Tree@Gu@physx@@@shdfnd@physx@@@UserAllocated@shdfnd@physx@@SAPEAX_KV?$ReflectionAllocator@VBV32Tree@Gu@physx@@@12@PEBDH@Z 0000000180021f50 f i TriangleMeshBuilder.obj
 0001:00020f90       ??$?2V?$ReflectionAllocator@VEdgeListBuilder@Gu@physx@@@shdfnd@physx@@@UserAllocated@shdfnd@physx@@SAPEAX_KV?$ReflectionAllocator@VEdgeListBuilder@Gu@physx@@@12@PEBDH@Z 0000000180021f90 f i TriangleMeshBuilder.obj
 0001:00020fd0       ??$?_UE@@YAPEAX_KV?$ReflectionAllocator@E@shdfnd@physx@@PEBDH@Z 0000000180021fd0 f i TriangleMeshBuilder.obj
 0001:00021010       ??$?_UG@@YAPEAX_KV?$ReflectionAllocator@G@shdfnd@physx@@PEBDH@Z 0000000180022010 f i TriangleMeshBuilder.obj
 0001:00021050       ??$PX_UNUSED@U?$TriangleT@I@Gu@physx@@@@YAXAEBU?$TriangleT@I@Gu@physx@@@Z 0000000180022050 f i TriangleMeshBuilder.obj
 0001:00021060       ??$median3@UEdgeTriLookup@physx@@$$CBU?$Less@UEdgeTriLookup@physx@@@shdfnd@2@@internal@shdfnd@physx@@YAXPEAUEdgeTriLookup@2@HHAEBU?$Less@UEdgeTriLookup@physx@@@12@@Z 0000000180022060 f i TriangleMeshBuilder.obj
 0001:00021220       ??$median3@USortedNeighbor@GrbTrimeshCookerHelper@physx@@$$CBU?$Less@USortedNeighbor@GrbTrimeshCookerHelper@physx@@@shdfnd@3@@internal@shdfnd@physx@@YAXPEAUSortedNeighbor@GrbTrimeshCookerHelper@2@HHAEBU?$Less@USortedNeighbor@GrbTrimeshCookerHelper@physx@@@12@@Z 0000000180022220 f i TriangleMeshBuilder.obj
 0001:000213e0       ??$partition@UEdgeTriLookup@physx@@$$CBU?$Less@UEdgeTriLookup@physx@@@shdfnd@2@@internal@shdfnd@physx@@YAHPEAUEdgeTriLookup@2@HHAEBU?$Less@UEdgeTriLookup@physx@@@12@@Z 00000001800223e0 f i TriangleMeshBuilder.obj
 0001:00021600       ??$partition@USortedNeighbor@GrbTrimeshCookerHelper@physx@@$$CBU?$Less@USortedNeighbor@GrbTrimeshCookerHelper@physx@@@shdfnd@3@@internal@shdfnd@physx@@YAHPEAUSortedNeighbor@GrbTrimeshCookerHelper@2@HHAEBU?$Less@USortedNeighbor@GrbTrimeshCookerHelper@physx@@@12@@Z 0000000180022600 f i TriangleMeshBuilder.obj
 0001:00021820       ??$smallSort@UEdgeTriLookup@physx@@$$CBU?$Less@UEdgeTriLookup@physx@@@shdfnd@2@@internal@shdfnd@physx@@YAXPEAUEdgeTriLookup@2@HHAEBU?$Less@UEdgeTriLookup@physx@@@12@@Z 0000000180022820 f i TriangleMeshBuilder.obj
 0001:00021910       ??$smallSort@USortedNeighbor@GrbTrimeshCookerHelper@physx@@$$CBU?$Less@USortedNeighbor@GrbTrimeshCookerHelper@physx@@@shdfnd@3@@internal@shdfnd@physx@@YAXPEAUSortedNeighbor@GrbTrimeshCookerHelper@2@HHAEBU?$Less@USortedNeighbor@GrbTrimeshCookerHelper@physx@@@12@@Z 0000000180022910 f i TriangleMeshBuilder.obj
 0001:00021a00       ??$sort@UEdgeTriLookup@physx@@@shdfnd@physx@@YAXPEAUEdgeTriLookup@1@I@Z 0000000180022a00 f i TriangleMeshBuilder.obj
 0001:00021a50       ??$sort@UEdgeTriLookup@physx@@U?$Less@UEdgeTriLookup@physx@@@shdfnd@2@VNamedAllocator@42@@shdfnd@physx@@YAXPEAUEdgeTriLookup@1@IAEBU?$Less@UEdgeTriLookup@physx@@@01@AEBVNamedAllocator@01@I@Z 0000000180022a50 f i TriangleMeshBuilder.obj
 0001:00021d50       ??$sort@USortedNeighbor@GrbTrimeshCookerHelper@physx@@@shdfnd@physx@@YAXPEAUSortedNeighbor@GrbTrimeshCookerHelper@1@I@Z 0000000180022d50 f i TriangleMeshBuilder.obj
 0001:00021da0       ??$sort@USortedNeighbor@GrbTrimeshCookerHelper@physx@@U?$Less@USortedNeighbor@GrbTrimeshCookerHelper@physx@@@shdfnd@3@VNamedAllocator@53@@shdfnd@physx@@YAXPEAUSortedNeighbor@GrbTrimeshCookerHelper@1@IAEBU?$Less@USortedNeighbor@GrbTrimeshCookerHelper@physx@@@01@AEBVNamedAllocator@01@I@Z 0000000180022da0 f i TriangleMeshBuilder.obj
 0001:000220a0       ??$swap@UEdgeTriLookup@physx@@@shdfnd@physx@@YAXAEAUEdgeTriLookup@1@0@Z 00000001800230a0 f i TriangleMeshBuilder.obj
 0001:000220f0       ??$swap@USortedNeighbor@GrbTrimeshCookerHelper@physx@@@shdfnd@physx@@YAXAEAUSortedNeighbor@GrbTrimeshCookerHelper@1@0@Z 00000001800230f0 f i TriangleMeshBuilder.obj
 0001:00022140       ??0?$Array@IVNamedAllocator@shdfnd@physx@@@shdfnd@physx@@QEAA@AEBVNamedAllocator@12@@Z 0000000180023140 f i TriangleMeshBuilder.obj
 0001:00022190       ??0?$PxFlags@W4Enum@PxMeshFlag@physx@@G@physx@@QEAA@W4Enum@PxMeshFlag@1@@Z 0000000180023190 f i TriangleMeshBuilder.obj
 0001:000221b0       ??0?$PxFlags@W4Enum@PxMeshFlag@physx@@G@physx@@QEAA@XZ 00000001800231b0 f i TriangleMeshBuilder.obj
 0001:000221d0       ??0?$ReflectionAllocator@E@shdfnd@physx@@QEAA@PEBD@Z 00000001800231d0 f i TriangleMeshBuilder.obj
 0001:000221e0       ??0?$ReflectionAllocator@G@shdfnd@physx@@QEAA@PEBD@Z 00000001800231e0 f i TriangleMeshBuilder.obj
 0001:000221f0       ??0?$ReflectionAllocator@VBV32Tree@Gu@physx@@@shdfnd@physx@@QEAA@PEBD@Z 00000001800231f0 f i TriangleMeshBuilder.obj
 0001:00022200       ??0?$ReflectionAllocator@VEdgeListBuilder@Gu@physx@@@shdfnd@physx@@QEAA@PEBD@Z 0000000180023200 f i TriangleMeshBuilder.obj
 0001:00022210       ??0BV4TriangleData@Gu@physx@@QEAA@XZ 0000000180023210 f i TriangleMeshBuilder.obj
 0001:00022270       ??0MeshDataBase@Gu@physx@@QEAA@XZ 0000000180023270 f i TriangleMeshBuilder.obj
 0001:00022320       ??0PxPlane@physx@@QEAA@AEBVPxVec3@1@0@Z 0000000180023320 f i TriangleMeshBuilder.obj
 0001:00022380       ??0PxSimpleTriangleMesh@physx@@QEAA@AEBV01@@Z 0000000180023380 f i TriangleMeshBuilder.obj
 0001:000223e0       ??0PxTriangleMeshDesc@physx@@QEAA@AEBV01@@Z 00000001800233e0 f i TriangleMeshBuilder.obj
 0001:00022430       ??0RTree@Gu@physx@@QEAA@XZ 0000000180023430 f i TriangleMeshBuilder.obj
 0001:000224c0       ??0RTreeCookerRemap@physx@@QEAA@I@Z 00000001800234c0 f i TriangleMeshBuilder.obj
 0001:00022500       ??0RTreeTriangleData@Gu@physx@@QEAA@XZ 0000000180023500 f i TriangleMeshBuilder.obj
 0001:00022550       ??0RemapCallback@RTreeCooker@physx@@QEAA@XZ 0000000180023550 f i TriangleMeshBuilder.obj
 0001:00022570       ??0SharpEdgeRange@GrbTrimeshCookerHelper@physx@@QEAA@II@Z 0000000180023570 f i TriangleMeshBuilder.obj
 0001:000225a0       ??0SharpEdgeRange@GrbTrimeshCookerHelper@physx@@QEAA@XZ 00000001800235a0 f i TriangleMeshBuilder.obj
 0001:000225d0       ??0SortedNeighbor@GrbTrimeshCookerHelper@physx@@QEAA@II_N@Z 00000001800235d0 f i TriangleMeshBuilder.obj
 0001:00022610       ??0TriangleMeshData@Gu@physx@@QEAA@XZ 0000000180023610 f i TriangleMeshBuilder.obj
 0001:00022690       ??1BV4TriangleData@Gu@physx@@UEAA@XZ 0000000180023690 f i TriangleMeshBuilder.obj
 0001:000226e0       ??1MeshDataBase@Gu@physx@@UEAA@XZ 00000001800236e0 f i TriangleMeshBuilder.obj
 0001:00022830       ??1RTree@Gu@physx@@QEAA@XZ 0000000180023830 f i TriangleMeshBuilder.obj
 0001:00022850       ??1RTreeCookerRemap@physx@@UEAA@XZ 0000000180023850 f i TriangleMeshBuilder.obj
 0001:00022870       ??1RTreeTriangleData@Gu@physx@@UEAA@XZ 0000000180023870 f i TriangleMeshBuilder.obj
 0001:000228b0       ??1RemapCallback@RTreeCooker@physx@@UEAA@XZ 00000001800238b0 f i TriangleMeshBuilder.obj
 0001:000228d0       ??1TriangleMeshData@Gu@physx@@UEAA@XZ 00000001800238d0 f i TriangleMeshBuilder.obj
 0001:00022a00       ??A?$Array@USharpEdgeRange@GrbTrimeshCookerHelper@physx@@VNamedAllocator@shdfnd@3@@shdfnd@physx@@QEAAAEAUSharpEdgeRange@GrbTrimeshCookerHelper@2@I@Z 0000000180023a00 f i TriangleMeshBuilder.obj
 0001:00022a80       ??A?$Array@USortedNeighbor@GrbTrimeshCookerHelper@physx@@VNamedAllocator@shdfnd@3@@shdfnd@physx@@QEAAAEAUSortedNeighbor@GrbTrimeshCookerHelper@2@I@Z 0000000180023a80 f i TriangleMeshBuilder.obj
 0001:00022b00       ??MEdgeTriLookup@physx@@QEBA_NAEBU01@@Z 0000000180023b00 f i TriangleMeshBuilder.obj
 0001:00022b60       ??MSortedNeighbor@GrbTrimeshCookerHelper@physx@@QEBA_NAEBU012@@Z 0000000180023b60 f i TriangleMeshBuilder.obj
 0001:00022c00       ??NEdgeTriLookup@physx@@QEBA_NAEBU01@@Z 0000000180023c00 f i TriangleMeshBuilder.obj
 0001:00022c60       ??R?$Less@UEdgeTriLookup@physx@@@shdfnd@physx@@QEBA_NAEBUEdgeTriLookup@2@0@Z 0000000180023c60 f i TriangleMeshBuilder.obj
 0001:00022c90       ??R?$Less@USortedNeighbor@GrbTrimeshCookerHelper@physx@@@shdfnd@physx@@QEBA_NAEBUSortedNeighbor@GrbTrimeshCookerHelper@2@0@Z 0000000180023c90 f i TriangleMeshBuilder.obj
 0001:00022cc0       ??S?$PxFlags@W4Enum@PxMeshFlag@physx@@G@physx@@QEBA?AV01@XZ 0000000180023cc0 f i TriangleMeshBuilder.obj
 0001:00022d00       ??Sphysx@@YA?AV?$PxFlags@W4Enum@PxMeshFlag@physx@@G@0@W4Enum@PxMeshFlag@0@@Z 0000000180023d00 f i TriangleMeshBuilder.obj
 0001:00022d40       ??_4?$PxFlags@W4Enum@PxMeshFlag@physx@@G@physx@@QEAAAEAV01@AEBV01@@Z 0000000180023d40 f i TriangleMeshBuilder.obj
 0001:00022d70       ??_GBV32Tree@Gu@physx@@QEAAPEAXI@Z 0000000180023d70 f i TriangleMeshBuilder.obj
 0001:00022dd0       ??_EBV4TriangleData@Gu@physx@@UEAAPEAXI@Z 0000000180023dd0 f i TriangleMeshBuilder.obj
 0001:00022dd0       ??_GBV4TriangleData@Gu@physx@@UEAAPEAXI@Z 0000000180023dd0 f i TriangleMeshBuilder.obj
 0001:00022e30       ??_EBV4TriangleMeshBuilder@physx@@UEAAPEAXI@Z 0000000180023e30 f i TriangleMeshBuilder.obj
 0001:00022e30       ??_GBV4TriangleMeshBuilder@physx@@UEAAPEAXI@Z 0000000180023e30 f i TriangleMeshBuilder.obj
 0001:00022e70       ??_GEdgeListBuilder@Gu@physx@@QEAAPEAXI@Z 0000000180023e70 f i TriangleMeshBuilder.obj
 0001:00022ed0       ??_EMeshDataBase@Gu@physx@@UEAAPEAXI@Z 0000000180023ed0 f i TriangleMeshBuilder.obj
 0001:00022ed0       ??_GMeshDataBase@Gu@physx@@UEAAPEAXI@Z 0000000180023ed0 f i TriangleMeshBuilder.obj
 0001:00022f30       ??_ERTreeCookerRemap@physx@@UEAAPEAXI@Z 0000000180023f30 f i TriangleMeshBuilder.obj
 0001:00022f30       ??_GRTreeCookerRemap@physx@@UEAAPEAXI@Z 0000000180023f30 f i TriangleMeshBuilder.obj
 0001:00022f70       ??_ERTreeTriangleData@Gu@physx@@UEAAPEAXI@Z 0000000180023f70 f i TriangleMeshBuilder.obj
 0001:00022f70       ??_GRTreeTriangleData@Gu@physx@@UEAAPEAXI@Z 0000000180023f70 f i TriangleMeshBuilder.obj
 0001:00022fd0       ??_ERTreeTriangleMeshBuilder@physx@@UEAAPEAXI@Z 0000000180023fd0 f i TriangleMeshBuilder.obj
 0001:00022fd0       ??_GRTreeTriangleMeshBuilder@physx@@UEAAPEAXI@Z 0000000180023fd0 f i TriangleMeshBuilder.obj
 0001:00023010       ??_ERemapCallback@RTreeCooker@physx@@UEAAPEAXI@Z 0000000180024010 f i TriangleMeshBuilder.obj
 0001:00023010       ??_GRemapCallback@RTreeCooker@physx@@UEAAPEAXI@Z 0000000180024010 f i TriangleMeshBuilder.obj
 0001:00023050       ??_ETriangleMeshBuilder@physx@@UEAAPEAXI@Z 0000000180024050 f i TriangleMeshBuilder.obj
 0001:00023050       ??_GTriangleMeshBuilder@physx@@UEAAPEAXI@Z 0000000180024050 f i TriangleMeshBuilder.obj
 0001:00023090       ??_ETriangleMeshData@Gu@physx@@UEAAPEAXI@Z 0000000180024090 f i TriangleMeshBuilder.obj
 0001:00023090       ??_GTriangleMeshData@Gu@physx@@UEAAPEAXI@Z 0000000180024090 f i TriangleMeshBuilder.obj
 0001:000230f0       ?LeafSetData@Gu@physx@@YAIII@Z 00000001800240f0 f i TriangleMeshBuilder.obj
 0001:000231c0       ?SetData@LeafTriangles@Gu@physx@@QEAAXII@Z 00000001800241c0 f i TriangleMeshBuilder.obj
 0001:000231f0       ?WriteDwordBuffer@physx@@YAXPEBII_NAEAVPxOutputStream@1@@Z 00000001800241f0 f i TriangleMeshBuilder.obj
 0001:00023230       ?allocate@?$Array@USharpEdgeRange@GrbTrimeshCookerHelper@physx@@VNamedAllocator@shdfnd@3@@shdfnd@physx@@IEAAPEAUSharpEdgeRange@GrbTrimeshCookerHelper@3@I@Z 0000000180024230 f i TriangleMeshBuilder.obj
 0001:000232c0       ?allocate@?$Array@USortedNeighbor@GrbTrimeshCookerHelper@physx@@VNamedAllocator@shdfnd@3@@shdfnd@physx@@IEAAPEAUSortedNeighbor@GrbTrimeshCookerHelper@3@I@Z 00000001800242c0 f i TriangleMeshBuilder.obj
 0001:00023350       ?allocate@?$ReflectionAllocator@E@shdfnd@physx@@QEAAPEAX_KPEBDH@Z 0000000180024350 f i TriangleMeshBuilder.obj
 0001:000233d0       ?allocate@?$ReflectionAllocator@G@shdfnd@physx@@QEAAPEAX_KPEBDH@Z 00000001800243d0 f i TriangleMeshBuilder.obj
 0001:00023450       ?allocate@?$ReflectionAllocator@VBV32Tree@Gu@physx@@@shdfnd@physx@@QEAAPEAX_KPEBDH@Z 0000000180024450 f i TriangleMeshBuilder.obj
 0001:000234d0       ?allocate@?$ReflectionAllocator@VEdgeListBuilder@Gu@physx@@@shdfnd@physx@@QEAAPEAX_KPEBDH@Z 00000001800244d0 f i TriangleMeshBuilder.obj
 0001:00023550       ?allocateMaterials@TriangleMeshData@Gu@physx@@QEAAPEAGXZ 0000000180024550 f i TriangleMeshBuilder.obj
 0001:00023680       ?allocateTriangles@TriangleMeshData@Gu@physx@@QEAAPEAXI_NI@Z 0000000180024680 f i TriangleMeshBuilder.obj
 0001:000238c0       ?allocateVertices@MeshDataBase@Gu@physx@@QEAAPEAVPxVec3@3@I@Z 00000001800248c0 f i TriangleMeshBuilder.obj
 0001:000239a0       ?begin@?$Array@USortedNeighbor@GrbTrimeshCookerHelper@physx@@VNamedAllocator@shdfnd@3@@shdfnd@physx@@QEAAPEAUSortedNeighbor@GrbTrimeshCookerHelper@3@XZ 00000001800249a0 f i TriangleMeshBuilder.obj
 0001:000239b0       ?capacity@?$Array@USharpEdgeRange@GrbTrimeshCookerHelper@physx@@VNamedAllocator@shdfnd@3@@shdfnd@physx@@QEBAIXZ 00000001800249b0 f i TriangleMeshBuilder.obj
 0001:000239d0       ?capacity@?$Array@USortedNeighbor@GrbTrimeshCookerHelper@physx@@VNamedAllocator@shdfnd@3@@shdfnd@physx@@QEBAIXZ 00000001800249d0 f i TriangleMeshBuilder.obj
 0001:000239f0       ?capacityIncrement@?$Array@USortedNeighbor@GrbTrimeshCookerHelper@physx@@VNamedAllocator@shdfnd@3@@shdfnd@physx@@IEBAIXZ 00000001800249f0 f i TriangleMeshBuilder.obj
 0001:00023a30       ?copy@?$Array@USharpEdgeRange@GrbTrimeshCookerHelper@physx@@VNamedAllocator@shdfnd@3@@shdfnd@physx@@KAXPEAUSharpEdgeRange@GrbTrimeshCookerHelper@3@0PEBU453@@Z 0000000180024a30 f i TriangleMeshBuilder.obj
 0001:00023ab0       ?copy@?$Array@USortedNeighbor@GrbTrimeshCookerHelper@physx@@VNamedAllocator@shdfnd@3@@shdfnd@physx@@KAXPEAUSortedNeighbor@GrbTrimeshCookerHelper@3@0PEBU453@@Z 0000000180024ab0 f i TriangleMeshBuilder.obj
 0001:00023b30       ?create@?$Array@USharpEdgeRange@GrbTrimeshCookerHelper@physx@@VNamedAllocator@shdfnd@3@@shdfnd@physx@@KAXPEAUSharpEdgeRange@GrbTrimeshCookerHelper@3@0AEBU453@@Z 0000000180024b30 f i TriangleMeshBuilder.obj
 0001:00023b90       ?deallocate@?$AlignedAllocator@$0IA@VNonTrackingAllocator@shdfnd@physx@@@shdfnd@physx@@QEAAXPEAX@Z 0000000180024b90 f i TriangleMeshBuilder.obj
 0001:00023be0       ?deallocate@?$Array@USharpEdgeRange@GrbTrimeshCookerHelper@physx@@VNamedAllocator@shdfnd@3@@shdfnd@physx@@IEAAXPEAX@Z 0000000180024be0 f i TriangleMeshBuilder.obj
 0001:00023c10       ?deallocate@?$Array@USortedNeighbor@GrbTrimeshCookerHelper@physx@@VNamedAllocator@shdfnd@3@@shdfnd@physx@@IEAAXPEAX@Z 0000000180024c10 f i TriangleMeshBuilder.obj
 0001:00023c40       ?destroy@?$Array@USharpEdgeRange@GrbTrimeshCookerHelper@physx@@VNamedAllocator@shdfnd@3@@shdfnd@physx@@KAXPEAUSharpEdgeRange@GrbTrimeshCookerHelper@3@0@Z 0000000180024c40 f i TriangleMeshBuilder.obj
 0001:00023c70       ?destroy@?$Array@USortedNeighbor@GrbTrimeshCookerHelper@physx@@VNamedAllocator@shdfnd@3@@shdfnd@physx@@KAXPEAUSortedNeighbor@GrbTrimeshCookerHelper@3@0@Z 0000000180024c70 f i TriangleMeshBuilder.obj
 0001:00023ca0       ?findEdgeCCW@?$TriangleT@I@Gu@physx@@QEBAEII@Z 0000000180024ca0 f i TriangleMeshBuilder.obj
 0001:00023e00       ?getMidphaseID@BV4TriangleMeshBuilder@physx@@UEBA?AW4Enum@PxMeshMidPhase@2@XZ 0000000180024e00 f i TriangleMeshBuilder.obj
 0001:00023e10       ?getMidphaseID@RTreeTriangleMeshBuilder@physx@@UEBA?AW4Enum@PxMeshMidPhase@2@XZ 0000000180024e10 f i TriangleMeshBuilder.obj
 0001:00023e20       ?getName@?$ReflectionAllocator@E@shdfnd@physx@@CAPEBDXZ 0000000180024e20 f i TriangleMeshBuilder.obj
 0001:00023e60       ?getName@?$ReflectionAllocator@G@shdfnd@physx@@CAPEBDXZ 0000000180024e60 f i TriangleMeshBuilder.obj
 0001:00023ea0       ?getName@?$ReflectionAllocator@VBV32Tree@Gu@physx@@@shdfnd@physx@@CAPEBDXZ 0000000180024ea0 f i TriangleMeshBuilder.obj
 0001:00023ee0       ?getName@?$ReflectionAllocator@VEdgeListBuilder@Gu@physx@@@shdfnd@physx@@CAPEBDXZ 0000000180024ee0 f i TriangleMeshBuilder.obj
 0001:00023f20       ?getNbFaces@EdgeList@Gu@physx@@QEBAIXZ 0000000180024f20 f i TriangleMeshBuilder.obj
 0001:00023f30       ?getRemap@SourceMeshBase@Gu@physx@@QEBAPEBIXZ 0000000180024f30 f i TriangleMeshBuilder.obj
 0001:00023f40       ?grow@?$Array@USharpEdgeRange@GrbTrimeshCookerHelper@physx@@VNamedAllocator@shdfnd@3@@shdfnd@physx@@IEAAXI@Z 0000000180024f40 f i TriangleMeshBuilder.obj
 0001:00023fc0       ?grow@?$Array@USortedNeighbor@GrbTrimeshCookerHelper@physx@@VNamedAllocator@shdfnd@3@@shdfnd@physx@@IEAAXI@Z 0000000180024fc0 f i TriangleMeshBuilder.obj
 0001:00024040       ?growAndPushBack@?$Array@USortedNeighbor@GrbTrimeshCookerHelper@physx@@VNamedAllocator@shdfnd@3@@shdfnd@physx@@IEAAAEAUSortedNeighbor@GrbTrimeshCookerHelper@3@AEBU453@@Z 0000000180025040 f i TriangleMeshBuilder.obj
 0001:00024210       ?has16BitIndices@MeshDataBase@Gu@physx@@QEBA_NXZ 0000000180025210 f i TriangleMeshBuilder.obj
 0001:00024240       ?initRemap@SourceMeshBase@Gu@physx@@QEAAXXZ 0000000180025240 f i TriangleMeshBuilder.obj
 0001:00024260       ?isInUserMemory@?$Array@USharpEdgeRange@GrbTrimeshCookerHelper@physx@@VNamedAllocator@shdfnd@3@@shdfnd@physx@@QEBAIXZ 0000000180025260 f i TriangleMeshBuilder.obj
 0001:00024280       ?isInUserMemory@?$Array@USortedNeighbor@GrbTrimeshCookerHelper@physx@@VNamedAllocator@shdfnd@3@@shdfnd@physx@@QEBAIXZ 0000000180025280 f i TriangleMeshBuilder.obj
 0001:000242a0       ?isValid@PxBVH33MidphaseDesc@physx@@QEBA_NXZ 00000001800252a0 f i TriangleMeshBuilder.obj
 0001:000242d0       ?isValid@PxBVH34MidphaseDesc@physx@@QEBA_NXZ 00000001800252d0 f i TriangleMeshBuilder.obj
 0001:000242f0       ?isValid@PxMidphaseDesc@physx@@QEBA_NXZ 00000001800252f0 f i TriangleMeshBuilder.obj
 0001:00024340       ?onMeshIndexFormatChange@TriangleMeshBuilder@physx@@UEAAXXZ 0000000180025340 f i TriangleMeshBuilder.obj
 0001:00024350       ?pushBack@?$Array@USortedNeighbor@GrbTrimeshCookerHelper@physx@@VNamedAllocator@shdfnd@3@@shdfnd@physx@@QEAAAEAUSortedNeighbor@GrbTrimeshCookerHelper@3@AEBU453@@Z 0000000180025350 f i TriangleMeshBuilder.obj
 0001:00024400       ?recreate@?$Array@USharpEdgeRange@GrbTrimeshCookerHelper@physx@@VNamedAllocator@shdfnd@3@@shdfnd@physx@@IEAAXI@Z 0000000180025400 f i TriangleMeshBuilder.obj
 0001:00024510       ?recreate@?$Array@USortedNeighbor@GrbTrimeshCookerHelper@physx@@VNamedAllocator@shdfnd@3@@shdfnd@physx@@IEAAXI@Z 0000000180025510 f i TriangleMeshBuilder.obj
 0001:00024630       ?release@RTree@Gu@physx@@QEAAXXZ 0000000180025630 f i TriangleMeshBuilder.obj
 0001:00024690       ?releaseRemap@SourceMeshBase@Gu@physx@@QEAAXXZ 0000000180025690 f i TriangleMeshBuilder.obj
 0001:000246d0       ?remap@RTreeCookerRemap@physx@@UEAAXPEAIII@Z 00000001800256d0 f i TriangleMeshBuilder.obj
 0001:000248c0       ?reserve@?$Array@USharpEdgeRange@GrbTrimeshCookerHelper@physx@@VNamedAllocator@shdfnd@3@@shdfnd@physx@@QEAAXI@Z 00000001800258c0 f i TriangleMeshBuilder.obj
 0001:000248f0       ?reserve@?$Array@USortedNeighbor@GrbTrimeshCookerHelper@physx@@VNamedAllocator@shdfnd@3@@shdfnd@physx@@QEAAXI@Z 00000001800258f0 f i TriangleMeshBuilder.obj
 0001:00024920       ?resize@?$Array@USharpEdgeRange@GrbTrimeshCookerHelper@physx@@VNamedAllocator@shdfnd@3@@shdfnd@physx@@QEAAXIAEBUSharpEdgeRange@GrbTrimeshCookerHelper@3@@Z 0000000180025920 f i TriangleMeshBuilder.obj
 0001:000249b0       ?resizeUninitialized@?$Array@USortedNeighbor@GrbTrimeshCookerHelper@physx@@VNamedAllocator@shdfnd@3@@shdfnd@physx@@QEAAXI@Z 00000001800259b0 f i TriangleMeshBuilder.obj
 0001:000249e0       ?setNbTriangles@SourceMesh@Gu@physx@@QEAAXI@Z 00000001800259e0 f i TriangleMeshBuilder.obj
 0001:00024a00       ?setNbVertices@SourceMeshBase@Gu@physx@@QEAAXI@Z 0000000180025a00 f i TriangleMeshBuilder.obj
 0001:00024a20       ?setPointers@SourceMesh@Gu@physx@@QEAAXPEAVIndTri32@23@PEAVIndTri16@23@PEBVPxVec3@3@@Z 0000000180025a20 f i TriangleMeshBuilder.obj
 0001:00024a60       ?setTriangleAdjacency@TriangleMeshData@Gu@physx@@QEAAXIII@Z 0000000180025a60 f i TriangleMeshBuilder.obj
 0001:00024af0       ?size@?$Array@USortedNeighbor@GrbTrimeshCookerHelper@physx@@VNamedAllocator@shdfnd@3@@shdfnd@physx@@QEBAIXZ 0000000180025af0 f i TriangleMeshBuilder.obj
 0001:00024b00       ?to16@shdfnd@physx@@YAGI@Z 0000000180025b00 f i TriangleMeshBuilder.obj
 0001:00024b70       ?writeChunk@physx@@YAXCCCCAEAVPxOutputStream@1@@Z 0000000180025b70 f i TriangleMeshBuilder.obj
 0001:00024c00       ?writeIntBuffer@physx@@YAXPEBII_NAEAVPxOutputStream@1@@Z 0000000180025c00 f i TriangleMeshBuilder.obj
 0001:00024c40       ??0BigConvexDataBuilder@physx@@QEAA@PEBUConvexHullData@Gu@1@PEAVBigConvexData@1@PEBVPxVec3@1@@Z 0000000180025c40 f   BigConvexDataBuilder.obj
 0001:00024c90       ??1BigConvexDataBuilder@physx@@QEAA@XZ 0000000180025c90 f   BigConvexDataBuilder.obj
 0001:00024ca0       ?precompute@BigConvexDataBuilder@physx@@QEAA_NI@Z 0000000180025ca0 f   BigConvexDataBuilder.obj
 0001:000252c0       ?initialize@BigConvexDataBuilder@physx@@QEAA_NXZ 00000001800262c0 f   BigConvexDataBuilder.obj
 0001:00025330       ?save@BigConvexDataBuilder@physx@@QEBA_NAEAVPxOutputStream@2@_N@Z 0000000180026330 f   BigConvexDataBuilder.obj
 0001:00025460       ?computeValencies@BigConvexDataBuilder@physx@@QEAA_NAEBVConvexHullBuilder@2@@Z 0000000180026460 f   BigConvexDataBuilder.obj
 0001:00025ca0       ?saveValencies@BigConvexDataBuilder@physx@@QEBA_NAEAVPxOutputStream@2@_N@Z 0000000180026ca0 f   BigConvexDataBuilder.obj
 0001:00025ee0       ??0BigConvexData@physx@@QEAA@W4PxEMPTY@1@@Z 0000000180026ee0 f i BigConvexDataBuilder.obj
 0001:00025ef0       ??4BigConvexData@physx@@QEAAAEAV01@AEBV01@@Z 0000000180026ef0 f i BigConvexDataBuilder.obj
 0001:00025f20       ?GetAdjacentVerts@BigConvexData@physx@@QEBAPEBEXZ 0000000180026f20 f i BigConvexDataBuilder.obj
 0001:00025f30       ?GetNbNeighbors@BigConvexData@physx@@QEBAGI@Z 0000000180026f30 f i BigConvexDataBuilder.obj
 0001:00025f50       ?GetNbSamples@BigConvexData@physx@@QEBAIXZ 0000000180026f50 f i BigConvexDataBuilder.obj
 0001:00025f60       ?GetNbVerts@BigConvexData@physx@@QEBAIXZ 0000000180026f60 f i BigConvexDataBuilder.obj
 0001:00025f70       ?GetNeighbors@BigConvexData@physx@@QEBAPEBEI@Z 0000000180026f70 f i BigConvexDataBuilder.obj
 0001:00025fa0       ?GetOffset@BigConvexData@physx@@QEBAGI@Z 0000000180026fa0 f i BigConvexDataBuilder.obj
 0001:00025fc0       ?GetSubdiv@BigConvexData@physx@@QEBAIXZ 0000000180026fc0 f i BigConvexDataBuilder.obj
 0001:00025fd0       ?GetValencies@BigConvexData@physx@@QEBAPEBUValency@Gu@2@XZ 0000000180026fd0 f i BigConvexDataBuilder.obj
 0001:00025fe0       ?GetValency@BigConvexData@physx@@QEBAGI@Z 0000000180026fe0 f i BigConvexDataBuilder.obj
 0001:00026000       ?precomputeSample@BigConvexDataBuilder@physx@@IEAAXAEBVPxVec3@2@AEAEM@Z 0000000180027000 f i BigConvexDataBuilder.obj
 0001:00026360       ??0ConvexHullBuilder@physx@@QEAA@PEAUConvexHullData@Gu@1@_N@Z 0000000180027360 f   ConvexHullBuilder.obj
 0001:000263f0       ??1ConvexHullBuilder@physx@@QEAA@XZ 00000001800273f0 f   ConvexHullBuilder.obj
 0001:00026530       ?init@ConvexHullBuilder@physx@@QEAA_NIPEBVPxVec3@2@PEBIIIPEBUPxHullPolygon@2@_NPEAVConvexHullLib@2@@Z 0000000180027530 f   ConvexHullBuilder.obj
 0001:00026df0       ?save@ConvexHullBuilder@physx@@QEBA_NAEAVPxOutputStream@2@_N@Z 0000000180027df0 f   ConvexHullBuilder.obj
 0001:000271d0       ?copy@ConvexHullBuilder@physx@@QEAA_NAEAUConvexHullData@Gu@2@AEAI@Z 00000001800281d0 f   ConvexHullBuilder.obj
 0001:00027950       ?createEdgeList@ConvexHullBuilder@physx@@QEAA_N_NI@Z 0000000180028950 f   ConvexHullBuilder.obj
 0001:00028740       ?checkHullPolygons@ConvexHullBuilder@physx@@QEBA_NXZ 0000000180029740 f   ConvexHullBuilder.obj
 0001:00028ff0       ?calculateVertexMapTable@ConvexHullBuilder@physx@@QEAA_NI_N@Z 0000000180029ff0 f   ConvexHullBuilder.obj
 0001:000292a0       ?computeGeomCenter@ConvexHullBuilder@physx@@IEBA_NAEAVPxVec3@2@IPEAUHullTriangleData@2@@Z 000000018002a2a0 f   ConvexHullBuilder.obj
 0001:00029450       ??$?_UUEdgeDescData@Gu@physx@@@@YAPEAX_KV?$ReflectionAllocator@UEdgeDescData@Gu@physx@@@shdfnd@physx@@PEBDH@Z 000000018002a450 f i ConvexHullBuilder.obj
 0001:00029490       ??$?_U_N@@YAPEAX_KV?$ReflectionAllocator@_N@shdfnd@physx@@PEBDH@Z 000000018002a490 f i ConvexHullBuilder.obj
 0001:000294d0       ??0?$PxBitAndDataT@G$0IAAA@@physx@@QEAA@G_N@Z 000000018002a4d0 f i ConvexHullBuilder.obj
 0001:00029520       ??0?$ReflectionAllocator@UEdgeDescData@Gu@physx@@@shdfnd@physx@@QEAA@PEBD@Z 000000018002a520 f i ConvexHullBuilder.obj
 0001:00029530       ??0?$ReflectionAllocator@_N@shdfnd@physx@@QEAA@PEBD@Z 000000018002a530 f i ConvexHullBuilder.obj
 0001:00029540       ??0?$TriangleT@I@Gu@physx@@QEAA@III@Z 000000018002a540 f i ConvexHullBuilder.obj
 0001:000295a0       ??0HullPolygonData@Gu@physx@@QEAA@AEBU012@@Z 000000018002a5a0 f i ConvexHullBuilder.obj
 0001:00029600       ??0PxPlane@physx@@QEAA@AEBV01@@Z 000000018002a600 f i ConvexHullBuilder.obj
 0001:00029640       ??0PxPlane@physx@@QEAA@MMMM@Z 000000018002a640 f i ConvexHullBuilder.obj
 0001:000296a0       ??4PxPlane@physx@@QEAAAEAV01@$$QEAV01@@Z 000000018002a6a0 f i ConvexHullBuilder.obj
 0001:000296e0       ?PxMemSet@physx@@YAPEAXPEAXHI@Z 000000018002a6e0 f i ConvexHullBuilder.obj
 0001:00029710       ?allocate@?$ReflectionAllocator@UEdgeDescData@Gu@physx@@@shdfnd@physx@@QEAAPEAX_KPEBDH@Z 000000018002a710 f i ConvexHullBuilder.obj
 0001:00029790       ?allocate@?$ReflectionAllocator@_N@shdfnd@physx@@QEAAPEAX_KPEBDH@Z 000000018002a790 f i ConvexHullBuilder.obj
 0001:00029810       ?area@?$TriangleT@I@Gu@physx@@QEBAMPEBVPxVec3@3@@Z 000000018002a810 f i ConvexHullBuilder.obj
 0001:00029900       ?center@?$TriangleT@I@Gu@physx@@QEBAXPEBVPxVec3@3@AEAV43@@Z 000000018002a900 f i ConvexHullBuilder.obj
 0001:000299e0       ?computeBufferSize@Gu@physx@@YAIAEBUConvexHullData@12@I@Z 000000018002a9e0 f i ConvexHullBuilder.obj
 0001:00029b00       ?computeNbPolygons@ConvexHullBuilder@physx@@QEBAIXZ 000000018002ab00 f i ConvexHullBuilder.obj
 0001:00029b80       ?flip@physx@@YAXAEAG@Z     000000018002ab80 f i ConvexHullBuilder.obj
 0001:00029bf0       ?flip@physx@@YAXAEAM@Z     000000018002abf0 f i ConvexHullBuilder.obj
 0001:00029cb0       ?flipData@Gu@physx@@YAXAEAUHullPolygonData@12@@Z 000000018002acb0 f i ConvexHullBuilder.obj
 0001:00029d10       ?getName@?$ReflectionAllocator@UEdgeDescData@Gu@physx@@@shdfnd@physx@@CAPEBDXZ 000000018002ad10 f i ConvexHullBuilder.obj
 0001:00029d50       ?getName@?$ReflectionAllocator@_N@shdfnd@physx@@CAPEBDXZ 000000018002ad50 f i ConvexHullBuilder.obj
 0001:00029d90       ?memSet@intrinsics@physx@@YAPEAXPEAXHI@Z 000000018002ad90 f i ConvexHullBuilder.obj
 0001:00029dc0       ?to8@shdfnd@physx@@YAEI@Z  000000018002adc0 f i ConvexHullBuilder.obj
 0001:00029e30       ??1ConvexHullLib@physx@@UEAA@XZ 000000018002ae30 f   ConvexHullLib.obj
 0001:00029eb0       ?cleanupVertices@ConvexHullLib@physx@@IEAA_NIPEBVPxVec3@2@IAEAIPEAV32@AEAV32@3@Z 000000018002aeb0 f   ConvexHullLib.obj
 0001:0002a5c0       ?shiftAndcleanupVertices@ConvexHullLib@physx@@IEAA_NIPEBVPxVec3@2@IAEAIPEAV32@AEAV32@3@Z 000000018002b5c0 f   ConvexHullLib.obj
 0001:0002a7c0       ?swapLargestFace@ConvexHullLib@physx@@IEAAXAEAVPxConvexMeshDesc@2@@Z 000000018002b7c0 f   ConvexHullLib.obj
 0001:0002abb0       ?shiftConvexMeshDesc@ConvexHullLib@physx@@IEAAXAEAVPxConvexMeshDesc@2@@Z 000000018002bbb0 f   ConvexHullLib.obj
 0001:0002b3f0       ??_EConvexHullLib@physx@@UEAAPEAXI@Z 000000018002c3f0 f i ConvexHullLib.obj
 0001:0002b3f0       ??_GConvexHullLib@physx@@UEAAPEAXI@Z 000000018002c3f0 f i ConvexHullLib.obj
 0001:0002b430       ??0ConvexHull@physx@@QEAA@AEBVPxVec3@1@0AEBV?$Array@VPxPlane@physx@@VNamedAllocator@shdfnd@2@@shdfnd@1@@Z 000000018002c430 f   ConvexHullUtils.obj
 0001:0002bce0       ??0ConvexHull@physx@@QEAA@AEBVPxVec3@1@AEBVPxTransform@1@AEBV?$Array@VPxPlane@physx@@VNamedAllocator@shdfnd@2@@shdfnd@1@@Z 000000018002cce0 f   ConvexHullUtils.obj
 0001:0002c710       ?findCandidatePlane@ConvexHull@physx@@QEBAHMM@Z 000000018002d710 f   ConvexHullUtils.obj
 0001:0002cb10       ?assertIntact@ConvexHull@physx@@QEBA_NM@Z 000000018002db10 f   ConvexHullUtils.obj
 0001:0002d310       ?maxNumVertsPerFace@ConvexHull@physx@@QEBAIXZ 000000018002e310 f   ConvexHullUtils.obj
 0001:0002d3e0       ?convexHullCrop@physx@@YAPEAVConvexHull@1@AEBV21@AEBVPxPlane@1@M@Z 000000018002e3e0 f   ConvexHullUtils.obj
 0001:0002ea50       ?computeOBBFromConvex@physx@@YA_NAEBVPxConvexMeshDesc@1@AEAVPxVec3@1@AEAVPxTransform@1@@Z 000000018002fa50 f   ConvexHullUtils.obj
 0001:0002f390       ?computeOBBSIMD@local@@YAXIPEBT__m128@@AEAT2@AEBT2@1@Z 0000000180030390 f   ConvexHullUtils.obj
 0001:0002f9f0       ??$?2V?$ReflectionAllocator@VConvexHull@physx@@@shdfnd@physx@@@UserAllocated@shdfnd@physx@@SAPEAX_KV?$ReflectionAllocator@VConvexHull@physx@@@12@PEBDH@Z 00000001800309f0 f i ConvexHullUtils.obj
 0001:0002fa30       ??0?$Array@VHalfEdge@ConvexHull@physx@@VNamedAllocator@shdfnd@3@@shdfnd@physx@@QEAA@AEBVNamedAllocator@12@@Z 0000000180030a30 f i ConvexHullUtils.obj
 0001:0002fa80       ??0?$Array@VPxPlane@physx@@VNamedAllocator@shdfnd@2@@shdfnd@physx@@QEAA@AEBVNamedAllocator@12@@Z 0000000180030a80 f i ConvexHullUtils.obj
 0001:0002fad0       ??0?$ReflectionAllocator@VConvexHull@physx@@@shdfnd@physx@@QEAA@PEBD@Z 0000000180030ad0 f i ConvexHullUtils.obj
 0001:0002fae0       ??0Box@Gu@physx@@QEAA@AEBV012@@Z 0000000180030ae0 f i ConvexHullUtils.obj
 0001:0002fb40       ??0Box@Gu@physx@@QEAA@AEBVPxVec3@2@0AEBVPxMat33@2@@Z 0000000180030b40 f i ConvexHullUtils.obj
 0001:0002fba0       ??0Box@Gu@physx@@QEAA@XZ   0000000180030ba0 f i ConvexHullUtils.obj
 0001:0002fbf0       ??0ConvexHull@physx@@QEAA@AEBV01@@Z 0000000180030bf0 f i ConvexHullUtils.obj
 0001:0002fca0       ??0ConvexHull@physx@@QEAA@AEBV?$Array@VPxPlane@physx@@VNamedAllocator@shdfnd@2@@shdfnd@1@@Z 0000000180030ca0 f i ConvexHullUtils.obj
 0001:0002fd40       ??0HalfEdge@ConvexHull@physx@@QEAA@FEE@Z 0000000180030d40 f i ConvexHullUtils.obj
 0001:0002fd90       ??0HalfEdge@ConvexHull@physx@@QEAA@XZ 0000000180030d90 f i ConvexHullUtils.obj
 0001:0002fda0       ??0Mat33V@aos@shdfnd@physx@@QEAA@XZ 0000000180030da0 f i ConvexHullUtils.obj
 0001:0002fdb0       ??0PxBoundedData@physx@@QEAA@XZ 0000000180030db0 f i ConvexHullUtils.obj
 0001:0002fde0       ??0PxConvexMeshDesc@physx@@QEAA@XZ 0000000180030de0 f i ConvexHullUtils.obj
 0001:0002fe50       ??0PxIntegrals@physx@@QEAA@XZ 0000000180030e50 f i ConvexHullUtils.obj
 0001:0002fe70       ??0PxMat33@physx@@QEAA@AEBV01@@Z 0000000180030e70 f i ConvexHullUtils.obj
 0001:0002fed0       ??0PxMat33@physx@@QEAA@AEBVPxQuat@1@@Z 0000000180030ed0 f i ConvexHullUtils.obj
 0001:00030170       ??0PxMat33@physx@@QEAA@AEBVPxVec3@1@00@Z 0000000180031170 f i ConvexHullUtils.obj
 0001:000301d0       ??0PxMat33@physx@@QEAA@W4PxIDENTITY@1@@Z 00000001800311d0 f i ConvexHullUtils.obj
 0001:00030250       ??0PxPlane@physx@@QEAA@AEBVPxVec3@1@M@Z 0000000180031250 f i ConvexHullUtils.obj
 0001:00030290       ??0PxPlane@physx@@QEAA@XZ  0000000180031290 f i ConvexHullUtils.obj
 0001:000302b0       ??0PxQuat@physx@@QEAA@AEBV01@@Z 00000001800312b0 f i ConvexHullUtils.obj
 0001:00030310       ??0PxQuat@physx@@QEAA@AEBVPxMat33@1@@Z 0000000180031310 f i ConvexHullUtils.obj
 0001:00030760       ??0PxQuat@physx@@QEAA@MAEBVPxVec3@1@@Z 0000000180031760 f i ConvexHullUtils.obj
 0001:00030850       ??0PxQuat@physx@@QEAA@MMMM@Z 0000000180031850 f i ConvexHullUtils.obj
 0001:000308b0       ??0PxQuat@physx@@QEAA@XZ   00000001800318b0 f i ConvexHullUtils.obj
 0001:000308c0       ??0PxStridedData@physx@@QEAA@XZ 00000001800318c0 f i ConvexHullUtils.obj
 0001:000308f0       ??0PxTransform@physx@@QEAA@AEBVPxVec3@1@AEBVPxQuat@1@@Z 00000001800318f0 f i ConvexHullUtils.obj
 0001:00030970       ??1Box@Gu@physx@@QEAA@XZ   0000000180031970 f i ConvexHullUtils.obj
 0001:00030980       ??4Box@Gu@physx@@QEAAAEBV012@AEBV012@@Z 0000000180031980 f i ConvexHullUtils.obj
 0001:000309e0       ??4PxMat33@physx@@QEAAAEAV01@AEBV01@@Z 00000001800319e0 f i ConvexHullUtils.obj
 0001:00030a40       ??4PxPlane@physx@@QEAAAEAV01@AEBV01@@Z 0000000180031a40 f i ConvexHullUtils.obj
 0001:00030a80       ??4PxQuat@physx@@QEAAAEAV01@AEBV01@@Z 0000000180031a80 f i ConvexHullUtils.obj
 0001:00030ae0       ??8PxPlane@physx@@QEBA_NAEBV01@@Z 0000000180031ae0 f i ConvexHullUtils.obj
 0001:00030b40       ??8PxVec3@physx@@QEBA_NAEBV01@@Z 0000000180031b40 f i ConvexHullUtils.obj
 0001:00030bb0       ??A?$Array@VHalfEdge@ConvexHull@physx@@VNamedAllocator@shdfnd@3@@shdfnd@physx@@QEAAAEAVHalfEdge@ConvexHull@2@I@Z 0000000180031bb0 f i ConvexHullUtils.obj
 0001:00030c30       ??A?$Array@VHalfEdge@ConvexHull@physx@@VNamedAllocator@shdfnd@3@@shdfnd@physx@@QEBAAEBVHalfEdge@ConvexHull@2@I@Z 0000000180031c30 f i ConvexHullUtils.obj
 0001:00030cb0       ??A?$Array@VPxPlane@physx@@VNamedAllocator@shdfnd@2@@shdfnd@physx@@QEBAAEBVPxPlane@2@I@Z 0000000180031cb0 f i ConvexHullUtils.obj
 0001:00030d30       ??A?$Array@VPxVec3@physx@@VNamedAllocator@shdfnd@2@@shdfnd@physx@@QEBAAEBVPxVec3@2@I@Z 0000000180031d30 f i ConvexHullUtils.obj
 0001:00030db0       ??APxMat33@physx@@QEAAAEAVPxVec3@1@I@Z 0000000180031db0 f i ConvexHullUtils.obj
 0001:00030dd0       ??APxMat33@physx@@QEBAAEBVPxVec3@1@I@Z 0000000180031dd0 f i ConvexHullUtils.obj
 0001:00030df0       ??DPxMat33@physx@@QEBA?BVPxVec3@1@AEBV21@@Z 0000000180031df0 f i ConvexHullUtils.obj
 0001:00030e30       ??DPxQuat@physx@@QEBA?AV01@M@Z 0000000180031e30 f i ConvexHullUtils.obj
 0001:00030eb0       ??GPxVec3@physx@@QEBA?AV01@XZ 0000000180031eb0 f i ConvexHullUtils.obj
 0001:00030f20       ??RPxMat33@physx@@QEAAAEAMII@Z 0000000180031f20 f i ConvexHullUtils.obj
 0001:00030f60       ?FAdd@aos@shdfnd@physx@@YA?AT__m128@@T4@0@Z 0000000180031f60 f i ConvexHullUtils.obj
 0001:00031070       ?FMul@aos@shdfnd@physx@@YA?AT__m128@@T4@0@Z 0000000180032070 f i ConvexHullUtils.obj
 0001:00031180       ?FScaleAdd@aos@shdfnd@physx@@YA?AT__m128@@T4@00@Z 0000000180032180 f i ConvexHullUtils.obj
 0001:00031370       ?PxCos@physx@@YAMM@Z       0000000180032370 f i ConvexHullUtils.obj
 0001:00031390       ?PxSin@physx@@YAMM@Z       0000000180032390 f i ConvexHullUtils.obj
 0001:000313b0       ?QuatGetMat33V@aos@shdfnd@physx@@YAXAEBT__m128@@AEAT4@11@Z 00000001800323b0 f i ConvexHullUtils.obj
 0001:00031760       ?QuatRotateInv@aos@shdfnd@physx@@YA?AT__m128@@T4@0@Z 0000000180032760 f i ConvexHullUtils.obj
 0001:00031a40       ?QuatVLoadU@aos@shdfnd@physx@@YA?AT__m128@@PEBM@Z 0000000180032a40 f i ConvexHullUtils.obj
 0001:00031a70       ?V3Cross@aos@shdfnd@physx@@YA?AT__m128@@T4@0@Z 0000000180032a70 f i ConvexHullUtils.obj
 0001:00031c60       ?V3NegScaleSub@aos@shdfnd@physx@@YA?AT__m128@@T4@00@Z 0000000180032c60 f i ConvexHullUtils.obj
 0001:00031e50       ?V3Scale@aos@shdfnd@physx@@YA?AT__m128@@T4@0@Z 0000000180032e50 f i ConvexHullUtils.obj
 0001:00031f60       ?V3ScaleAdd@aos@shdfnd@physx@@YA?AT__m128@@T4@00@Z 0000000180032f60 f i ConvexHullUtils.obj
 0001:00032150       ?V4GetW@aos@shdfnd@physx@@YA?AT__m128@@T4@@Z 0000000180033150 f i ConvexHullUtils.obj
 0001:00032180       ?V4GetX@aos@shdfnd@physx@@YA?AT__m128@@T4@@Z 0000000180033180 f i ConvexHullUtils.obj
 0001:000321b0       ?V4GetY@aos@shdfnd@physx@@YA?AT__m128@@T4@@Z 00000001800331b0 f i ConvexHullUtils.obj
 0001:000321e0       ?V4GetZ@aos@shdfnd@physx@@YA?AT__m128@@T4@@Z 00000001800331e0 f i ConvexHullUtils.obj
 0001:00032210       ?V4Max@aos@shdfnd@physx@@YA?AT__m128@@T4@0@Z 0000000180033210 f i ConvexHullUtils.obj
 0001:00032240       ?V4Min@aos@shdfnd@physx@@YA?AT__m128@@T4@0@Z 0000000180033240 f i ConvexHullUtils.obj
 0001:00032270       ?V4Mul@aos@shdfnd@physx@@YA?AT__m128@@T4@0@Z 0000000180033270 f i ConvexHullUtils.obj
 0001:000322a0       ?V4MulAdd@aos@shdfnd@physx@@YA?AT__m128@@T4@00@Z 00000001800332a0 f i ConvexHullUtils.obj
 0001:00032330       ?V4Neg@aos@shdfnd@physx@@YA?AT__m128@@T4@@Z 0000000180033330 f i ConvexHullUtils.obj
 0001:00032360       ?Vec4V_From_Vec3V@aos@shdfnd@physx@@YA?AT__m128@@T4@@Z 0000000180033360 f i ConvexHullUtils.obj
 0001:00032370       ?allocate@?$Array@VHalfEdge@ConvexHull@physx@@VNamedAllocator@shdfnd@3@@shdfnd@physx@@IEAAPEAVHalfEdge@ConvexHull@3@I@Z 0000000180033370 f i ConvexHullUtils.obj
 0001:00032400       ?allocate@?$Array@VPxPlane@physx@@VNamedAllocator@shdfnd@2@@shdfnd@physx@@IEAAPEAVPxPlane@3@I@Z 0000000180033400 f i ConvexHullUtils.obj
 0001:00032490       ?allocate@?$ReflectionAllocator@VConvexHull@physx@@@shdfnd@physx@@QEAAPEAX_KPEBDH@Z 0000000180033490 f i ConvexHullUtils.obj
 0001:00032510       ?begin@?$Array@VHalfEdge@ConvexHull@physx@@VNamedAllocator@shdfnd@3@@shdfnd@physx@@QEAAPEAVHalfEdge@ConvexHull@3@XZ 0000000180033510 f i ConvexHullUtils.obj
 0001:00032520       ?begin@?$Array@VHalfEdge@ConvexHull@physx@@VNamedAllocator@shdfnd@3@@shdfnd@physx@@QEBAPEBVHalfEdge@ConvexHull@3@XZ 0000000180033520 f i ConvexHullUtils.obj
 0001:00032530       ?begin@?$Array@VPxPlane@physx@@VNamedAllocator@shdfnd@2@@shdfnd@physx@@QEAAPEAVPxPlane@3@XZ 0000000180033530 f i ConvexHullUtils.obj
 0001:00032540       ?begin@?$Array@VPxPlane@physx@@VNamedAllocator@shdfnd@2@@shdfnd@physx@@QEBAPEBVPxPlane@3@XZ 0000000180033540 f i ConvexHullUtils.obj
 0001:00032550       ?begin@?$Array@VPxVec3@physx@@VNamedAllocator@shdfnd@2@@shdfnd@physx@@QEBAPEBVPxVec3@3@XZ 0000000180033550 f i ConvexHullUtils.obj
 0001:00032560       ?capacity@?$Array@VHalfEdge@ConvexHull@physx@@VNamedAllocator@shdfnd@3@@shdfnd@physx@@QEBAIXZ 0000000180033560 f i ConvexHullUtils.obj
 0001:00032580       ?capacity@?$Array@VPxPlane@physx@@VNamedAllocator@shdfnd@2@@shdfnd@physx@@QEBAIXZ 0000000180033580 f i ConvexHullUtils.obj
 0001:000325a0       ?capacityIncrement@?$Array@VHalfEdge@ConvexHull@physx@@VNamedAllocator@shdfnd@3@@shdfnd@physx@@IEBAIXZ 00000001800335a0 f i ConvexHullUtils.obj
 0001:000325e0       ?capacityIncrement@?$Array@VPxPlane@physx@@VNamedAllocator@shdfnd@2@@shdfnd@physx@@IEBAIXZ 00000001800335e0 f i ConvexHullUtils.obj
 0001:00032620       ?computeAABBExtent@Box@Gu@physx@@QEBA?AVPxVec3@3@XZ 0000000180033620 f i ConvexHullUtils.obj
 0001:000328a0       ?computeBoxPoints@Box@Gu@physx@@QEBAXPEIAVPxVec3@3@@Z 00000001800338a0 f i ConvexHullUtils.obj
 0001:00032900       ?copy@?$Array@VHalfEdge@ConvexHull@physx@@VNamedAllocator@shdfnd@3@@shdfnd@physx@@KAXPEAVHalfEdge@ConvexHull@3@0PEBV453@@Z 0000000180033900 f i ConvexHullUtils.obj
 0001:00032980       ?copy@?$Array@VPxPlane@physx@@VNamedAllocator@shdfnd@2@@shdfnd@physx@@KAXPEAVPxPlane@3@0PEBV43@@Z 0000000180033980 f i ConvexHullUtils.obj
 0001:00032a00       ?copyHull@ConvexHull@physx@@QEAAXAEBV12@@Z 0000000180033a00 f i ConvexHullUtils.obj
 0001:00032c00       ?cos@intrinsics@physx@@YAMM@Z 0000000180033c00 f i ConvexHullUtils.obj
 0001:00032c20       ?create@?$Array@VHalfEdge@ConvexHull@physx@@VNamedAllocator@shdfnd@3@@shdfnd@physx@@KAXPEAVHalfEdge@ConvexHull@3@0AEBV453@@Z 0000000180033c20 f i ConvexHullUtils.obj
 0001:00032c80       ?create@?$Array@VPxPlane@physx@@VNamedAllocator@shdfnd@2@@shdfnd@physx@@KAXPEAVPxPlane@3@0AEBV43@@Z 0000000180033c80 f i ConvexHullUtils.obj
 0001:00032ce0       ?create@?$Array@VPxVec3@physx@@VNamedAllocator@shdfnd@2@@shdfnd@physx@@KAXPEAVPxVec3@3@0AEBV43@@Z 0000000180033ce0 f i ConvexHullUtils.obj
 0001:00032d40       ?deallocate@?$Array@VHalfEdge@ConvexHull@physx@@VNamedAllocator@shdfnd@3@@shdfnd@physx@@IEAAXPEAX@Z 0000000180033d40 f i ConvexHullUtils.obj
 0001:00032d70       ?deallocate@?$Array@VPxPlane@physx@@VNamedAllocator@shdfnd@2@@shdfnd@physx@@IEAAXPEAX@Z 0000000180033d70 f i ConvexHullUtils.obj
 0001:00032da0       ?degToRad@shdfnd@physx@@YAMM@Z 0000000180033da0 f i ConvexHullUtils.obj
 0001:00032dc0       ?destroy@?$Array@VHalfEdge@ConvexHull@physx@@VNamedAllocator@shdfnd@3@@shdfnd@physx@@KAXPEAVHalfEdge@ConvexHull@3@0@Z 0000000180033dc0 f i ConvexHullUtils.obj
 0001:00032df0       ?destroy@?$Array@VPxPlane@physx@@VNamedAllocator@shdfnd@2@@shdfnd@physx@@KAXPEAVPxPlane@3@0@Z 0000000180033df0 f i ConvexHullUtils.obj
 0001:00032e20       ?getDeterminant@PxMat33@physx@@QEBAMXZ 0000000180033e20 f i ConvexHullUtils.obj
 0001:00032e60       ?getEdges@ConvexHull@physx@@QEAAAEAV?$Array@VHalfEdge@ConvexHull@physx@@VNamedAllocator@shdfnd@3@@shdfnd@2@XZ 0000000180033e60 f i ConvexHullUtils.obj
 0001:00032e70       ?getEdges@ConvexHull@physx@@QEBAAEBV?$Array@VHalfEdge@ConvexHull@physx@@VNamedAllocator@shdfnd@3@@shdfnd@2@XZ 0000000180033e70 f i ConvexHullUtils.obj
 0001:00032e80       ?getFacets@ConvexHull@physx@@QEAAAEAV?$Array@VPxPlane@physx@@VNamedAllocator@shdfnd@2@@shdfnd@2@XZ 0000000180033e80 f i ConvexHullUtils.obj
 0001:00032e90       ?getFacets@ConvexHull@physx@@QEBAAEBV?$Array@VPxPlane@physx@@VNamedAllocator@shdfnd@2@@shdfnd@2@XZ 0000000180033e90 f i ConvexHullUtils.obj
 0001:00032ea0       ?getInputPlanes@ConvexHull@physx@@QEBAAEBV?$Array@VPxPlane@physx@@VNamedAllocator@shdfnd@2@@shdfnd@2@XZ 0000000180033ea0 f i ConvexHullUtils.obj
 0001:00032eb0       ?getInverse@PxMat33@physx@@QEBA?BV12@XZ 0000000180033eb0 f i ConvexHullUtils.obj
 0001:00033180       ?getName@?$ReflectionAllocator@VConvexHull@physx@@@shdfnd@physx@@CAPEBDXZ 0000000180034180 f i ConvexHullUtils.obj
 0001:000331c0       ?getOriginInertia@PxIntegrals@physx@@QEAAXAEAVPxMat33@2@@Z 00000001800341c0 f i ConvexHullUtils.obj
 0001:00033250       ?getTransform@Box@Gu@physx@@QEBA?AVPxTransform@3@XZ 0000000180034250 f i ConvexHullUtils.obj
 0001:000332a0       ?getTranspose@PxMat33@physx@@QEBA?BV12@XZ 00000001800342a0 f i ConvexHullUtils.obj
 0001:00033350       ?getVertices@ConvexHull@physx@@QEAAAEAV?$Array@VPxVec3@physx@@VNamedAllocator@shdfnd@2@@shdfnd@2@XZ 0000000180034350 f i ConvexHullUtils.obj
 0001:00033360       ?getVertices@ConvexHull@physx@@QEBAAEBV?$Array@VPxVec3@physx@@VNamedAllocator@shdfnd@2@@shdfnd@2@XZ 0000000180034360 f i ConvexHullUtils.obj
 0001:00033370       ?grow@?$Array@VHalfEdge@ConvexHull@physx@@VNamedAllocator@shdfnd@3@@shdfnd@physx@@IEAAXI@Z 0000000180034370 f i ConvexHullUtils.obj
 0001:000333f0       ?grow@?$Array@VPxPlane@physx@@VNamedAllocator@shdfnd@2@@shdfnd@physx@@IEAAXI@Z 00000001800343f0 f i ConvexHullUtils.obj
 0001:00033470       ?growAndPushBack@?$Array@VHalfEdge@ConvexHull@physx@@VNamedAllocator@shdfnd@3@@shdfnd@physx@@IEAAAEAVHalfEdge@ConvexHull@3@AEBV453@@Z 0000000180034470 f i ConvexHullUtils.obj
 0001:000335f0       ?growAndPushBack@?$Array@VPxPlane@physx@@VNamedAllocator@shdfnd@2@@shdfnd@physx@@IEAAAEAVPxPlane@3@AEBV43@@Z 00000001800345f0 f i ConvexHullUtils.obj
 0001:00033780       ?isFinite@PxQuat@physx@@QEBA_NXZ 0000000180034780 f i ConvexHullUtils.obj
 0001:00033800       ?isInUserMemory@?$Array@VHalfEdge@ConvexHull@physx@@VNamedAllocator@shdfnd@3@@shdfnd@physx@@QEBAIXZ 0000000180034800 f i ConvexHullUtils.obj
 0001:00033820       ?isInUserMemory@?$Array@VPxPlane@physx@@VNamedAllocator@shdfnd@2@@shdfnd@physx@@QEBAIXZ 0000000180034820 f i ConvexHullUtils.obj
 0001:00033840       ?isSane@PxQuat@physx@@QEBA_NXZ 0000000180034840 f i ConvexHullUtils.obj
 0001:000338b0       ?isValid@Box@Gu@physx@@QEBA_NXZ 00000001800348b0 f i ConvexHullUtils.obj
 0001:000338f0       ?magnitude@PxQuat@physx@@QEBAMXZ 00000001800348f0 f i ConvexHullUtils.obj
 0001:00033910       ?magnitudeSquared@PxQuat@physx@@QEBAMXZ 0000000180034910 f i ConvexHullUtils.obj
 0001:00033970       ?pushBack@?$Array@VHalfEdge@ConvexHull@physx@@VNamedAllocator@shdfnd@3@@shdfnd@physx@@QEAAAEAVHalfEdge@ConvexHull@3@AEBV453@@Z 0000000180034970 f i ConvexHullUtils.obj
 0001:00033a10       ?pushBack@?$Array@VPxPlane@physx@@VNamedAllocator@shdfnd@2@@shdfnd@physx@@QEAAAEAVPxPlane@3@AEBV43@@Z 0000000180034a10 f i ConvexHullUtils.obj
 0001:00033ab0       ?recreate@?$Array@VHalfEdge@ConvexHull@physx@@VNamedAllocator@shdfnd@3@@shdfnd@physx@@IEAAXI@Z 0000000180034ab0 f i ConvexHullUtils.obj
 0001:00033bc0       ?recreate@?$Array@VPxPlane@physx@@VNamedAllocator@shdfnd@2@@shdfnd@physx@@IEAAXI@Z 0000000180034bc0 f i ConvexHullUtils.obj
 0001:00033ce0       ?reserve@?$Array@VHalfEdge@ConvexHull@physx@@VNamedAllocator@shdfnd@3@@shdfnd@physx@@QEAAXI@Z 0000000180034ce0 f i ConvexHullUtils.obj
 0001:00033d10       ?reserve@?$Array@VPxPlane@physx@@VNamedAllocator@shdfnd@2@@shdfnd@physx@@QEAAXI@Z 0000000180034d10 f i ConvexHullUtils.obj
 0001:00033d40       ?resize@?$Array@VHalfEdge@ConvexHull@physx@@VNamedAllocator@shdfnd@3@@shdfnd@physx@@QEAAXIAEBVHalfEdge@ConvexHull@3@@Z 0000000180034d40 f i ConvexHullUtils.obj
 0001:00033dd0       ?resize@?$Array@VPxPlane@physx@@VNamedAllocator@shdfnd@2@@shdfnd@physx@@QEAAXIAEBVPxPlane@3@@Z 0000000180034dd0 f i ConvexHullUtils.obj
 0001:00033e60       ?resize@?$Array@VPxVec3@physx@@VNamedAllocator@shdfnd@2@@shdfnd@physx@@QEAAXIAEBVPxVec3@3@@Z 0000000180034e60 f i ConvexHullUtils.obj
 0001:00033ef0       ?rotate@Box@Gu@physx@@QEBA?AVPxVec3@3@AEBV43@@Z 0000000180034ef0 f i ConvexHullUtils.obj
 0001:00033f30       ?rotateInv@Box@Gu@physx@@QEBA?AVPxVec3@3@AEBV43@@Z 0000000180034f30 f i ConvexHullUtils.obj
 0001:00033f70       ?setAxes@Box@Gu@physx@@QEAAXAEBVPxVec3@3@00@Z 0000000180034f70 f i ConvexHullUtils.obj
 0001:00033fd0       ?setEmpty@Box@Gu@physx@@QEAAXXZ 0000000180034fd0 f i ConvexHullUtils.obj
 0001:00034050       ?sin@intrinsics@physx@@YAMM@Z 0000000180035050 f i ConvexHullUtils.obj
 0001:00034070       ?size@?$Array@VHalfEdge@ConvexHull@physx@@VNamedAllocator@shdfnd@3@@shdfnd@physx@@QEBAIXZ 0000000180035070 f i ConvexHullUtils.obj
 0001:00034080       ?size@?$Array@VPxPlane@physx@@VNamedAllocator@shdfnd@2@@shdfnd@physx@@QEBAIXZ 0000000180035080 f i ConvexHullUtils.obj
 0001:00034090       ?threePlaneIntersection@physx@@YA?AVPxVec3@1@AEBVPxPlane@1@00@Z 0000000180035090 f i ConvexHullUtils.obj
 0001:00034160       ?to8@shdfnd@physx@@YAEG@Z  0000000180035160 f i ConvexHullUtils.obj
 0001:000341d0       ?transform@Box@Gu@physx@@QEBA?AVPxVec3@3@AEBV43@@Z 00000001800351d0 f i ConvexHullUtils.obj
 0001:00034230       ?transform@PxMat33@physx@@QEBA?BVPxVec3@2@AEBV32@@Z 0000000180035230 f i ConvexHullUtils.obj
 0001:000342e0       ?transformTranspose@PxMat33@physx@@QEBA?BVPxVec3@2@AEBV32@@Z 00000001800352e0 f i ConvexHullUtils.obj
 0001:00034420       ??0ConvexMeshBuilder@physx@@QEAA@_N@Z 0000000180035420 f   ConvexMeshBuilder.obj
 0001:000344a0       ??1ConvexMeshBuilder@physx@@QEAA@XZ 00000001800354a0 f   ConvexMeshBuilder.obj
 0001:00034520       ?build@ConvexMeshBuilder@physx@@QEAA_NAEBVPxConvexMeshDesc@2@I_NPEAVConvexHullLib@2@@Z 0000000180035520 f   ConvexMeshBuilder.obj
 0001:00034640       ?save@ConvexMeshBuilder@physx@@QEBA_NAEAVPxOutputStream@2@_N@Z 0000000180035640 f   ConvexMeshBuilder.obj
 0001:00034980       ?copy@ConvexMeshBuilder@physx@@QEAA_NAEAUConvexHullInitData@Gu@2@@Z 0000000180035980 f   ConvexMeshBuilder.obj
 0001:00034b30       ?loadConvexHull@ConvexMeshBuilder@physx@@QEAA_NAEBVPxConvexMeshDesc@2@PEAVConvexHullLib@2@@Z 0000000180035b30 f   ConvexMeshBuilder.obj
 0001:00034f60       ?computeHullPolygons@ConvexMeshBuilder@physx@@QEAA_NAEBIPEBVPxVec3@2@0PEBIAEAVPxAllocatorCallback@2@AEAIAEAPEAV32@4AEAPEAI4AEAPEAUPxHullPolygon@2@@Z 0000000180035f60 f   ConvexMeshBuilder.obj
 0001:000353a0       ?computeGaussMaps@ConvexMeshBuilder@physx@@QEAA_NXZ 00000001800363a0 f   ConvexMeshBuilder.obj
 0001:000354f0       ?computeMassInfo@ConvexMeshBuilder@physx@@QEAAX_N@Z 00000001800364f0 f   ConvexMeshBuilder.obj
 0001:00035840       ?computeInternalObjects@ConvexMeshBuilder@physx@@QEAAXXZ 0000000180036840 f   ConvexMeshBuilder.obj
 0001:00036140       ??0?$ReflectionAllocator@VBigConvexData@physx@@@shdfnd@physx@@QEAA@PEBD@Z 0000000180037140 f i ConvexMeshBuilder.obj
 0001:00036150       ??0CenterExtents@Gu@physx@@QEAA@AEBVPxBounds3@2@@Z 0000000180037150 f i ConvexMeshBuilder.obj
 0001:000361d0       ??GPxMat33@physx@@QEBA?BV01@XZ 00000001800371d0 f i ConvexMeshBuilder.obj
 0001:00036250       ??_GBigConvexData@physx@@QEAAPEAXI@Z 0000000180037250 f i ConvexMeshBuilder.obj
 0001:000362b0       ?allocate@?$ReflectionAllocator@VBigConvexData@physx@@@shdfnd@physx@@QEAAPEAX_KPEBDH@Z 00000001800372b0 f i ConvexMeshBuilder.obj
 0001:00036330       ?getExtents@PxBounds3@physx@@QEBA?AVPxVec3@2@XZ 0000000180037330 f i ConvexMeshBuilder.obj
 0001:000363a0       ?getMax@CenterExtents@Gu@physx@@QEBA?AVPxVec3@3@XZ 00000001800373a0 f i ConvexMeshBuilder.obj
 0001:000363e0       ?getMin@CenterExtents@Gu@physx@@QEBA?AVPxVec3@3@XZ 00000001800373e0 f i ConvexMeshBuilder.obj
 0001:00036420       ?getName@?$ReflectionAllocator@VBigConvexData@physx@@@shdfnd@physx@@CAPEBDXZ 0000000180037420 f i ConvexMeshBuilder.obj
 0001:00036460       ?getNextIndex3@shdfnd@physx@@YAII@Z 0000000180037460 f i ConvexMeshBuilder.obj
 0001:00036480       ?largestAxis@shdfnd@physx@@YAIAEBVPxVec3@2@@Z 0000000180037480 f i ConvexMeshBuilder.obj
 0001:000364f0       ??0ConvexPolygonsBuilder@physx@@QEAA@PEAUConvexHullData@Gu@1@_N@Z 00000001800374f0 f   ConvexPolygonsBuilder.obj
 0001:00036550       ??1ConvexPolygonsBuilder@physx@@QEAA@XZ 0000000180037550 f   ConvexPolygonsBuilder.obj
 0001:000365a0       ?computeHullPolygons@ConvexPolygonsBuilder@physx@@QEAA_NAEBIPEBVPxVec3@2@0PEBI@Z 00000001800375a0 f   ConvexPolygonsBuilder.obj
 0001:00036b10       ?createPolygonData@ConvexPolygonsBuilder@physx@@AEAA_NXZ 0000000180037b10 f   ConvexPolygonsBuilder.obj
 0001:00037a50       ?createTrianglesFromPolygons@ConvexPolygonsBuilder@physx@@AEAA_NXZ 0000000180038a50 f   ConvexPolygonsBuilder.obj
 0001:0003aa00       ??$?4VNamedAllocator@shdfnd@physx@@@?$Array@IVNamedAllocator@shdfnd@physx@@@shdfnd@physx@@QEAAAEAV012@AEBV012@@Z 000000018003ba00 f i ConvexPolygonsBuilder.obj
 0001:0003aa90       ??$?_UUHullTriangleData@physx@@@@YAPEAX_KV?$ReflectionAllocator@UHullTriangleData@physx@@@shdfnd@physx@@PEBDH@Z 000000018003ba90 f i ConvexPolygonsBuilder.obj
 0001:0003aad0       ??$PlaneEquation@U?$TriangleT@I@Gu@physx@@@@YA?AVPxPlane@physx@@AEBU?$TriangleT@I@Gu@1@PEBVPxVec3@1@@Z 000000018003bad0 f i ConvexPolygonsBuilder.obj
 0001:0003ab80       ??$copy@VNamedAllocator@shdfnd@physx@@@?$Array@VPair@@VNamedAllocator@shdfnd@physx@@@shdfnd@physx@@IEAAXAEBV012@@Z 000000018003bb80 f i ConvexPolygonsBuilder.obj
 0001:0003ac40       ??$swap@E@shdfnd@physx@@YAXAEAE0@Z 000000018003bc40 f i ConvexPolygonsBuilder.obj
 0001:0003ac80       ??0?$Array@VPair@@VNamedAllocator@shdfnd@physx@@@shdfnd@physx@@QEAA@AEBV012@AEBVNamedAllocator@12@@Z 000000018003bc80 f i ConvexPolygonsBuilder.obj
 0001:0003acc0       ??0?$Array@VPair@@VNamedAllocator@shdfnd@physx@@@shdfnd@physx@@QEAA@AEBVNamedAllocator@12@@Z 000000018003bcc0 f i ConvexPolygonsBuilder.obj
 0001:0003ad10       ??0?$ReflectionAllocator@UHullTriangleData@physx@@@shdfnd@physx@@QEAA@PEBD@Z 000000018003bd10 f i ConvexPolygonsBuilder.obj
 0001:0003ad20       ??0ADJACENCIESCREATE@physx@@QEAA@XZ 000000018003bd20 f i ConvexPolygonsBuilder.obj
 0001:0003ad70       ??0Pair@@QEAA@II@Z         000000018003bd70 f i ConvexPolygonsBuilder.obj
 0001:0003ada0       ??1?$Array@VPair@@VNamedAllocator@shdfnd@physx@@@shdfnd@physx@@QEAA@XZ 000000018003bda0 f i ConvexPolygonsBuilder.obj
 0001:0003ae10       ??1Pair@@QEAA@XZ           000000018003be10 f i ConvexPolygonsBuilder.obj
 0001:0003ae20       ??4?$Array@IVNamedAllocator@shdfnd@physx@@@shdfnd@physx@@QEAAAEAV012@AEBV012@@Z 000000018003be20 f i ConvexPolygonsBuilder.obj
 0001:0003ae50       ??A?$Array@VPair@@VNamedAllocator@shdfnd@physx@@@shdfnd@physx@@QEAAAEAVPair@@I@Z 000000018003be50 f i ConvexPolygonsBuilder.obj
 0001:0003aed0       ??_GPair@@QEAAPEAXI@Z      000000018003bed0 f i ConvexPolygonsBuilder.obj
 0001:0003af30       ?GetAdjTri@AdjTriangle@physx@@QEBAIW4SharedEdgeIndex@2@@Z 000000018003bf30 f i ConvexPolygonsBuilder.obj
 0001:0003af50       ?HasActiveEdge@AdjTriangle@physx@@QEBAHI@Z 000000018003bf50 f i ConvexPolygonsBuilder.obj
 0001:0003af70       ?allocate@?$Array@VPair@@VNamedAllocator@shdfnd@physx@@@shdfnd@physx@@IEAAPEAVPair@@I@Z 000000018003bf70 f i ConvexPolygonsBuilder.obj
 0001:0003b000       ?allocate@?$ReflectionAllocator@UHullTriangleData@physx@@@shdfnd@physx@@QEAAPEAX_KPEBDH@Z 000000018003c000 f i ConvexPolygonsBuilder.obj
 0001:0003b080       ?begin@?$Array@VPair@@VNamedAllocator@shdfnd@physx@@@shdfnd@physx@@QEAAPEAVPair@@XZ 000000018003c080 f i ConvexPolygonsBuilder.obj
 0001:0003b090       ?begin@?$Array@VPair@@VNamedAllocator@shdfnd@physx@@@shdfnd@physx@@QEBAPEBVPair@@XZ 000000018003c090 f i ConvexPolygonsBuilder.obj
 0001:0003b0a0       ?capacity@?$Array@VPair@@VNamedAllocator@shdfnd@physx@@@shdfnd@physx@@QEBAIXZ 000000018003c0a0 f i ConvexPolygonsBuilder.obj
 0001:0003b0c0       ?capacityIncrement@?$Array@VPair@@VNamedAllocator@shdfnd@physx@@@shdfnd@physx@@IEBAIXZ 000000018003c0c0 f i ConvexPolygonsBuilder.obj
 0001:0003b100       ?clear@?$Array@IVNamedAllocator@shdfnd@physx@@@shdfnd@physx@@QEAAXXZ 000000018003c100 f i ConvexPolygonsBuilder.obj
 0001:0003b140       ?copy@?$Array@VPair@@VNamedAllocator@shdfnd@physx@@@shdfnd@physx@@KAXPEAVPair@@0PEBV4@@Z 000000018003c140 f i ConvexPolygonsBuilder.obj
 0001:0003b1c0       ?deallocate@?$Array@VPair@@VNamedAllocator@shdfnd@physx@@@shdfnd@physx@@IEAAXPEAX@Z 000000018003c1c0 f i ConvexPolygonsBuilder.obj
 0001:0003b1f0       ?destroy@?$Array@VPair@@VNamedAllocator@shdfnd@physx@@@shdfnd@physx@@KAXPEAVPair@@0@Z 000000018003c1f0 f i ConvexPolygonsBuilder.obj
 0001:0003b230       ?empty@?$Array@VPair@@VNamedAllocator@shdfnd@physx@@@shdfnd@physx@@QEBA_NXZ 000000018003c230 f i ConvexPolygonsBuilder.obj
 0001:0003b260       ?end@?$Array@IVNamedAllocator@shdfnd@physx@@@shdfnd@physx@@QEAAPEAIXZ 000000018003c260 f i ConvexPolygonsBuilder.obj
 0001:0003b280       ?find@?$Array@IVNamedAllocator@shdfnd@physx@@@shdfnd@physx@@QEAAPEAIAEBI@Z 000000018003c280 f i ConvexPolygonsBuilder.obj
 0001:0003b2e0       ?flip@?$TriangleT@I@Gu@physx@@QEAAXXZ 000000018003c2e0 f i ConvexPolygonsBuilder.obj
 0001:0003b320       ?forceSize_Unsafe@?$Array@IVNamedAllocator@shdfnd@physx@@@shdfnd@physx@@QEAAXI@Z 000000018003c320 f i ConvexPolygonsBuilder.obj
 0001:0003b3a0       ?getFaces@ConvexPolygonsBuilder@physx@@QEBAPEBUHullTriangleData@2@XZ 000000018003c3a0 f i ConvexPolygonsBuilder.obj
 0001:0003b3b0       ?getName@?$ReflectionAllocator@UHullTriangleData@physx@@@shdfnd@physx@@CAPEBDXZ 000000018003c3b0 f i ConvexPolygonsBuilder.obj
 0001:0003b3f0       ?getNbFaces@ConvexPolygonsBuilder@physx@@QEBAIXZ 000000018003c3f0 f i ConvexPolygonsBuilder.obj
 0001:0003b400       ?growAndPushBack@?$Array@VPair@@VNamedAllocator@shdfnd@physx@@@shdfnd@physx@@IEAAAEAVPair@@AEBV4@@Z 000000018003c400 f i ConvexPolygonsBuilder.obj
 0001:0003b5a0       ?isInUserMemory@?$Array@VPair@@VNamedAllocator@shdfnd@physx@@@shdfnd@physx@@QEBAIXZ 000000018003c5a0 f i ConvexPolygonsBuilder.obj
 0001:0003b5c0       ?pushBack@?$Array@VPair@@VNamedAllocator@shdfnd@physx@@@shdfnd@physx@@QEAAAEAVPair@@AEBV4@@Z 000000018003c5c0 f i ConvexPolygonsBuilder.obj
 0001:0003b680       ?remove@?$Array@IVNamedAllocator@shdfnd@physx@@@shdfnd@physx@@QEAAXI@Z 000000018003c680 f i ConvexPolygonsBuilder.obj
 0001:0003b760       ?remove@?$Array@VPair@@VNamedAllocator@shdfnd@physx@@@shdfnd@physx@@QEAAXI@Z 000000018003c760 f i ConvexPolygonsBuilder.obj
 0001:0003b880       ?size@?$Array@VPair@@VNamedAllocator@shdfnd@physx@@@shdfnd@physx@@QEBAIXZ 000000018003c880 f i ConvexPolygonsBuilder.obj
 0001:0003b910       ??0QuickHullConvexHullLib@physx@@QEAA@AEBVPxConvexMeshDesc@1@AEBUPxCookingParams@1@@Z 000000018003c910 f   QuickHullConvexHullLib.obj
 0001:0003ba10       ??1QuickHullConvexHullLib@physx@@UEAA@XZ 000000018003ca10 f   QuickHullConvexHullLib.obj
 0001:0003baf0       ?createConvexHull@QuickHullConvexHullLib@physx@@UEAA?AW4Enum@PxConvexMeshCookingResult@2@XZ 000000018003caf0 f   QuickHullConvexHullLib.obj
 0001:0003c090       ?fillConvexMeshDesc@QuickHullConvexHullLib@physx@@UEAAXAEAVPxConvexMeshDesc@2@@Z 000000018003d090 f   QuickHullConvexHullLib.obj
 0001:0003c120       ?createEdgeList@QuickHullConvexHullLib@physx@@UEAA_NIPEBEPEAPEAEPEAPEAG2@Z 000000018003d120 f   QuickHullConvexHullLib.obj
 0001:0003c670       ?expandHullOBB@QuickHullConvexHullLib@physx@@IEAA?AW4Enum@PxConvexMeshCookingResult@2@XZ 000000018003d670 f   QuickHullConvexHullLib.obj
 0001:0003cc40       ?expandHull@QuickHullConvexHullLib@physx@@IEAA?AW4Enum@PxConvexMeshCookingResult@2@XZ 000000018003dc40 f   QuickHullConvexHullLib.obj
 0001:0003d3d0       ?cleanupForSimplex@QuickHullConvexHullLib@physx@@IEAA_NPEAVPxVec3@2@IPEAUQuickHullVertex@local@@1AEAM2@Z 000000018003e3d0 f   QuickHullConvexHullLib.obj
 0001:0003de40       ?fillConvexMeshDescFromQuickHull@QuickHullConvexHullLib@physx@@IEAAXAEAVPxConvexMeshDesc@2@@Z 000000018003ee40 f   QuickHullConvexHullLib.obj
 0001:0003e620       ?fillConvexMeshDescFromCroppedHull@QuickHullConvexHullLib@physx@@IEAAXAEAVPxConvexMeshDesc@2@@Z 000000018003f620 f   QuickHullConvexHullLib.obj
 0001:0003ebb0       ?getOppositeFaceDistance@QuickHullHalfEdge@local@@QEBAMXZ 000000018003fbb0 f   QuickHullConvexHullLib.obj
 0001:0003ecb0       ?mergeAdjacentFace@QuickHullFace@local@@QEAA_NPEAUQuickHullHalfEdge@2@AEAV?$Array@PEAUQuickHullFace@local@@VNamedAllocator@shdfnd@physx@@@shdfnd@physx@@@Z 000000018003fcb0 f   QuickHullConvexHullLib.obj
 0001:0003ef30       ?checkFaceConsistency@QuickHullFace@local@@QEAA_NXZ 000000018003ff30 f   QuickHullConvexHullLib.obj
 0001:0003f1e0       ?connectHalfEdges@QuickHullFace@local@@AEAAPEAU12@PEAUQuickHullHalfEdge@2@0@Z 00000001800401e0 f   QuickHullConvexHullLib.obj
 0001:0003f360       ??0QuickHull@local@@QEAA@AEBUPxCookingParams@physx@@AEBVPxConvexMeshDesc@3@@Z 0000000180040360 f   QuickHullConvexHullLib.obj
 0001:0003f580       ??1QuickHull@local@@QEAA@XZ 0000000180040580 f   QuickHullConvexHullLib.obj
 0001:0003f630       ?preallocate@QuickHull@local@@QEAAXI@Z 0000000180040630 f   QuickHullConvexHullLib.obj
 0001:0003f7f0       ?parseInputVertices@QuickHull@local@@QEAAXPEBVPxVec3@physx@@I@Z 00000001800407f0 f   QuickHullConvexHullLib.obj
 0001:0003f930       ?releaseHull@QuickHull@local@@QEAAXXZ 0000000180040930 f   QuickHullConvexHullLib.obj
 0001:0003f990       ?setPrecomputedMinMax@QuickHull@local@@QEAAXPEBUQuickHullVertex@2@0MM@Z 0000000180040990 f   QuickHullConvexHullLib.obj
 0001:0003fa70       ?buildHull@QuickHull@local@@QEAA?AW4Enum@QuickHullResult@2@XZ 0000000180040a70 f   QuickHullConvexHullLib.obj
 0001:0003fda0       ?maxNumVertsPerFace@QuickHull@local@@QEBAIXZ 0000000180040da0 f   QuickHullConvexHullLib.obj
 0001:0003fe40       ?computeMinMaxVerts@QuickHull@local@@IEAAXXZ 0000000180040e40 f   QuickHullConvexHullLib.obj
 0001:00040190       ?findSimplex@QuickHull@local@@IEAA_NXZ 0000000180041190 f   QuickHullConvexHullLib.obj
 0001:000406e0       ?addSimplex@QuickHull@local@@IEAAXPEAUQuickHullVertex@2@_N@Z 00000001800416e0 f   QuickHullConvexHullLib.obj
 0001:00040f20       ?nextPointToAdd@QuickHull@local@@IEAAPEAUQuickHullVertex@2@AEAPEAUQuickHullFace@2@@Z 0000000180041f20 f   QuickHullConvexHullLib.obj
 0001:00041070       ?addPointToHull@QuickHull@local@@IEAA_NPEBUQuickHullVertex@2@AEAUQuickHullFace@2@AEA_N@Z 0000000180042070 f   QuickHullConvexHullLib.obj
 0001:000413b0       ?createTriangle@QuickHull@local@@IEAAPEAUQuickHullFace@2@AEBUQuickHullVertex@2@00@Z 00000001800423b0 f   QuickHullConvexHullLib.obj
 0001:000414f0       ?addPointToFace@QuickHull@local@@IEAAXAEAUQuickHullFace@2@PEAUQuickHullVertex@2@M@Z 00000001800424f0 f   QuickHullConvexHullLib.obj
 0001:00041620       ?removeEyePointFromFace@QuickHull@local@@IEAAXAEAUQuickHullFace@2@PEBUQuickHullVertex@2@@Z 0000000180042620 f   QuickHullConvexHullLib.obj
 0001:000416c0       ?calculateHorizon@QuickHull@local@@IEAAXAEBVPxVec3@physx@@PEAUQuickHullHalfEdge@2@AEAUQuickHullFace@2@AEAV?$Array@PEAUQuickHullHalfEdge@local@@VNamedAllocator@shdfnd@physx@@@shdfnd@4@AEAV?$Array@PEAUQuickHullFace@local@@VNamedAllocator@shdfnd@physx@@@84@@Z 00000001800426c0 f   QuickHullConvexHullLib.obj
 0001:00041860       ?addNewFacesFromHorizon@QuickHull@local@@IEAAXPEBUQuickHullVertex@2@AEBV?$Array@PEAUQuickHullHalfEdge@local@@VNamedAllocator@shdfnd@physx@@@shdfnd@physx@@AEAV?$Array@PEAUQuickHullFace@local@@VNamedAllocator@shdfnd@physx@@@56@@Z 0000000180042860 f   QuickHullConvexHullLib.obj
 0001:000419d0       ?doAdjacentMerge@QuickHull@local@@IEAA_NAEAUQuickHullFace@2@_NAEA_N@Z 00000001800429d0 f   QuickHullConvexHullLib.obj
 0001:00041cb0       ?doPostAdjacentMerge@QuickHull@local@@IEAA_NAEAUQuickHullFace@2@M@Z 0000000180042cb0 f   QuickHullConvexHullLib.obj
 0001:00041ec0       ?deleteFacePoints@QuickHull@local@@IEAAXAEAUQuickHullFace@2@PEAU32@@Z 0000000180042ec0 f   QuickHullConvexHullLib.obj
 0001:00041ff0       ?resolveUnclaimedPoints@QuickHull@local@@IEAAXAEBV?$Array@PEAUQuickHullFace@local@@VNamedAllocator@shdfnd@physx@@@shdfnd@physx@@@Z 0000000180042ff0 f   QuickHullConvexHullLib.obj
 0001:00042160       ?postMergeHull@QuickHull@local@@IEAAXXZ 0000000180043160 f   QuickHullConvexHullLib.obj
 0001:00042250       ?canMergeFaces@QuickHull@local@@IEAA_NAEBUQuickHullHalfEdge@2@@Z 0000000180043250 f   QuickHullConvexHullLib.obj
 0001:00042b40       ?getExpandPoint@local@@YAXAEBUQuickHullHalfEdge@1@AEAUExpandPoint@1@PEBV?$Array@IVNamedAllocator@shdfnd@physx@@@shdfnd@physx@@@Z 0000000180043b40 f   QuickHullConvexHullLib.obj
 0001:00042d90       ?addExpandPoint@local@@YAXAEBUExpandPoint@1@AEAV?$Array@UExpandPoint@local@@VNamedAllocator@shdfnd@physx@@@shdfnd@physx@@@Z 0000000180043d90 f   QuickHullConvexHullLib.obj
 0001:00042ee0       ??$?2V?$ReflectionAllocator@VQuickHull@local@@@shdfnd@physx@@@UserAllocated@shdfnd@physx@@SAPEAX_KV?$ReflectionAllocator@VQuickHull@local@@@12@PEBDH@Z 0000000180043ee0 f i QuickHullConvexHullLib.obj
 0001:00042f20       ??$PX_UNUSED@PEAUQuickHullFace@local@@@@YAXAEBQEAUQuickHullFace@local@@@Z 0000000180043f20 f i QuickHullConvexHullLib.obj
 0001:00042f30       ??$PX_UNUSED@PEBUQuickHullVertex@local@@@@YAXAEBQEBUQuickHullVertex@local@@@Z 0000000180043f30 f i QuickHullConvexHullLib.obj
 0001:00042f40       ??0?$Array@PEAUQuickHullFace@local@@VNamedAllocator@shdfnd@physx@@@shdfnd@physx@@QEAA@AEBVNamedAllocator@12@@Z 0000000180043f40 f i QuickHullConvexHullLib.obj
 0001:00042f90       ??0?$Array@PEAUQuickHullHalfEdge@local@@VNamedAllocator@shdfnd@physx@@@shdfnd@physx@@QEAA@AEBVNamedAllocator@12@@Z 0000000180043f90 f i QuickHullConvexHullLib.obj
 0001:00042fe0       ??0?$Array@PEAUQuickHullVertex@local@@VNamedAllocator@shdfnd@physx@@@shdfnd@physx@@QEAA@AEBVNamedAllocator@12@@Z 0000000180043fe0 f i QuickHullConvexHullLib.obj
 0001:00043030       ??0?$Array@UExpandPoint@local@@VNamedAllocator@shdfnd@physx@@@shdfnd@physx@@QEAA@AEBVNamedAllocator@12@@Z 0000000180044030 f i QuickHullConvexHullLib.obj
 0001:00043080       ??0?$MemBlock@UQuickHullFace@local@@$00@local@@QEAA@XZ 0000000180044080 f i QuickHullConvexHullLib.obj
 0001:000430e0       ??0?$MemBlock@UQuickHullHalfEdge@local@@$0A@@local@@QEAA@XZ 00000001800440e0 f i QuickHullConvexHullLib.obj
 0001:00043140       ??0?$ReflectionAllocator@VQuickHull@local@@@shdfnd@physx@@QEAA@PEBD@Z 0000000180044140 f i QuickHullConvexHullLib.obj
 0001:00043150       ??0?$ScopedPointer@UQuickHullHalfEdge@local@@VTempAllocator@shdfnd@physx@@@shdfnd@physx@@QEAA@XZ 0000000180044150 f i QuickHullConvexHullLib.obj
 0001:00043170       ??0?$ScopedPointer@VPxVec3@physx@@VTempAllocator@shdfnd@2@@shdfnd@physx@@QEAA@XZ 0000000180044170 f i QuickHullConvexHullLib.obj
 0001:00043190       ??0ConvexHullLib@physx@@QEAA@AEBVPxConvexMeshDesc@1@AEBUPxCookingParams@1@@Z 0000000180044190 f i QuickHullConvexHullLib.obj
 0001:00043210       ??0ExpandPoint@local@@QEAA@AEBU01@@Z 0000000180044210 f i QuickHullConvexHullLib.obj
 0001:00043270       ??0ExpandPoint@local@@QEAA@XZ 0000000180044270 f i QuickHullConvexHullLib.obj
 0001:000432b0       ??0PxTransform@physx@@QEAA@XZ 00000001800442b0 f i QuickHullConvexHullLib.obj
 0001:000432f0       ??0QuickHullFace@local@@QEAA@I@Z 00000001800442f0 f i QuickHullConvexHullLib.obj
 0001:000433b0       ??0QuickHullFace@local@@QEAA@XZ 00000001800443b0 f i QuickHullConvexHullLib.obj
 0001:00043460       ??0QuickHullHalfEdge@local@@QEAA@I@Z 0000000180044460 f i QuickHullConvexHullLib.obj
 0001:000434d0       ??0QuickHullVertex@local@@QEAA@XZ 00000001800444d0 f i QuickHullConvexHullLib.obj
 0001:000434f0       ??1?$Array@PEAUQuickHullFace@local@@VNamedAllocator@shdfnd@physx@@@shdfnd@physx@@QEAA@XZ 00000001800444f0 f i QuickHullConvexHullLib.obj
 0001:00043560       ??1?$Array@PEAUQuickHullHalfEdge@local@@VNamedAllocator@shdfnd@physx@@@shdfnd@physx@@QEAA@XZ 0000000180044560 f i QuickHullConvexHullLib.obj
 0001:000435d0       ??1?$Array@PEAUQuickHullVertex@local@@VNamedAllocator@shdfnd@physx@@@shdfnd@physx@@QEAA@XZ 00000001800445d0 f i QuickHullConvexHullLib.obj
 0001:00043640       ??1?$Array@UExpandPoint@local@@VNamedAllocator@shdfnd@physx@@@shdfnd@physx@@QEAA@XZ 0000000180044640 f i QuickHullConvexHullLib.obj
 0001:000436b0       ??1?$Array@VHalfEdge@ConvexHull@physx@@VNamedAllocator@shdfnd@3@@shdfnd@physx@@QEAA@XZ 00000001800446b0 f i QuickHullConvexHullLib.obj
 0001:00043720       ??1?$Array@VPxPlane@physx@@VNamedAllocator@shdfnd@2@@shdfnd@physx@@QEAA@XZ 0000000180044720 f i QuickHullConvexHullLib.obj
 0001:00043790       ??1?$MemBlock@UQuickHullFace@local@@$00@local@@QEAA@XZ 0000000180044790 f i QuickHullConvexHullLib.obj
 0001:00043830       ??1?$MemBlock@UQuickHullHalfEdge@local@@$0A@@local@@QEAA@XZ 0000000180044830 f i QuickHullConvexHullLib.obj
 0001:000438d0       ??1?$ScopedPointer@UQuickHullHalfEdge@local@@VTempAllocator@shdfnd@physx@@@shdfnd@physx@@QEAA@XZ 00000001800448d0 f i QuickHullConvexHullLib.obj
 0001:00043900       ??1?$ScopedPointer@VPxVec3@physx@@VTempAllocator@shdfnd@2@@shdfnd@physx@@QEAA@XZ 0000000180044900 f i QuickHullConvexHullLib.obj
 0001:00043930       ??1ConvexHull@physx@@QEAA@XZ 0000000180044930 f i QuickHullConvexHullLib.obj
 0001:00043970       ??1QuickHullFace@local@@QEAA@XZ 0000000180044970 f i QuickHullConvexHullLib.obj
 0001:00043980       ??4?$PxFlags@W4Enum@PxConvexFlag@physx@@G@physx@@QEAAAEAV01@AEBV01@@Z 0000000180044980 f i QuickHullConvexHullLib.obj
 0001:000439a0       ??4QuickHullVertex@local@@QEAAAEAU01@AEBU01@@Z 00000001800449a0 f i QuickHullConvexHullLib.obj
 0001:00043a00       ??8ExpandPoint@local@@QEBA_NAEBU01@@Z 0000000180044a00 f i QuickHullConvexHullLib.obj
 0001:00043a90       ??8QuickHullVertex@local@@QEBA_NAEBU01@@Z 0000000180044a90 f i QuickHullConvexHullLib.obj
 0001:00043ad0       ??A?$Array@IVNamedAllocator@shdfnd@physx@@@shdfnd@physx@@QEBAAEBII@Z 0000000180044ad0 f i QuickHullConvexHullLib.obj
 0001:00043b50       ??A?$Array@PEAUQuickHullFace@local@@VNamedAllocator@shdfnd@physx@@@shdfnd@physx@@QEAAAEAPEAUQuickHullFace@local@@I@Z 0000000180044b50 f i QuickHullConvexHullLib.obj
 0001:00043bd0       ??A?$Array@PEAUQuickHullFace@local@@VNamedAllocator@shdfnd@physx@@@shdfnd@physx@@QEBAAEBQEAUQuickHullFace@local@@I@Z 0000000180044bd0 f i QuickHullConvexHullLib.obj
 0001:00043c50       ??A?$Array@PEAUQuickHullHalfEdge@local@@VNamedAllocator@shdfnd@physx@@@shdfnd@physx@@QEAAAEAPEAUQuickHullHalfEdge@local@@I@Z 0000000180044c50 f i QuickHullConvexHullLib.obj
 0001:00043cd0       ??A?$Array@PEAUQuickHullHalfEdge@local@@VNamedAllocator@shdfnd@physx@@@shdfnd@physx@@QEBAAEBQEAUQuickHullHalfEdge@local@@I@Z 0000000180044cd0 f i QuickHullConvexHullLib.obj
 0001:00043d50       ??A?$Array@PEAUQuickHullVertex@local@@VNamedAllocator@shdfnd@physx@@@shdfnd@physx@@QEAAAEAPEAUQuickHullVertex@local@@I@Z 0000000180044d50 f i QuickHullConvexHullLib.obj
 0001:00043dd0       ??A?$Array@UExpandPoint@local@@VNamedAllocator@shdfnd@physx@@@shdfnd@physx@@QEAAAEAUExpandPoint@local@@I@Z 0000000180044dd0 f i QuickHullConvexHullLib.obj
 0001:00043e50       ??A?$Array@VPxPlane@physx@@VNamedAllocator@shdfnd@2@@shdfnd@physx@@QEAAAEAVPxPlane@2@I@Z 0000000180044e50 f i QuickHullConvexHullLib.obj
 0001:00043ed0       ??B?$ScopedPointer@UQuickHullHalfEdge@local@@VTempAllocator@shdfnd@physx@@@shdfnd@physx@@QEBAPEAUQuickHullHalfEdge@local@@XZ 0000000180044ed0 f i QuickHullConvexHullLib.obj
 0001:00043ee0       ??B?$ScopedPointer@VPxVec3@physx@@VTempAllocator@shdfnd@2@@shdfnd@physx@@QEBAPEAVPxVec3@2@XZ 0000000180044ee0 f i QuickHullConvexHullLib.obj
 0001:00043ef0       ??KPxVec3@physx@@QEBA?AV01@M@Z 0000000180044ef0 f i QuickHullConvexHullLib.obj
 0001:00043f70       ??_GConvexHull@physx@@QEAAPEAXI@Z 0000000180044f70 f i QuickHullConvexHullLib.obj
 0001:00043fd0       ??_GQuickHull@local@@QEAAPEAXI@Z 0000000180044fd0 f i QuickHullConvexHullLib.obj
 0001:00044030       ??_EQuickHullConvexHullLib@physx@@UEAAPEAXI@Z 0000000180045030 f i QuickHullConvexHullLib.obj
 0001:00044030       ??_GQuickHullConvexHullLib@physx@@UEAAPEAXI@Z 0000000180045030 f i QuickHullConvexHullLib.obj
 0001:00044090       ??__G@YAXPEAX0_K1P6APEAX00@Z@Z 0000000180045090 f i QuickHullConvexHullLib.obj
 0001:00044120       ?allocate@?$Array@PEAUQuickHullFace@local@@VNamedAllocator@shdfnd@physx@@@shdfnd@physx@@IEAAPEAPEAUQuickHullFace@local@@I@Z 0000000180045120 f i QuickHullConvexHullLib.obj
 0001:000441b0       ?allocate@?$Array@PEAUQuickHullHalfEdge@local@@VNamedAllocator@shdfnd@physx@@@shdfnd@physx@@IEAAPEAPEAUQuickHullHalfEdge@local@@I@Z 00000001800451b0 f i QuickHullConvexHullLib.obj
 0001:00044240       ?allocate@?$Array@PEAUQuickHullVertex@local@@VNamedAllocator@shdfnd@physx@@@shdfnd@physx@@IEAAPEAPEAUQuickHullVertex@local@@I@Z 0000000180045240 f i QuickHullConvexHullLib.obj
 0001:000442d0       ?allocate@?$Array@UExpandPoint@local@@VNamedAllocator@shdfnd@physx@@@shdfnd@physx@@IEAAPEAUExpandPoint@local@@I@Z 00000001800452d0 f i QuickHullConvexHullLib.obj
 0001:00044360       ?allocate@?$ReflectionAllocator@VQuickHull@local@@@shdfnd@physx@@QEAAPEAX_KPEBDH@Z 0000000180045360 f i QuickHullConvexHullLib.obj
 0001:000443e0       ?capacity@?$Array@PEAUQuickHullFace@local@@VNamedAllocator@shdfnd@physx@@@shdfnd@physx@@QEBAIXZ 00000001800453e0 f i QuickHullConvexHullLib.obj
 0001:00044400       ?capacity@?$Array@PEAUQuickHullHalfEdge@local@@VNamedAllocator@shdfnd@physx@@@shdfnd@physx@@QEBAIXZ 0000000180045400 f i QuickHullConvexHullLib.obj
 0001:00044420       ?capacity@?$Array@PEAUQuickHullVertex@local@@VNamedAllocator@shdfnd@physx@@@shdfnd@physx@@QEBAIXZ 0000000180045420 f i QuickHullConvexHullLib.obj
 0001:00044440       ?capacity@?$Array@UExpandPoint@local@@VNamedAllocator@shdfnd@physx@@@shdfnd@physx@@QEBAIXZ 0000000180045440 f i QuickHullConvexHullLib.obj
 0001:00044460       ?capacityIncrement@?$Array@PEAUQuickHullFace@local@@VNamedAllocator@shdfnd@physx@@@shdfnd@physx@@IEBAIXZ 0000000180045460 f i QuickHullConvexHullLib.obj
 0001:000444a0       ?capacityIncrement@?$Array@PEAUQuickHullHalfEdge@local@@VNamedAllocator@shdfnd@physx@@@shdfnd@physx@@IEBAIXZ 00000001800454a0 f i QuickHullConvexHullLib.obj
 0001:000444e0       ?capacityIncrement@?$Array@PEAUQuickHullVertex@local@@VNamedAllocator@shdfnd@physx@@@shdfnd@physx@@IEBAIXZ 00000001800454e0 f i QuickHullConvexHullLib.obj
 0001:00044520       ?capacityIncrement@?$Array@UExpandPoint@local@@VNamedAllocator@shdfnd@physx@@@shdfnd@physx@@IEBAIXZ 0000000180045520 f i QuickHullConvexHullLib.obj
 0001:00044560       ?clear@?$Array@PEAUQuickHullFace@local@@VNamedAllocator@shdfnd@physx@@@shdfnd@physx@@QEAAXXZ 0000000180045560 f i QuickHullConvexHullLib.obj
 0001:000445a0       ?clear@?$Array@PEAUQuickHullHalfEdge@local@@VNamedAllocator@shdfnd@physx@@@shdfnd@physx@@QEAAXXZ 00000001800455a0 f i QuickHullConvexHullLib.obj
 0001:000445e0       ?clear@?$Array@PEAUQuickHullVertex@local@@VNamedAllocator@shdfnd@physx@@@shdfnd@physx@@QEAAXXZ 00000001800455e0 f i QuickHullConvexHullLib.obj
 0001:00044620       ?computeNormalAndCentroid@QuickHullFace@local@@QEAAXXZ 0000000180045620 f i QuickHullConvexHullLib.obj
 0001:00044910       ?copy@?$Array@PEAUQuickHullFace@local@@VNamedAllocator@shdfnd@physx@@@shdfnd@physx@@KAXPEAPEAUQuickHullFace@local@@0PEBQEAU45@@Z 0000000180045910 f i QuickHullConvexHullLib.obj
 0001:00044990       ?copy@?$Array@PEAUQuickHullHalfEdge@local@@VNamedAllocator@shdfnd@physx@@@shdfnd@physx@@KAXPEAPEAUQuickHullHalfEdge@local@@0PEBQEAU45@@Z 0000000180045990 f i QuickHullConvexHullLib.obj
 0001:00044a10       ?copy@?$Array@PEAUQuickHullVertex@local@@VNamedAllocator@shdfnd@physx@@@shdfnd@physx@@KAXPEAPEAUQuickHullVertex@local@@0PEBQEAU45@@Z 0000000180045a10 f i QuickHullConvexHullLib.obj
 0001:00044a90       ?copy@?$Array@UExpandPoint@local@@VNamedAllocator@shdfnd@physx@@@shdfnd@physx@@KAXPEAUExpandPoint@local@@0PEBU45@@Z 0000000180045a90 f i QuickHullConvexHullLib.obj
 0001:00044b10       ?deallocate@?$Array@PEAUQuickHullFace@local@@VNamedAllocator@shdfnd@physx@@@shdfnd@physx@@IEAAXPEAX@Z 0000000180045b10 f i QuickHullConvexHullLib.obj
 0001:00044b40       ?deallocate@?$Array@PEAUQuickHullHalfEdge@local@@VNamedAllocator@shdfnd@physx@@@shdfnd@physx@@IEAAXPEAX@Z 0000000180045b40 f i QuickHullConvexHullLib.obj
 0001:00044b70       ?deallocate@?$Array@PEAUQuickHullVertex@local@@VNamedAllocator@shdfnd@physx@@@shdfnd@physx@@IEAAXPEAX@Z 0000000180045b70 f i QuickHullConvexHullLib.obj
 0001:00044ba0       ?deallocate@?$Array@UExpandPoint@local@@VNamedAllocator@shdfnd@physx@@@shdfnd@physx@@IEAAXPEAX@Z 0000000180045ba0 f i QuickHullConvexHullLib.obj
 0001:00044bd0       ?destroy@?$Array@PEAUQuickHullFace@local@@VNamedAllocator@shdfnd@physx@@@shdfnd@physx@@KAXPEAPEAUQuickHullFace@local@@0@Z 0000000180045bd0 f i QuickHullConvexHullLib.obj
 0001:00044c00       ?destroy@?$Array@PEAUQuickHullHalfEdge@local@@VNamedAllocator@shdfnd@physx@@@shdfnd@physx@@KAXPEAPEAUQuickHullHalfEdge@local@@0@Z 0000000180045c00 f i QuickHullConvexHullLib.obj
 0001:00044c30       ?destroy@?$Array@PEAUQuickHullVertex@local@@VNamedAllocator@shdfnd@physx@@@shdfnd@physx@@KAXPEAPEAUQuickHullVertex@local@@0@Z 0000000180045c30 f i QuickHullConvexHullLib.obj
 0001:00044c60       ?destroy@?$Array@UExpandPoint@local@@VNamedAllocator@shdfnd@physx@@@shdfnd@physx@@KAXPEAUExpandPoint@local@@0@Z 0000000180045c60 f i QuickHullConvexHullLib.obj
 0001:00044c90       ?distanceToPlane@QuickHullFace@local@@QEBAMVPxVec3@physx@@@Z 0000000180045c90 f i QuickHullConvexHullLib.obj
 0001:00044cd0       ?getEdge@QuickHullFace@local@@QEBAPEAUQuickHullHalfEdge@2@I@Z 0000000180045cd0 f i QuickHullConvexHullLib.obj
 0001:00044d20       ?getFreeHullFace@QuickHull@local@@IEAAPEAUQuickHullFace@2@XZ 0000000180045d20 f i QuickHullConvexHullLib.obj
 0001:00044d40       ?getFreeHullHalfEdge@QuickHull@local@@IEAAPEAUQuickHullHalfEdge@2@XZ 0000000180045d40 f i QuickHullConvexHullLib.obj
 0001:00044d60       ?getFreeItem@?$MemBlock@UQuickHullFace@local@@$00@local@@QEAAPEAUQuickHullFace@2@XZ 0000000180045d60 f i QuickHullConvexHullLib.obj
 0001:00044fa0       ?getFreeItem@?$MemBlock@UQuickHullHalfEdge@local@@$0A@@local@@QEAAPEAUQuickHullHalfEdge@2@XZ 0000000180045fa0 f i QuickHullConvexHullLib.obj
 0001:000451e0       ?getHead@QuickHullHalfEdge@local@@QEBAAEBUQuickHullVertex@2@XZ 00000001800461e0 f i QuickHullConvexHullLib.obj
 0001:00045250       ?getItem@?$MemBlock@UQuickHullFace@local@@$00@local@@QEAAPEAUQuickHullFace@2@I@Z 0000000180046250 f i QuickHullConvexHullLib.obj
 0001:00045360       ?getName@?$ReflectionAllocator@VQuickHull@local@@@shdfnd@physx@@CAPEBDXZ 0000000180046360 f i QuickHullConvexHullLib.obj
 0001:000453a0       ?getNbHullVerts@QuickHull@local@@IEAAIXZ 00000001800463a0 f i QuickHullConvexHullLib.obj
 0001:000453b0       ?getOppositeFace@QuickHullHalfEdge@local@@QEBAPEAUQuickHullFace@2@XZ 00000001800463b0 f i QuickHullConvexHullLib.obj
 0001:000453d0       ?getTail@QuickHullHalfEdge@local@@QEBAAEBUQuickHullVertex@2@XZ 00000001800463d0 f i QuickHullConvexHullLib.obj
 0001:000453e0       ?grow@?$Array@PEAUQuickHullFace@local@@VNamedAllocator@shdfnd@physx@@@shdfnd@physx@@IEAAXI@Z 00000001800463e0 f i QuickHullConvexHullLib.obj
 0001:00045460       ?grow@?$Array@PEAUQuickHullHalfEdge@local@@VNamedAllocator@shdfnd@physx@@@shdfnd@physx@@IEAAXI@Z 0000000180046460 f i QuickHullConvexHullLib.obj
 0001:000454e0       ?grow@?$Array@PEAUQuickHullVertex@local@@VNamedAllocator@shdfnd@physx@@@shdfnd@physx@@IEAAXI@Z 00000001800464e0 f i QuickHullConvexHullLib.obj
 0001:00045560       ?grow@?$Array@UExpandPoint@local@@VNamedAllocator@shdfnd@physx@@@shdfnd@physx@@IEAAXI@Z 0000000180046560 f i QuickHullConvexHullLib.obj
 0001:000455e0       ?growAndPushBack@?$Array@PEAUQuickHullFace@local@@VNamedAllocator@shdfnd@physx@@@shdfnd@physx@@IEAAAEAPEAUQuickHullFace@local@@AEBQEAU45@@Z 00000001800465e0 f i QuickHullConvexHullLib.obj
 0001:00045760       ?growAndPushBack@?$Array@PEAUQuickHullHalfEdge@local@@VNamedAllocator@shdfnd@physx@@@shdfnd@physx@@IEAAAEAPEAUQuickHullHalfEdge@local@@AEBQEAU45@@Z 0000000180046760 f i QuickHullConvexHullLib.obj
 0001:000458e0       ?growAndPushBack@?$Array@PEAUQuickHullVertex@local@@VNamedAllocator@shdfnd@physx@@@shdfnd@physx@@IEAAAEAPEAUQuickHullVertex@local@@AEBQEAU45@@Z 00000001800468e0 f i QuickHullConvexHullLib.obj
 0001:00045a60       ?growAndPushBack@?$Array@UExpandPoint@local@@VNamedAllocator@shdfnd@physx@@@shdfnd@physx@@IEAAAEAUExpandPoint@local@@AEBU45@@Z 0000000180046a60 f i QuickHullConvexHullLib.obj
 0001:00045bf0       ?init@?$MemBlock@UQuickHullFace@local@@$00@local@@QEAAXI@Z 0000000180046bf0 f i QuickHullConvexHullLib.obj
 0001:00045d20       ?init@?$MemBlock@UQuickHullHalfEdge@local@@$0A@@local@@QEAAXI@Z 0000000180046d20 f i QuickHullConvexHullLib.obj
 0001:00045e50       ?isInUserMemory@?$Array@PEAUQuickHullFace@local@@VNamedAllocator@shdfnd@physx@@@shdfnd@physx@@QEBAIXZ 0000000180046e50 f i QuickHullConvexHullLib.obj
 0001:00045e70       ?isInUserMemory@?$Array@PEAUQuickHullHalfEdge@local@@VNamedAllocator@shdfnd@physx@@@shdfnd@physx@@QEBAIXZ 0000000180046e70 f i QuickHullConvexHullLib.obj
 0001:00045e90       ?isInUserMemory@?$Array@PEAUQuickHullVertex@local@@VNamedAllocator@shdfnd@physx@@@shdfnd@physx@@QEBAIXZ 0000000180046e90 f i QuickHullConvexHullLib.obj
 0001:00045eb0       ?isInUserMemory@?$Array@UExpandPoint@local@@VNamedAllocator@shdfnd@physx@@@shdfnd@physx@@QEBAIXZ 0000000180046eb0 f i QuickHullConvexHullLib.obj
 0001:00045ed0       ?isTriangle@QuickHullFace@local@@AEBA_NXZ 0000000180046ed0 f i QuickHullConvexHullLib.obj
 0001:00045f00       ?pushBack@?$Array@PEAUQuickHullFace@local@@VNamedAllocator@shdfnd@physx@@@shdfnd@physx@@QEAAAEAPEAUQuickHullFace@local@@AEBQEAU45@@Z 0000000180046f00 f i QuickHullConvexHullLib.obj
 0001:00045fa0       ?pushBack@?$Array@PEAUQuickHullHalfEdge@local@@VNamedAllocator@shdfnd@physx@@@shdfnd@physx@@QEAAAEAPEAUQuickHullHalfEdge@local@@AEBQEAU45@@Z 0000000180046fa0 f i QuickHullConvexHullLib.obj
 0001:00046040       ?pushBack@?$Array@PEAUQuickHullVertex@local@@VNamedAllocator@shdfnd@physx@@@shdfnd@physx@@QEAAAEAPEAUQuickHullVertex@local@@AEBQEAU45@@Z 0000000180047040 f i QuickHullConvexHullLib.obj
 0001:000460e0       ?pushBack@?$Array@UExpandPoint@local@@VNamedAllocator@shdfnd@physx@@@shdfnd@physx@@QEAAAEAUExpandPoint@local@@AEBU45@@Z 00000001800470e0 f i QuickHullConvexHullLib.obj
 0001:00046180       ?recreate@?$Array@PEAUQuickHullFace@local@@VNamedAllocator@shdfnd@physx@@@shdfnd@physx@@IEAAXI@Z 0000000180047180 f i QuickHullConvexHullLib.obj
 0001:00046290       ?recreate@?$Array@PEAUQuickHullHalfEdge@local@@VNamedAllocator@shdfnd@physx@@@shdfnd@physx@@IEAAXI@Z 0000000180047290 f i QuickHullConvexHullLib.obj
 0001:000463a0       ?recreate@?$Array@PEAUQuickHullVertex@local@@VNamedAllocator@shdfnd@physx@@@shdfnd@physx@@IEAAXI@Z 00000001800473a0 f i QuickHullConvexHullLib.obj
 0001:000464b0       ?recreate@?$Array@UExpandPoint@local@@VNamedAllocator@shdfnd@physx@@@shdfnd@physx@@IEAAXI@Z 00000001800474b0 f i QuickHullConvexHullLib.obj
 0001:000465d0       ?reserve@?$Array@PEAUQuickHullFace@local@@VNamedAllocator@shdfnd@physx@@@shdfnd@physx@@QEAAXI@Z 00000001800475d0 f i QuickHullConvexHullLib.obj
 0001:00046600       ?reserve@?$Array@PEAUQuickHullHalfEdge@local@@VNamedAllocator@shdfnd@physx@@@shdfnd@physx@@QEAAXI@Z 0000000180047600 f i QuickHullConvexHullLib.obj
 0001:00046630       ?reserve@?$Array@PEAUQuickHullVertex@local@@VNamedAllocator@shdfnd@physx@@@shdfnd@physx@@QEAAXI@Z 0000000180047630 f i QuickHullConvexHullLib.obj
 0001:00046660       ?reserve@?$Array@UExpandPoint@local@@VNamedAllocator@shdfnd@physx@@@shdfnd@physx@@QEAAXI@Z 0000000180047660 f i QuickHullConvexHullLib.obj
 0001:00046690       ?reset@?$MemBlock@UQuickHullFace@local@@$00@local@@QEAAXXZ 0000000180047690 f i QuickHullConvexHullLib.obj
 0001:00046740       ?reset@?$MemBlock@UQuickHullHalfEdge@local@@$0A@@local@@QEAAXXZ 0000000180047740 f i QuickHullConvexHullLib.obj
 0001:000467f0       ?setTwin@QuickHullHalfEdge@local@@QEAAXPEAU12@@Z 00000001800477f0 f i QuickHullConvexHullLib.obj
 0001:00046820       ?size@?$Array@PEAUQuickHullFace@local@@VNamedAllocator@shdfnd@physx@@@shdfnd@physx@@QEBAIXZ 0000000180047820 f i QuickHullConvexHullLib.obj
 0001:00046830       ?size@?$Array@PEAUQuickHullHalfEdge@local@@VNamedAllocator@shdfnd@physx@@@shdfnd@physx@@QEBAIXZ 0000000180047830 f i QuickHullConvexHullLib.obj
 0001:00046840       ?size@?$Array@PEAUQuickHullVertex@local@@VNamedAllocator@shdfnd@physx@@@shdfnd@physx@@QEBAIXZ 0000000180047840 f i QuickHullConvexHullLib.obj
 0001:00046850       ?size@?$Array@UExpandPoint@local@@VNamedAllocator@shdfnd@physx@@@shdfnd@physx@@QEBAIXZ 0000000180047850 f i QuickHullConvexHullLib.obj
 0001:000468e0       ?computeVolumeIntegrals@physx@@YA_NAEBVPxSimpleTriangleMesh@1@MAEAUPxIntegrals@1@@Z 00000001800478e0 f   VolumeIntegration.obj
 0001:00046970       ?computeVolumeIntegralsEberly@physx@@YA_NAEBVPxConvexMeshDesc@1@MAEAUPxIntegrals@1@AEBVPxVec3@1@@Z 0000000180047970 f   VolumeIntegration.obj
 0001:000469e0       ?computeVolumeIntegralsEberlySIMD@physx@@YA_NAEBVPxConvexMeshDesc@1@MAEAUPxIntegrals@1@AEBVPxVec3@1@@Z 00000001800479e0 f   VolumeIntegration.obj
 0001:0004c280       ??$swap@VPxVec3@physx@@@shdfnd@physx@@YAXAEAVPxVec3@1@0@Z 000000018004d280 f i VolumeIntegration.obj
 0001:0004c2c0       ??0PxSimpleTriangleMesh@physx@@QEAA@XZ 000000018004d2c0 f i VolumeIntegration.obj
 0001:0004c310       ??4?$PxFlags@W4Enum@PxMeshFlag@physx@@G@physx@@QEAAAEAV01@AEBV01@@Z 000000018004d310 f i VolumeIntegration.obj
 0001:0004c330       ??4PxSimpleTriangleMesh@physx@@QEAAAEAV01@AEBV01@@Z 000000018004d330 f i VolumeIntegration.obj
 0001:0004c390       ?FAllGrtr@aos@shdfnd@physx@@YAIT__m128@@0@Z 000000018004d390 f i VolumeIntegration.obj
 0001:0004c490       ?V4Cross@aos@shdfnd@physx@@YA?AT__m128@@T4@0@Z 000000018004d490 f i VolumeIntegration.obj
 0001:0004c590       ?V4Dot3@aos@shdfnd@physx@@YA?AT__m128@@T4@0@Z 000000018004d590 f i VolumeIntegration.obj
 0001:0004c650       ?V4PermYZXW@aos@shdfnd@physx@@YA?AT__m128@@T4@@Z 000000018004d650 f i VolumeIntegration.obj
 0001:0004c680       ?V4ScaleInv@aos@shdfnd@physx@@YA?AT__m128@@T4@0@Z 000000018004d680 f i VolumeIntegration.obj
 0001:0004c720       ?Vec4V_From_PxVec3_WUndefined@aos@shdfnd@physx@@YA?AT__m128@@AEBVPxVec3@3@@Z 000000018004d720 f i VolumeIntegration.obj
 0001:0004c770       ?isZero@PxVec3@physx@@QEBA_NXZ 000000018004d770 f i VolumeIntegration.obj
 0001:0004c7c0       PxSetPhysXCookingDelayLoadHook 000000018004d7c0 f   WindowsCookingDelayLoadHook.obj
 0001:0004c7e0       ?cookingDelayHook@@YAP6A_JXZIPEAUDelayLoadInfo@@@Z 000000018004d7e0 f   WindowsCookingDelayLoadHook.obj
 0001:0004c860       ?loadLibrary@Cm@physx@@YAPEAUHINSTANCE__@@PEBD@Z 000000018004d860 f i WindowsCookingDelayLoadHook.obj
 0001:0004c880       ?physXCommonDliNotePreLoadLibrary@Cm@physx@@YAP6A_JXZPEBDPEBVPxDelayLoadHook@2@@Z 000000018004d880 f i WindowsCookingDelayLoadHook.obj
 0001:0004c90b       __imp_load_??0RadixSortBuffered@Cm@physx@@QEAA@XZ 000000018004d90b f   PhysXCommon_64:PhysXCommon_64.dll
 0001:0004c917       ??0RadixSortBuffered@Cm@physx@@QEAA@XZ 000000018004d917 f   PhysXCommon_64:PhysXCommon_64.dll
 0001:0004c91d       __tailMerge_physxcommon_64_dll 000000018004d91d     PhysXCommon_64:PhysXCommon_64.dll
 0001:0004c996       __imp_load_??1RadixSortBuffered@Cm@physx@@UEAA@XZ 000000018004d996 f   PhysXCommon_64:PhysXCommon_64.dll
 0001:0004c9a2       ??1RadixSortBuffered@Cm@physx@@UEAA@XZ 000000018004d9a2 f   PhysXCommon_64:PhysXCommon_64.dll
 0001:0004c9a8       __imp_load_?Sort@RadixSortBuffered@Cm@physx@@QEAAAEAV123@PEBIIW4RadixHint@23@@Z 000000018004d9a8 f   PhysXCommon_64:PhysXCommon_64.dll
 0001:0004c9b4       ?Sort@RadixSortBuffered@Cm@physx@@QEAAAEAV123@PEBIIW4RadixHint@23@@Z 000000018004d9b4 f   PhysXCommon_64:PhysXCommon_64.dll
 0001:0004c9ba       __imp_load_?readDword@physx@@YAI_NAEAVPxInputStream@1@@Z 000000018004d9ba f   PhysXCommon_64:PhysXCommon_64.dll
 0001:0004c9c6       ?readDword@physx@@YAI_NAEAVPxInputStream@1@@Z 000000018004d9c6 f   PhysXCommon_64:PhysXCommon_64.dll
 0001:0004c9cc       __imp_load_?ReadHeader@Gu@physx@@YA_NEEEEAEAIAEA_NAEAVPxInputStream@2@@Z 000000018004d9cc f   PhysXCommon_64:PhysXCommon_64.dll
 0001:0004c9d8       ?ReadHeader@Gu@physx@@YA_NEEEEAEAIAEA_NAEAVPxInputStream@2@@Z 000000018004d9d8 f   PhysXCommon_64:PhysXCommon_64.dll
 0001:0004c9de       __imp_load_??0HeightField@Gu@physx@@QEAA@PEAVGuMeshFactory@2@@Z 000000018004d9de f   PhysXCommon_64:PhysXCommon_64.dll
 0001:0004c9ea       ??0HeightField@Gu@physx@@QEAA@PEAVGuMeshFactory@2@@Z 000000018004d9ea f   PhysXCommon_64:PhysXCommon_64.dll
 0001:0004c9f0       __imp_load_?loadFromDesc@HeightField@Gu@physx@@QEAA_NAEBVPxHeightFieldDesc@3@@Z 000000018004d9f0 f   PhysXCommon_64:PhysXCommon_64.dll
 0001:0004c9fc       ?loadFromDesc@HeightField@Gu@physx@@QEAA_NAEBVPxHeightFieldDesc@3@@Z 000000018004d9fc f   PhysXCommon_64:PhysXCommon_64.dll
 0001:0004ca02       __imp_load_?computeCellCoordinates@HeightField@Gu@physx@@QEBAIMMAEAM0@Z 000000018004da02 f   PhysXCommon_64:PhysXCommon_64.dll
 0001:0004ca0e       ?computeCellCoordinates@HeightField@Gu@physx@@QEBAIMMAEAM0@Z 000000018004da0e f   PhysXCommon_64:PhysXCommon_64.dll
 0001:0004ca14       __imp_load_?releaseMemory@HeightField@Gu@physx@@QEAAXXZ 000000018004da14 f   PhysXCommon_64:PhysXCommon_64.dll
 0001:0004ca20       ?releaseMemory@HeightField@Gu@physx@@QEAAXXZ 000000018004da20 f   PhysXCommon_64:PhysXCommon_64.dll
 0001:0004ca26       __imp_load_??1HeightField@Gu@physx@@UEAA@XZ 000000018004da26 f   PhysXCommon_64:PhysXCommon_64.dll
 0001:0004ca32       ??1HeightField@Gu@physx@@UEAA@XZ 000000018004da32 f   PhysXCommon_64:PhysXCommon_64.dll
 0001:0004ca38       __imp_load_??0NodeAllocator@Gu@physx@@QEAA@XZ 000000018004da38 f   PhysXCommon_64:PhysXCommon_64.dll
 0001:0004ca44       ??0NodeAllocator@Gu@physx@@QEAA@XZ 000000018004da44 f   PhysXCommon_64:PhysXCommon_64.dll
 0001:0004ca4a       __imp_load_??1NodeAllocator@Gu@physx@@QEAA@XZ 000000018004da4a f   PhysXCommon_64:PhysXCommon_64.dll
 0001:0004ca56       ??1NodeAllocator@Gu@physx@@QEAA@XZ 000000018004da56 f   PhysXCommon_64:PhysXCommon_64.dll
 0001:0004ca5c       __imp_load_?release@NodeAllocator@Gu@physx@@QEAAXXZ 000000018004da5c f   PhysXCommon_64:PhysXCommon_64.dll
 0001:0004ca68       ?release@NodeAllocator@Gu@physx@@QEAAXXZ 000000018004da68 f   PhysXCommon_64:PhysXCommon_64.dll
 0001:0004ca6e       __imp_load_?buildAABBTree@Gu@physx@@YA_NAEAVAABBTreeBuildParams@12@AEAVNodeAllocator@12@AEAUBuildStats@12@AEAPEAI@Z 000000018004da6e f   PhysXCommon_64:PhysXCommon_64.dll
 0001:0004ca7a       ?buildAABBTree@Gu@physx@@YA_NAEAVAABBTreeBuildParams@12@AEAVNodeAllocator@12@AEAUBuildStats@12@AEAPEAI@Z 000000018004da7a f   PhysXCommon_64:PhysXCommon_64.dll
 0001:0004ca80       __imp_load_?writeDword@physx@@YAXI_NAEAVPxOutputStream@1@@Z 000000018004da80 f   PhysXCommon_64:PhysXCommon_64.dll
 0001:0004ca8c       ?writeDword@physx@@YAXI_NAEAVPxOutputStream@1@@Z 000000018004da8c f   PhysXCommon_64:PhysXCommon_64.dll
 0001:0004ca92       __imp_load_?writeFloatBuffer@physx@@YAXPEBMI_NAEAVPxOutputStream@1@@Z 000000018004da92 f   PhysXCommon_64:PhysXCommon_64.dll
 0001:0004ca9e       ?writeFloatBuffer@physx@@YAXPEBMI_NAEAVPxOutputStream@1@@Z 000000018004da9e f   PhysXCommon_64:PhysXCommon_64.dll
 0001:0004caa4       __imp_load_?writeHeader@physx@@YA_NCCCCI_NAEAVPxOutputStream@1@@Z 000000018004daa4 f   PhysXCommon_64:PhysXCommon_64.dll
 0001:0004cab0       ?writeHeader@physx@@YA_NCCCCI_NAEAVPxOutputStream@1@@Z 000000018004dab0 f   PhysXCommon_64:PhysXCommon_64.dll
 0001:0004cab6       __imp_load_?writeWord@physx@@YAXG_NAEAVPxOutputStream@1@@Z 000000018004dab6 f   PhysXCommon_64:PhysXCommon_64.dll
 0001:0004cac2       ?writeWord@physx@@YAXG_NAEAVPxOutputStream@1@@Z 000000018004dac2 f   PhysXCommon_64:PhysXCommon_64.dll
 0001:0004cac8       __imp_load_?writeFloat@physx@@YAXM_NAEAVPxOutputStream@1@@Z 000000018004dac8 f   PhysXCommon_64:PhysXCommon_64.dll
 0001:0004cad4       ?writeFloat@physx@@YAXM_NAEAVPxOutputStream@1@@Z 000000018004dad4 f   PhysXCommon_64:PhysXCommon_64.dll
 0001:0004cada       __imp_load_?validate@RTree@Gu@physx@@QEAAXPEAUCallbackRefit@123@@Z 000000018004dada f   PhysXCommon_64:PhysXCommon_64.dll
 0001:0004cae6       ?validate@RTree@Gu@physx@@QEAAXPEAUCallbackRefit@123@@Z 000000018004dae6 f   PhysXCommon_64:PhysXCommon_64.dll
 0001:0004caec       __imp_load_?computeBoundsAroundVertices@Gu@physx@@YAXAEAVPxBounds3@2@IPEIBVPxVec3@2@@Z 000000018004daec f   PhysXCommon_64:PhysXCommon_64.dll
 0001:0004caf8       ?computeBoundsAroundVertices@Gu@physx@@YAXAEAVPxBounds3@2@IPEIBVPxVec3@2@@Z 000000018004daf8 f   PhysXCommon_64:PhysXCommon_64.dll
 0001:0004cafe       __imp_load_??0SourceMesh@Gu@physx@@QEAA@XZ 000000018004dafe f   PhysXCommon_64:PhysXCommon_64.dll
 0001:0004cb0a       ??0SourceMesh@Gu@physx@@QEAA@XZ 000000018004db0a f   PhysXCommon_64:PhysXCommon_64.dll
 0001:0004cb10       __imp_load_??1SourceMesh@Gu@physx@@QEAA@XZ 000000018004db10 f   PhysXCommon_64:PhysXCommon_64.dll
 0001:0004cb1c       ??1SourceMesh@Gu@physx@@QEAA@XZ 000000018004db1c f   PhysXCommon_64:PhysXCommon_64.dll
 0001:0004cb22       __imp_load_??0BV4Tree@Gu@physx@@QEAA@XZ 000000018004db22 f   PhysXCommon_64:PhysXCommon_64.dll
 0001:0004cb2e       ??0BV4Tree@Gu@physx@@QEAA@XZ 000000018004db2e f   PhysXCommon_64:PhysXCommon_64.dll
 0001:0004cb34       __imp_load_??1BV4Tree@Gu@physx@@QEAA@XZ 000000018004db34 f   PhysXCommon_64:PhysXCommon_64.dll
 0001:0004cb40       ??1BV4Tree@Gu@physx@@QEAA@XZ 000000018004db40 f   PhysXCommon_64:PhysXCommon_64.dll
 0001:0004cb46       __imp_load_??0BV32Tree@Gu@physx@@QEAA@XZ 000000018004db46 f   PhysXCommon_64:PhysXCommon_64.dll
 0001:0004cb52       ??0BV32Tree@Gu@physx@@QEAA@XZ 000000018004db52 f   PhysXCommon_64:PhysXCommon_64.dll
 0001:0004cb58       __imp_load_??1BV32Tree@Gu@physx@@QEAA@XZ 000000018004db58 f   PhysXCommon_64:PhysXCommon_64.dll
 0001:0004cb64       ??1BV32Tree@Gu@physx@@QEAA@XZ 000000018004db64 f   PhysXCommon_64:PhysXCommon_64.dll
 0001:0004cb6a       __imp_load_?writeWordBuffer@physx@@YAXPEBGI_NAEAVPxOutputStream@1@@Z 000000018004db6a f   PhysXCommon_64:PhysXCommon_64.dll
 0001:0004cb76       ?writeWordBuffer@physx@@YAXPEBGI_NAEAVPxOutputStream@1@@Z 000000018004db76 f   PhysXCommon_64:PhysXCommon_64.dll
 0001:0004cb7c       __imp_load_?computeMaxIndex@physx@@YAIPEBII@Z 000000018004db7c f   PhysXCommon_64:PhysXCommon_64.dll
 0001:0004cb88       ?computeMaxIndex@physx@@YAIPEBII@Z 000000018004db88 f   PhysXCommon_64:PhysXCommon_64.dll
 0001:0004cb8e       __imp_load_?storeIndices@physx@@YAXIIPEBIAEAVPxOutputStream@1@_N@Z 000000018004db8e f   PhysXCommon_64:PhysXCommon_64.dll
 0001:0004cb9a       ?storeIndices@physx@@YAXIIPEBIAEAVPxOutputStream@1@_N@Z 000000018004db9a f   PhysXCommon_64:PhysXCommon_64.dll
 0001:0004cba0       __imp_load_?BuildBV4Ex@Gu@physx@@YA_NAEAVBV4Tree@12@AEAVSourceMesh@12@MI@Z 000000018004dba0 f   PhysXCommon_64:PhysXCommon_64.dll
 0001:0004cbac       ?BuildBV4Ex@Gu@physx@@YA_NAEAVBV4Tree@12@AEAVSourceMesh@12@MI@Z 000000018004dbac f   PhysXCommon_64:PhysXCommon_64.dll
 0001:0004cbb2       __imp_load_?BuildBV32Ex@Gu@physx@@YA_NAEAVBV32Tree@12@AEAVSourceMesh@12@MI@Z 000000018004dbb2 f   PhysXCommon_64:PhysXCommon_64.dll
 0001:0004cbbe       ?BuildBV32Ex@Gu@physx@@YA_NAEAVBV32Tree@12@AEAVSourceMesh@12@MI@Z 000000018004dbbe f   PhysXCommon_64:PhysXCommon_64.dll
 0001:0004cbc4       __imp_load_?computeMaxIndex@physx@@YAGPEBGI@Z 000000018004dbc4 f   PhysXCommon_64:PhysXCommon_64.dll
 0001:0004cbd0       ?computeMaxIndex@physx@@YAGPEBGI@Z 000000018004dbd0 f   PhysXCommon_64:PhysXCommon_64.dll
 0001:0004cbd6       __imp_load_?WriteHeader@Gu@physx@@YA_NEEEEI_NAEAVPxOutputStream@2@@Z 000000018004dbd6 f   PhysXCommon_64:PhysXCommon_64.dll
 0001:0004cbe2       ?WriteHeader@Gu@physx@@YA_NEEEEI_NAEAVPxOutputStream@2@@Z 000000018004dbe2 f   PhysXCommon_64:PhysXCommon_64.dll
 0001:0004cbe8       __imp_load_?StoreIndices@Gu@physx@@YAXGIPEBGAEAVPxOutputStream@2@_N@Z 000000018004dbe8 f   PhysXCommon_64:PhysXCommon_64.dll
 0001:0004cbf4       ?StoreIndices@Gu@physx@@YAXGIPEBGAEAVPxOutputStream@2@_N@Z 000000018004dbf4 f   PhysXCommon_64:PhysXCommon_64.dll
 0001:0004cbfa       __imp_load_?CreateOffsets@BigConvexData@physx@@IEAAXXZ 000000018004dbfa f   PhysXCommon_64:PhysXCommon_64.dll
 0001:0004cc06       ?CreateOffsets@BigConvexData@physx@@IEAAXXZ 000000018004dc06 f   PhysXCommon_64:PhysXCommon_64.dll
 0001:0004cc0c       __imp_load_?computeOBBPoints@Gu@physx@@YAXPEIAVPxVec3@2@AEBV32@1111@Z 000000018004dc0c f   PhysXCommon_64:PhysXCommon_64.dll
 0001:0004cc18       ?computeOBBPoints@Gu@physx@@YAXPEIAVPxVec3@2@AEBV32@1111@Z 000000018004dc18 f   PhysXCommon_64:PhysXCommon_64.dll
 0001:0004cc1e       __imp_load_??0BigConvexData@physx@@QEAA@XZ 000000018004dc1e f   PhysXCommon_64:PhysXCommon_64.dll
 0001:0004cc2a       ??0BigConvexData@physx@@QEAA@XZ 000000018004dc2a f   PhysXCommon_64:PhysXCommon_64.dll
 0001:0004cc30       __imp_load_??1BigConvexData@physx@@QEAA@XZ 000000018004dc30 f   PhysXCommon_64:PhysXCommon_64.dll
 0001:0004cc3c       ??1BigConvexData@physx@@QEAA@XZ 000000018004dc3c f   PhysXCommon_64:PhysXCommon_64.dll
 0001:0004cc42       __imp_load_?PxGetAssertHandler@physx@@YAAEAVPxAssertHandler@1@XZ 000000018004dc42 f   PhysXFoundation_64:PhysXFoundation_64.dll
 0001:0004cc4e       ?PxGetAssertHandler@physx@@YAAEAVPxAssertHandler@1@XZ 000000018004dc4e f   PhysXFoundation_64:PhysXFoundation_64.dll
 0001:0004cc54       __tailMerge_physxfoundation_64_dll 000000018004dc54     PhysXFoundation_64:PhysXFoundation_64.dll
 0001:0004cccd       __imp_load_PxGetFoundation 000000018004dccd f   PhysXFoundation_64:PhysXFoundation_64.dll
 0001:0004ccd9       PxGetFoundation            000000018004dcd9 f   PhysXFoundation_64:PhysXFoundation_64.dll
 0001:0004ccdf       __imp_load_?getAllocator@shdfnd@physx@@YAAEAVPxAllocatorCallback@2@XZ 000000018004dcdf f   PhysXFoundation_64:PhysXFoundation_64.dll
 0001:0004cceb       ?getAllocator@shdfnd@physx@@YAAEAVPxAllocatorCallback@2@XZ 000000018004dceb f   PhysXFoundation_64:PhysXFoundation_64.dll
 0001:0004ccf1       __imp_load_??0NamedAllocator@shdfnd@physx@@QEAA@PEBD@Z 000000018004dcf1 f   PhysXFoundation_64:PhysXFoundation_64.dll
 0001:0004ccfd       ??0NamedAllocator@shdfnd@physx@@QEAA@PEBD@Z 000000018004dcfd f   PhysXFoundation_64:PhysXFoundation_64.dll
 0001:0004cd03       __imp_load_?getInstance@Foundation@shdfnd@physx@@SAAEAV123@XZ 000000018004dd03 f   PhysXFoundation_64:PhysXFoundation_64.dll
 0001:0004cd0f       ?getInstance@Foundation@shdfnd@physx@@SAAEAV123@XZ 000000018004dd0f f   PhysXFoundation_64:PhysXFoundation_64.dll
 0001:0004cd15       __imp_load_?error@Foundation@shdfnd@physx@@QEAAXW4Enum@PxErrorCode@3@PEBDH1ZZ 000000018004dd15 f   PhysXFoundation_64:PhysXFoundation_64.dll
 0001:0004cd21       ?error@Foundation@shdfnd@physx@@QEAAXW4Enum@PxErrorCode@3@PEBDH1ZZ 000000018004dd21 f   PhysXFoundation_64:PhysXFoundation_64.dll
 0001:0004cd27       __imp_load_?allocate@NamedAllocator@shdfnd@physx@@QEAAPEAX_KPEBDH@Z 000000018004dd27 f   PhysXFoundation_64:PhysXFoundation_64.dll
 0001:0004cd33       ?allocate@NamedAllocator@shdfnd@physx@@QEAAPEAX_KPEBDH@Z 000000018004dd33 f   PhysXFoundation_64:PhysXFoundation_64.dll
 0001:0004cd39       __imp_load_?deallocate@NamedAllocator@shdfnd@physx@@QEAAXPEAX@Z 000000018004dd39 f   PhysXFoundation_64:PhysXFoundation_64.dll
 0001:0004cd45       ?deallocate@NamedAllocator@shdfnd@physx@@QEAAXPEAX@Z 000000018004dd45 f   PhysXFoundation_64:PhysXFoundation_64.dll
 0001:0004cd4b       __imp_load_?incRefCount@Foundation@shdfnd@physx@@SAXXZ 000000018004dd4b f   PhysXFoundation_64:PhysXFoundation_64.dll
 0001:0004cd57       ?incRefCount@Foundation@shdfnd@physx@@SAXXZ 000000018004dd57 f   PhysXFoundation_64:PhysXFoundation_64.dll
 0001:0004cd5d       __imp_load_?decRefCount@Foundation@shdfnd@physx@@SAXXZ 000000018004dd5d f   PhysXFoundation_64:PhysXFoundation_64.dll
 0001:0004cd69       ?decRefCount@Foundation@shdfnd@physx@@SAXXZ 000000018004dd69 f   PhysXFoundation_64:PhysXFoundation_64.dll
 0001:0004cd6f       __imp_load_??0FPUGuard@shdfnd@physx@@QEAA@XZ 000000018004dd6f f   PhysXFoundation_64:PhysXFoundation_64.dll
 0001:0004cd7b       ??0FPUGuard@shdfnd@physx@@QEAA@XZ 000000018004dd7b f   PhysXFoundation_64:PhysXFoundation_64.dll
 0001:0004cd81       __imp_load_??1FPUGuard@shdfnd@physx@@QEAA@XZ 000000018004dd81 f   PhysXFoundation_64:PhysXFoundation_64.dll
 0001:0004cd8d       ??1FPUGuard@shdfnd@physx@@QEAA@XZ 000000018004dd8d f   PhysXFoundation_64:PhysXFoundation_64.dll
 0001:0004cd93       __imp_load_??1NamedAllocator@shdfnd@physx@@QEAA@XZ 000000018004dd93 f   PhysXFoundation_64:PhysXFoundation_64.dll
 0001:0004cd9f       ??1NamedAllocator@shdfnd@physx@@QEAA@XZ 000000018004dd9f f   PhysXFoundation_64:PhysXFoundation_64.dll
 0001:0004cda5       __imp_load_??0NamedAllocator@shdfnd@physx@@QEAA@AEBV012@@Z 000000018004dda5 f   PhysXFoundation_64:PhysXFoundation_64.dll
 0001:0004cdb1       ??0NamedAllocator@shdfnd@physx@@QEAA@AEBV012@@Z 000000018004ddb1 f   PhysXFoundation_64:PhysXFoundation_64.dll
 0001:0004cdb7       __imp_load_?allocate@TempAllocator@shdfnd@physx@@QEAAPEAX_KPEBDH@Z 000000018004ddb7 f   PhysXFoundation_64:PhysXFoundation_64.dll
 0001:0004cdc3       ?allocate@TempAllocator@shdfnd@physx@@QEAAPEAX_KPEBDH@Z 000000018004ddc3 f   PhysXFoundation_64:PhysXFoundation_64.dll
 0001:0004cdc9       __imp_load_?deallocate@TempAllocator@shdfnd@physx@@QEAAXPEAX@Z 000000018004ddc9 f   PhysXFoundation_64:PhysXFoundation_64.dll
 0001:0004cdd5       ?deallocate@TempAllocator@shdfnd@physx@@QEAAXPEAX@Z 000000018004ddd5 f   PhysXFoundation_64:PhysXFoundation_64.dll
 0001:0004cddb       __imp_load_?PxDiagonalize@physx@@YA?AVPxVec3@1@AEBVPxMat33@1@AEAVPxQuat@1@@Z 000000018004dddb f   PhysXFoundation_64:PhysXFoundation_64.dll
 0001:0004cde7       ?PxDiagonalize@physx@@YA?AVPxVec3@1@AEBVPxMat33@1@AEAVPxQuat@1@@Z 000000018004dde7 f   PhysXFoundation_64:PhysXFoundation_64.dll
 0001:0004cded       LoadLibraryA               000000018004dded f   kernel32:KERNEL32.dll
 0001:0004cdf4       ??$PFromRva@PEAP6A_JXZ@@YAPEAP6A_JXZK@Z 000000018004ddf4 f i Delayimp:delayhlp.obj
 0001:0004ce04       ??$PFromRva@PEAPEAUHINSTANCE__@@@@YAPEAPEAUHINSTANCE__@@K@Z 000000018004de04 f i Delayimp:delayhlp.obj
 0001:0004ce14       ??$PFromRva@PEAU_IMAGE_IMPORT_BY_NAME@@@@YAPEAU_IMAGE_IMPORT_BY_NAME@@K@Z 000000018004de14 f i Delayimp:delayhlp.obj
 0001:0004ce24       ??$PFromRva@PEAU_IMAGE_THUNK_DATA64@@@@YAPEAU_IMAGE_THUNK_DATA64@@K@Z 000000018004de24 f i Delayimp:delayhlp.obj
 0001:0004ce34       ??$PFromRva@PEBD@@YAPEBDK@Z 000000018004de34 f i Delayimp:delayhlp.obj
 0001:0004ce44       ??$PFromRva@PEBUImgDelayDescr@@@@YAPEBUImgDelayDescr@@K@Z 000000018004de44 f i Delayimp:delayhlp.obj
 0001:0004ce54       ??$PFromRva@PEBU_IMAGE_THUNK_DATA64@@@@YAPEBU_IMAGE_THUNK_DATA64@@K@Z 000000018004de54 f i Delayimp:delayhlp.obj
 0001:0004ce64       ?CountOfImports@@YAIPEBU_IMAGE_THUNK_DATA64@@@Z 000000018004de64 f i Delayimp:delayhlp.obj
 0001:0004ce78       ?DloadAcquireSectionWriteAccess@@YAXXZ 000000018004de78 f i Delayimp:delayhlp.obj
 0001:0004cf24       ?DloadGetSRWLockFunctionPointers@@YAEXZ 000000018004df24 f i Delayimp:delayhlp.obj
 0001:0004cfc4       ?DloadLock@@YAXXZ          000000018004dfc4 f i Delayimp:delayhlp.obj
 0001:0004d00c       ?DloadMakePermanentImageCommit@@YAXPEAX_K@Z 000000018004e00c f i Delayimp:delayhlp.obj
 0001:0004d0a4       ?DloadObtainSection@@YAPEAXPEAK0@Z 000000018004e0a4 f i Delayimp:delayhlp.obj
 0001:0004d140       ?DloadProtectSection@@YAXKPEAK@Z 000000018004e140 f i Delayimp:delayhlp.obj
 0001:0004d1d0       ?DloadReleaseSectionWriteAccess@@YAXXZ 000000018004e1d0 f i Delayimp:delayhlp.obj
 0001:0004d264       ?DloadUnlock@@YAXXZ        000000018004e264 f i Delayimp:delayhlp.obj
 0001:0004d2a4       ?IndexFromPImgThunkData@@YAIPEBU_IMAGE_THUNK_DATA64@@0@Z 000000018004e2a4 f i Delayimp:delayhlp.obj
 0001:0004d3ec       HRESULT_FROM_WIN32         000000018004e3ec f i Delayimp:delayhlp.obj
 0001:0004d3fc       ReadAcquire64              000000018004e3fc f i Delayimp:delayhlp.obj
 0001:0004d400       ReadPointerAcquire         000000018004e400 f i Delayimp:delayhlp.obj
 0001:0004d404       WritePointerRelease        000000018004e404 f i Delayimp:delayhlp.obj
 0001:0004d408       WriteRelease64             000000018004e408 f i Delayimp:delayhlp.obj
 0001:0004d40c       __FUnloadDelayLoadedDLL2   000000018004e40c f   Delayimp:delayhlp.obj
 0001:0004d4c8       __HrLoadAllImportsForDll   000000018004e4c8 f   Delayimp:delayhlp.obj
 0001:0004d53c       __delayLoadHelper2         000000018004e53c f   Delayimp:delayhlp.obj
 0001:0004d820       ??3@YAXPEAX_K@Z            000000018004e820 f   LIBCMTD:delete_scalar_size.obj
 0001:0004d840       ??_V@YAXPEAX_K@Z           000000018004e840 f   LIBCMTD:delete_array_size.obj
 0001:0004d860       _CRT_RTC_INIT              000000018004e860 f   LIBCMTD:init.obj
 0001:0004d870       _CRT_RTC_INITW             000000018004e870 f   LIBCMTD:init.obj
 0001:0004d880       _RTC_InitBase              000000018004e880 f   LIBCMTD:init.obj
 0001:0004d8c0       _RTC_Shutdown              000000018004e8c0 f   LIBCMTD:init.obj
 0001:0004d8f0       ??1type_info@@UEAA@XZ      000000018004e8f0 f   LIBCMTD:std_type_info_static.obj
 0001:0004d910       ??_Etype_info@@UEAAPEAXI@Z 000000018004e910 f i LIBCMTD:std_type_info_static.obj
 0001:0004d910       ??_Gtype_info@@UEAAPEAXI@Z 000000018004e910 f i LIBCMTD:std_type_info_static.obj
 0001:0004d950       ?__scrt_initialize_type_info@@YAXXZ 000000018004e950 f   LIBCMTD:tncleanup.obj
 0001:0004d970       ?__scrt_uninitialize_type_info@@YAXXZ 000000018004e970 f   LIBCMTD:tncleanup.obj
 0001:0004d9a0       __chkstk                   000000018004e9a0 f   LIBCMTD:chkstk.obj
 0001:0004d9a0       _alloca_probe              000000018004e9a0 f   LIBCMTD:chkstk.obj
 0001:0004d9f0       ??3@YAXPEAX@Z              000000018004e9f0 f   LIBCMTD:delete_scalar.obj
 0001:0004da10       ??_V@YAXPEAX@Z             000000018004ea10 f   LIBCMTD:delete_array.obj
 0001:0004de40       _CRT_INIT                  000000018004ee40 f   LIBCMTD:dll_dllmain.obj
 0001:0004de70       _DllMainCRTStartup         000000018004ee70 f   LIBCMTD:dll_dllmain.obj
 0001:0004deb0       _guard_check_icall_nop     000000018004eeb0 f i LIBCMTD:guard_support.obj
 0001:0004dec0       ReadNoFence64              000000018004eec0 f i LIBCMTD:guard_support.obj
 0001:0004dee0       ReadPointerNoFence         000000018004eee0 f i LIBCMTD:guard_support.obj
 0001:0004df00       __castguard_check_failure_debugbreak 000000018004ef00 f i LIBCMTD:guard_support.obj
 0001:0004df20       __castguard_check_failure_fastfail 000000018004ef20 f i LIBCMTD:guard_support.obj
 0001:0004df50       __castguard_check_failure_nop 000000018004ef50 f i LIBCMTD:guard_support.obj
 0001:0004df60       __castguard_check_failure_os_handled 000000018004ef60 f i LIBCMTD:guard_support.obj
 0001:0004e030       __castguard_slow_path_check_debugbreak 000000018004f030 f i LIBCMTD:guard_support.obj
 0001:0004e070       __castguard_slow_path_check_fastfail 000000018004f070 f i LIBCMTD:guard_support.obj
 0001:0004e0c0       __castguard_slow_path_check_nop 000000018004f0c0 f i LIBCMTD:guard_support.obj
 0001:0004e0d0       __castguard_slow_path_check_os_handled 000000018004f0d0 f i LIBCMTD:guard_support.obj
 0001:0004e190       _guard_icall_checks_enforced 000000018004f190 f i LIBCMTD:guard_support.obj
 0001:0004e1d0       _guard_rf_checks_enforced  000000018004f1d0 f i LIBCMTD:guard_support.obj
 0001:0004e1e0       ?_RTC_GetErrorFunc@@YAP6AHHPEBDH00ZZPEBX@Z 000000018004f1e0 f   LIBCMTD:userapi.obj
 0001:0004e1f0       ?_RTC_GetErrorFuncW@@YAP6AHHPEB_WH00ZZPEBX@Z 000000018004f1f0 f   LIBCMTD:userapi.obj
 0001:0004e200       _RTC_GetErrDesc            000000018004f200 f   LIBCMTD:userapi.obj
 0001:0004e220       _RTC_NumErrors             000000018004f220 f   LIBCMTD:userapi.obj
 0001:0004e230       _RTC_SetErrorFunc          000000018004f230 f   LIBCMTD:userapi.obj
 0001:0004e250       _RTC_SetErrorFuncW         000000018004f250 f   LIBCMTD:userapi.obj
 0001:0004e270       _RTC_SetErrorType          000000018004f270 f   LIBCMTD:userapi.obj
 0001:0004e350       __security_init_cookie     000000018004f350 f   LIBCMTD:gs_support.obj
 0001:0004e3d0       DllMain                    000000018004f3d0 f   LIBCMTD:dll_dllmain_stub.obj
 0001:0004e3f0       __local_stdio_printf_options 000000018004f3f0 f i LIBCMTD:default_local_stdio_options.obj
 0001:0004e400       __local_stdio_scanf_options 000000018004f400 f i LIBCMTD:default_local_stdio_options.obj
 0001:0004e410       __scrt_initialize_default_local_stdio_options 000000018004f410 f   LIBCMTD:default_local_stdio_options.obj
 0001:0004e460       ?configure_argv@__scrt_narrow_argv_policy@@SAHXZ 000000018004f460 f i LIBCMTD:utility.obj
 0001:0004e550       ?initialize_environment@__scrt_narrow_environment_policy@@SAHXZ 000000018004f550 f i LIBCMTD:utility.obj
 0001:0004e5f0       NtCurrentTeb               000000018004f5f0 f i LIBCMTD:utility.obj
 0001:0004e600       __scrt_acquire_startup_lock 000000018004f600 f   LIBCMTD:utility.obj
 0001:0004e670       __scrt_dllmain_after_initialize_c 000000018004f670 f   LIBCMTD:utility.obj
 0001:0004e6a0       __scrt_dllmain_before_initialize_c 000000018004f6a0 f   LIBCMTD:utility.obj
 0001:0004e6c0       __scrt_dllmain_crt_thread_attach 000000018004f6c0 f   LIBCMTD:utility.obj
 0001:0004e6f0       __scrt_dllmain_crt_thread_detach 000000018004f6f0 f   LIBCMTD:utility.obj
 0001:0004e710       __scrt_dllmain_exception_filter 000000018004f710 f   LIBCMTD:utility.obj
 0001:0004e780       __scrt_dllmain_uninitialize_c 000000018004f780 f   LIBCMTD:utility.obj
 0001:0004e7b0       __scrt_dllmain_uninitialize_critical 000000018004f7b0 f   LIBCMTD:utility.obj
 0001:0004e7d0       __scrt_initialize_crt      000000018004f7d0 f   LIBCMTD:utility.obj
 0001:0004e820       __scrt_initialize_onexit_tables 000000018004f820 f   LIBCMTD:utility.obj
 0001:0004e930       __scrt_is_nonwritable_in_current_image 000000018004f930 f   LIBCMTD:utility.obj
 0001:0004e9c0       __scrt_release_startup_lock 000000018004f9c0 f   LIBCMTD:utility.obj
 0001:0004e9f0       __scrt_uninitialize_crt    000000018004f9f0 f   LIBCMTD:utility.obj
 0001:0004ea30       _onexit                    000000018004fa30 f   LIBCMTD:utility.obj
 0001:0004eab0       at_quick_exit              000000018004fab0 f   LIBCMTD:utility.obj
 0001:0004eb00       atexit                     000000018004fb00 f   LIBCMTD:utility.obj
 0001:0004eb40       __scrt_get_dyn_tls_init_callback 000000018004fb40 f   LIBCMTD:dyn_tls_init.obj
 0001:0004eb50       __crt_debugger_hook        000000018004fb50 f   LIBCMTD:utility_desktop.obj
 0001:0004eb60       __scrt_fastfail            000000018004fb60 f   LIBCMTD:utility_desktop.obj
 0001:0004ed00       __scrt_get_show_window_mode 000000018004fd00 f   LIBCMTD:utility_desktop.obj
 0001:0004ed60       __scrt_initialize_mta      000000018004fd60 f   LIBCMTD:utility_desktop.obj
 0001:0004ed70       __scrt_initialize_winrt    000000018004fd70 f   LIBCMTD:utility_desktop.obj
 0001:0004ed80       __scrt_is_managed_app      000000018004fd80 f   LIBCMTD:utility_desktop.obj
 0001:0004ee30       __scrt_set_unhandled_exception_filter 000000018004fe30 f   LIBCMTD:utility_desktop.obj
 0001:0004ee50       __scrt_exe_initialize_mta  000000018004fe50 f   LIBCMTD:utility_desktop.obj
 0001:0004ee50       __scrt_stub_for_initialize_mta 000000018004fe50 f   LIBCMTD:utility_desktop.obj
 0001:0004ee60       __scrt_unhandled_exception_filter 000000018004fe60 f   LIBCMTD:utility_desktop.obj
 0001:0004ef00       _RTC_Initialize            000000018004ff00 f   LIBCMTD:initsect.obj
 0001:0004ef50       _RTC_Terminate             000000018004ff50 f   LIBCMTD:initsect.obj
 0001:0004f030       ?_RTC_AllocaFailure@@YAXPEAXPEAU_RTC_ALLOCA_NODE@@H@Z 0000000180050030 f   LIBCMTD:error.obj
 0001:0004f190       ?_RTC_Failure@@YAXPEAXH@Z  0000000180050190 f   LIBCMTD:error.obj
 0001:0004f1e0       ?_RTC_StackFailure@@YAXPEAXPEBD@Z 00000001800501e0 f   LIBCMTD:error.obj
 0001:0004f610       _RTC_UninitUse             0000000180050610 f   LIBCMTD:error.obj
 0001:0004f6e0       _vsprintf_s_l              00000001800506e0 f i LIBCMTD:error.obj
 0001:0004f750       sprintf_s                  0000000180050750 f i LIBCMTD:error.obj
 0001:0004f780       __isa_available_init       0000000180050780 f   LIBCMTD:cpu_disp.obj
 0001:0004fb30       _get_startup_argv_mode     0000000180050b30 f   LIBCMTD:argv_mode.obj
 0001:0004fb40       __scrt_is_ucrt_dll_in_use  0000000180050b40 f   LIBCMTD:ucrt_detection.obj
 0001:00050090       ?_RTC_GetSrcLine@@YAHPEAEPEA_WKPEAH1K@Z 0000000180051090 f   LIBCMTD:pdblkup.obj
 0001:00050460       __GSHandlerCheck           0000000180051460 f   LIBCMTD:gshandler.obj
 0001:000504a0       __GSHandlerCheckCommon     00000001800514a0 f   LIBCMTD:gshandler.obj
 0001:000505b0       __security_check_cookie    00000001800515b0 f   LIBCMTD:amdsecgs.obj
 0001:000505d0       __raise_securityfailure    00000001800515d0 f   LIBCMTD:gs_report.obj
 0001:00050610       __report_gsfailure         0000000180051610 f   LIBCMTD:gs_report.obj
 0001:000506f0       __report_rangecheckfailure 00000001800516f0 f   LIBCMTD:gs_report.obj
 0001:00050710       __report_securityfailure   0000000180051710 f   LIBCMTD:gs_report.obj
 0001:000507b0       __report_securityfailureEx 00000001800517b0 f   LIBCMTD:gs_report.obj
 0001:00050a20       ??$__crt_interlocked_exchange_pointer@$$A6AXXZP6AXXZ@@YAP6AXXZPEDS6AXXZQ6AXXZ@Z 0000000180051a20 f i libvcruntimed:purevirt.obj
 0001:00050a40       ??$__crt_interlocked_read_pointer@$$A6AXXZ@@YAP6AXXZPEDS6AXXZ@Z 0000000180051a40 f i libvcruntimed:purevirt.obj
 0001:00050a60       ?__crt_interlocked_read_64@@YA_JPED_J@Z 0000000180051a60 f i libvcruntimed:purevirt.obj
 0001:00050a80       _get_purecall_handler      0000000180051a80 f   libvcruntimed:purevirt.obj
 0001:00050aa0       _purecall                  0000000180051aa0 f   libvcruntimed:purevirt.obj
 0001:00050ae0       _set_purecall_handler      0000000180051ae0 f   libvcruntimed:purevirt.obj
 0001:00050b10       memset_repstos             0000000180051b10 f   libvcruntimed:memset.obj
 0001:00050b30       memset                     0000000180051b30 f   libvcruntimed:memset.obj
 0001:00050f00       ??$?RD@__crt_internal_free_policy@@QEBAXQEBD@Z 0000000180051f00 f i libvcruntimed:std_type_info.obj
 0001:00050f30       ??$?RX@__crt_internal_free_policy@@QEBAXQEBX@Z 0000000180051f30 f i libvcruntimed:std_type_info.obj
 0001:00050f60       ??$__crt_interlocked_compare_exchange_pointer@$$CBDPEAD$$T@@YAPEBDPEDSEBDQEAD$$T@Z 0000000180051f60 f i libvcruntimed:std_type_info.obj
 0001:00050fa0       ??$__crt_interlocked_read_pointer@$$CBD@@YAPEBDPEDSEBD@Z 0000000180051fa0 f i libvcruntimed:std_type_info.obj
 0001:00050fc0       ??0?$__crt_unique_heap_ptr@DU__crt_internal_free_policy@@@@QEAA@QEAD@Z 0000000180051fc0 f i libvcruntimed:std_type_info.obj
 0001:00050fe0       ??0?$__crt_unique_heap_ptr@XU__crt_internal_free_policy@@@@QEAA@QEAX@Z 0000000180051fe0 f i libvcruntimed:std_type_info.obj
 0001:00051000       ??1?$__crt_unique_heap_ptr@DU__crt_internal_free_policy@@@@QEAA@XZ 0000000180052000 f i libvcruntimed:std_type_info.obj
 0001:00051020       ??1?$__crt_unique_heap_ptr@XU__crt_internal_free_policy@@@@QEAA@XZ 0000000180052020 f i libvcruntimed:std_type_info.obj
 0001:00051040       ??B?$__crt_unique_heap_ptr@DU__crt_internal_free_policy@@@@QEBA_NXZ 0000000180052040 f i libvcruntimed:std_type_info.obj
 0001:00051060       ??B?$__crt_unique_heap_ptr@XU__crt_internal_free_policy@@@@QEBA_NXZ 0000000180052060 f i libvcruntimed:std_type_info.obj
 0001:00051100       ?detach@?$__crt_unique_heap_ptr@XU__crt_internal_free_policy@@@@QEAAPEAXXZ 0000000180052100 f i libvcruntimed:std_type_info.obj
 0001:00051130       ?get@?$__crt_unique_heap_ptr@DU__crt_internal_free_policy@@@@QEBAPEADXZ 0000000180052130 f i libvcruntimed:std_type_info.obj
 0001:00051140       ?get@?$__crt_unique_heap_ptr@XU__crt_internal_free_policy@@@@QEBAPEAXXZ 0000000180052140 f i libvcruntimed:std_type_info.obj
 0001:00051150       ?is_valid@?$__crt_unique_heap_ptr@DU__crt_internal_free_policy@@@@QEBA_NXZ 0000000180052150 f i libvcruntimed:std_type_info.obj
 0001:00051180       ?is_valid@?$__crt_unique_heap_ptr@XU__crt_internal_free_policy@@@@QEBA_NXZ 0000000180052180 f i libvcruntimed:std_type_info.obj
 0001:000511b0       ?release@?$__crt_unique_heap_ptr@DU__crt_internal_free_policy@@@@QEAAXXZ 00000001800521b0 f i libvcruntimed:std_type_info.obj
 0001:000511e0       ?release@?$__crt_unique_heap_ptr@XU__crt_internal_free_policy@@@@QEAAXXZ 00000001800521e0 f i libvcruntimed:std_type_info.obj
 0001:00051210       __std_type_info_compare    0000000180052210 f   libvcruntimed:std_type_info.obj
 0001:00051250       __std_type_info_destroy_list 0000000180052250 f   libvcruntimed:std_type_info.obj
 0001:000512b0       __std_type_info_hash       00000001800522b0 f   libvcruntimed:std_type_info.obj
 0001:00051360       __std_type_info_name       0000000180052360 f   libvcruntimed:std_type_info.obj
 0001:00051620       memcpy_repmovs             0000000180052620 f   libvcruntimed:memcpy.obj
 0001:00051640       memcpy                     0000000180052640 f   libvcruntimed:memcpy.obj
 0001:00051640       memmove                    0000000180052640 f   libvcruntimed:memcpy.obj
 0001:00051cc0       strstr                     0000000180052cc0 f   libvcruntimed:strstr.obj
 0001:00052300       __C_specific_handler       0000000180053300 f   libvcruntimed:riscchandler.obj
 0001:00052770       __vcrt_initialize          0000000180053770 f   libvcruntimed:initialization.obj
 0001:000527b0       __vcrt_thread_attach       00000001800537b0 f   libvcruntimed:initialization.obj
 0001:000527d0       __vcrt_thread_detach       00000001800537d0 f   libvcruntimed:initialization.obj
 0001:000527f0       __vcrt_uninitialize        00000001800537f0 f   libvcruntimed:initialization.obj
 0001:00052810       __vcrt_uninitialize_critical 0000000180053810 f   libvcruntimed:initialization.obj
 0001:00052830       __DestructExceptionObject  0000000180053830 f   libvcruntimed:ehhelpers.obj
 0001:00052930       ?_CallMemberFunction0@@YAXQEAX0@Z 0000000180053930 f i libvcruntimed:ehhelpers.obj
 0001:00052a00       ?raw_name@type_info@@QEBAPEBDXZ 0000000180053a00 f i libvcruntimed:ehhelpers.obj
 0001:00052a10       _IsExceptionObjectToBeDestroyed 0000000180053a10 f   libvcruntimed:ehhelpers.obj
 0001:00052a60       _SetWinRTOutOfMemoryExceptionCallback 0000000180053a60 f   libvcruntimed:ehhelpers.obj
 0001:00052a80       __AdjustPointer            0000000180053a80 f   libvcruntimed:ehhelpers.obj
 0001:00052b00       __FrameUnwindFilter        0000000180053b00 f   libvcruntimed:ehhelpers.obj
 0001:00052bb0       __GetPlatformExceptionInfo 0000000180053bb0 f   libvcruntimed:ehhelpers.obj
 0001:00052c60       __current_exception        0000000180053c60 f   libvcruntimed:ehhelpers.obj
 0001:00052c80       __current_exception_context 0000000180053c80 f   libvcruntimed:ehhelpers.obj
 0001:00052ca0       __processing_throw         0000000180053ca0 f   libvcruntimed:ehhelpers.obj
 0001:00052cc0       __std_terminate            0000000180053cc0 f   libvcruntimed:ehhelpers.obj
 0001:00052cd0       _is_exception_typeof       0000000180053cd0 f   libvcruntimed:ehhelpers.obj
 0001:00052e20       __C_specific_handler_noexcept 0000000180053e20 f   libvcruntimed:chandler_noexcept.obj
 0001:00052eb0       __vcrt_GetModuleFileNameW  0000000180053eb0 f   libvcruntimed:winapi_thunks.obj
 0001:00052ee0       __vcrt_GetModuleHandleW    0000000180053ee0 f   libvcruntimed:winapi_thunks.obj
 0001:00052f00       __vcrt_LoadLibraryExW      0000000180053f00 f   libvcruntimed:winapi_thunks.obj
 0001:00052f30       ??$?0$00@DName@@QEAA@PEBDU?$StringLifeSelector@$00@@@Z 0000000180053f30 f i libvcruntimed:undname.obj
 0001:00052fa0       ??$?0$00@pcharNode@@QEAA@PEBDHU?$StringLifeSelector@$00@@@Z 0000000180053fa0 f i libvcruntimed:undname.obj
 0001:00053000       ??$?0$01@DName@@QEAA@PEBDU?$StringLifeSelector@$01@@@Z 0000000180054000 f i libvcruntimed:undname.obj
 0001:00053070       ??$?0$01@pcharNode@@QEAA@PEBDHU?$StringLifeSelector@$01@@@Z 0000000180054070 f i libvcruntimed:undname.obj
 0001:00053120       ??$?0$0A@@DName@@QEAA@PEBDU?$StringLifeSelector@$0A@@@@Z 0000000180054120 f i libvcruntimed:undname.obj
 0001:00053190       ??$?0$0A@@pcharNode@@QEAA@PEBDHU?$StringLifeSelector@$0A@@@@Z 0000000180054190 f i libvcruntimed:undname.obj
 0001:00053240       ??$?0_K$0A@@?$optional@_K@std@@QEAA@$$QEA_K@Z 0000000180054240 f i libvcruntimed:undname.obj
 0001:00053290       ??$?0_K@?$_Optional_construct_base@_K@std@@QEAA@Uin_place_t@1@$$QEA_K@Z 0000000180054290 f i libvcruntimed:undname.obj
 0001:000532c0       ??$?0_K@?$_Optional_destruct_base@_K$00@std@@QEAA@Uin_place_t@1@$$QEA_K@Z 00000001800542c0 f i libvcruntimed:undname.obj
 0001:00053300       ??$append@VDNameNode@@@DName@@AEAAXPEBVDNameNode@@@Z 0000000180054300 f i libvcruntimed:undname.obj
 0001:000533b0       ??$append@VDNameStatusNode@@@DName@@AEAAXPEBVDNameStatusNode@@@Z 00000001800543b0 f i libvcruntimed:undname.obj
 0001:00053460       ??$append@VcharNode@@@DName@@AEAAXPEBVcharNode@@@Z 0000000180054460 f i libvcruntimed:undname.obj
 0001:00053510       ??$append@VpDNameNode@@@DName@@AEAAXPEBVpDNameNode@@@Z 0000000180054510 f i libvcruntimed:undname.obj
 0001:000535c0       ??$append@VpcharNode@@@DName@@AEAAXPEBVpcharNode@@@Z 00000001800545c0 f i libvcruntimed:undname.obj
 0001:00053670       ??$doPchar@$00@DName@@AEAAXPEBDH@Z 0000000180054670 f i libvcruntimed:undname.obj
 0001:000537d0       ??$doPchar@$01@DName@@AEAAXPEBDH@Z 00000001800547d0 f i libvcruntimed:undname.obj
 0001:00053930       ??$doPchar@$0A@@DName@@AEAAXPEBDH@Z 0000000180054930 f i libvcruntimed:undname.obj
 0001:00053a90       ??$forward@_K@std@@YA$$QEA_KAEA_K@Z 0000000180054a90 f i libvcruntimed:undname.obj
 0001:00053c20       ??$size@D$04@std@@YA_KAEAY04$$CBD@Z 0000000180054c20 f i libvcruntimed:undname.obj
 0001:00053c30       ??0?$_Optional_construct_base@_K@std@@QEAA@XZ 0000000180054c30 f i libvcruntimed:undname.obj
 0001:00053c50       ??0?$_Optional_destruct_base@_K$00@std@@QEAA@XZ 0000000180054c50 f i libvcruntimed:undname.obj
 0001:00053c80       ??0?$optional@_K@std@@QEAA@XZ 0000000180054c80 f i libvcruntimed:undname.obj
 0001:00053ca0       ??0Block@_HeapManager@@QEAA@XZ 0000000180054ca0 f i libvcruntimed:undname.obj
 0001:00053cc0       ??0DName@@QEAA@AEAPEBDD@Z  0000000180054cc0 f   libvcruntimed:undname.obj
 0001:00053e90       ??0DName@@QEAA@AEBUStringLiteral@@@Z 0000000180054e90 f   libvcruntimed:undname.obj
 0001:00053ef0       ??0DName@@QEAA@AEBV0@@Z    0000000180054ef0 f i libvcruntimed:undname.obj
 0001:00053f20       ??0DName@@QEAA@D@Z         0000000180054f20 f   libvcruntimed:undname.obj
 0001:00053f60       ??0DName@@QEAA@PEAV0@@Z    0000000180054f60 f   libvcruntimed:undname.obj
 0001:00054040       ??0DName@@QEAA@W4DNameStatus@@@Z 0000000180055040 f   libvcruntimed:undname.obj
 0001:000540f0       ??0DName@@QEAA@XZ          00000001800550f0 f i libvcruntimed:undname.obj
 0001:00054120       ??0DName@@QEAA@_J@Z        0000000180055120 f   libvcruntimed:undname.obj
 0001:00054230       ??0DName@@QEAA@_K@Z        0000000180055230 f   libvcruntimed:undname.obj
 0001:00054300       ??0DNameNode@@IEAA@XZ      0000000180055300 f i libvcruntimed:undname.obj
 0001:00054320       ??0Replicator@@QEAA@XZ     0000000180055320 f i libvcruntimed:undname.obj
 0001:00054360       ??0UnDecorator@@QEAA@PEBDP6APEADJ@ZK@Z 0000000180055360 f i libvcruntimed:undname.obj
 0001:00054410       ??0_Nontrivial_dummy_type@std@@QEAA@XZ 0000000180055410 f i libvcruntimed:undname.obj
 0001:00054420       ??0charNode@@QEAA@D@Z      0000000180055420 f i libvcruntimed:undname.obj
 0001:00054460       ??0pDNameNode@@QEAA@PEAVDName@@@Z 0000000180055460 f   libvcruntimed:undname.obj
 0001:000544e0       ??0pairNode@@QEAA@PEBVDNameNode@@0@Z 00000001800554e0 f i libvcruntimed:undname.obj
 0001:00054560       ??2@YAPEAX_KAEAV_HeapManager@@H@Z 0000000180055560 f   libvcruntimed:undname.obj
 0001:000545c0       ??4DName@@QEAAAEAV0@AEBUStringLiteral@@@Z 00000001800555c0 f   libvcruntimed:undname.obj
 0001:00054610       ??4DName@@QEAAAEAV0@AEBV0@@Z 0000000180055610 f   libvcruntimed:undname.obj
 0001:00054640       ??4DName@@QEAAAEAV0@D@Z    0000000180055640 f i libvcruntimed:undname.obj
 0001:00054680       ??4DName@@QEAAAEAV0@PEAV0@@Z 0000000180055680 f   libvcruntimed:undname.obj
 0001:00054750       ??4DName@@QEAAAEAV0@W4DNameStatus@@@Z 0000000180055750 f   libvcruntimed:undname.obj
 0001:000547e0       ??AReplicator@@QEBA?AVDName@@H@Z 00000001800557e0 f   libvcruntimed:undname.obj
 0001:00054870       ??B?$optional@_K@std@@QEBA_NXZ 0000000180055870 f i libvcruntimed:undname.obj
 0001:00054880       ??D?$_Optional_construct_base@_K@std@@QEGAAAEA_KXZ 0000000180055880 f i libvcruntimed:undname.obj
 0001:00054920       ??H@YA?AVDName@@AEBUStringLiteral@@AEBV0@@Z 0000000180055920 f i libvcruntimed:undname.obj
 0001:00054970       ??H@YA?AVDName@@DAEBV0@@Z  0000000180055970 f i libvcruntimed:undname.obj
 0001:000549c0       ??H@YA?AVDName@@W4DNameStatus@@AEBV0@@Z 00000001800559c0 f i libvcruntimed:undname.obj
 0001:00054a10       ??HDName@@QEBA?AV0@AEBUStringLiteral@@@Z 0000000180055a10 f   libvcruntimed:undname.obj
 0001:00054a60       ??HDName@@QEBA?AV0@AEBV0@@Z 0000000180055a60 f   libvcruntimed:undname.obj
 0001:00054ab0       ??HDName@@QEBA?AV0@D@Z     0000000180055ab0 f   libvcruntimed:undname.obj
 0001:00054b00       ??HDName@@QEBA?AV0@PEAV0@@Z 0000000180055b00 f   libvcruntimed:undname.obj
 0001:00054b50       ??HDName@@QEBA?AV0@W4DNameStatus@@@Z 0000000180055b50 f   libvcruntimed:undname.obj
 0001:00054ba0       ??HStringLiteral@@QEBA?AU0@H@Z 0000000180055ba0 f i libvcruntimed:undname.obj
 0001:00054be0       ??YDName@@QEAAAEAV0@AEBUStringLiteral@@@Z 0000000180055be0 f   libvcruntimed:undname.obj
 0001:00054cb0       ??YDName@@QEAAAEAV0@AEBV0@@Z 0000000180055cb0 f   libvcruntimed:undname.obj
 0001:00054d70       ??YDName@@QEAAAEAV0@D@Z    0000000180055d70 f   libvcruntimed:undname.obj
 0001:00054e10       ??YDName@@QEAAAEAV0@PEAV0@@Z 0000000180055e10 f   libvcruntimed:undname.obj
 0001:00054ef0       ??YDName@@QEAAAEAV0@W4DNameStatus@@@Z 0000000180055ef0 f   libvcruntimed:undname.obj
 0001:00054f60       ??YReplicator@@QEAAAEAV0@AEBVDName@@@Z 0000000180055f60 f   libvcruntimed:undname.obj
 0001:00055020       ??_5DName@@QEAAAEAV0@AEBV0@@Z 0000000180056020 f   libvcruntimed:undname.obj
 0001:00055090       ??__K_l@@YA?AUStringLiteral@@PEBD_K@Z 0000000180056090 f i libvcruntimed:undname.obj
 0001:000550e0       ?Constructor@_HeapManager@@QEAAXP6APEAX_K@ZP6AXPEAX@Z@Z 00000001800560e0 f i libvcruntimed:undname.obj
 0001:00055140       ?Destructor@_HeapManager@@QEAAXXZ 0000000180056140 f i libvcruntimed:undname.obj
 0001:000551e0       ?UScore@UnDecorator@@SA?AUStringLiteral@@W4Tokens@@@Z 00000001800561e0 f   libvcruntimed:undname.obj
 0001:00055270       ?composeDeclaration@UnDecorator@@CA?AVDName@@AEBV2@@Z 0000000180056270 f i libvcruntimed:undname.obj
 0001:00057770       ?dbGetString@DName@@QEBAPEADXZ 0000000180058770 f   libvcruntimed:undname.obj
 0001:000577a0       ?doAccessSpecifiers@UnDecorator@@SAHXZ 00000001800587a0 f i libvcruntimed:undname.obj
 0001:000577d0       ?doAllocationLanguage@UnDecorator@@SAHXZ 00000001800587d0 f i libvcruntimed:undname.obj
 0001:00057800       ?doAllocationModel@UnDecorator@@SAHXZ 0000000180058800 f i libvcruntimed:undname.obj
 0001:00057830       ?doEcsu@UnDecorator@@SAHXZ 0000000180058830 f i libvcruntimed:undname.obj
 0001:00057860       ?doEllipsis@UnDecorator@@SAHXZ 0000000180058860 f i libvcruntimed:undname.obj
 0001:00057890       ?doFunctionReturns@UnDecorator@@SAHXZ 0000000180058890 f i libvcruntimed:undname.obj
 0001:000578c0       ?doMSKeywords@UnDecorator@@SAHXZ 00000001800588c0 f i libvcruntimed:undname.obj
 0001:000578f0       ?doMemberTypes@UnDecorator@@SAHXZ 00000001800588f0 f i libvcruntimed:undname.obj
 0001:00057920       ?doNameOnly@UnDecorator@@SAHXZ 0000000180058920 f i libvcruntimed:undname.obj
 0001:00057930       ?doNoIdentCharCheck@UnDecorator@@SAHXZ 0000000180058930 f i libvcruntimed:undname.obj
 0001:00057940       ?doPchar@DName@@AEAAXD@Z   0000000180058940 f   libvcruntimed:undname.obj
 0001:000579d0       ?doPtr64@UnDecorator@@SAHXZ 00000001800589d0 f i libvcruntimed:undname.obj
 0001:00057a00       ?doRestrictionSpec@UnDecorator@@SAHXZ 0000000180058a00 f i libvcruntimed:undname.obj
 0001:00057a30       ?doThisTypes@UnDecorator@@SAHXZ 0000000180058a30 f i libvcruntimed:undname.obj
 0001:00057a60       ?doThrowTypes@UnDecorator@@SAHXZ 0000000180058a60 f i libvcruntimed:undname.obj
 0001:00057a90       ?doTypeOnly@UnDecorator@@SAHXZ 0000000180058a90 f i libvcruntimed:undname.obj
 0001:00057aa0       ?doUnderScore@UnDecorator@@SAHXZ 0000000180058aa0 f i libvcruntimed:undname.obj
 0001:00057ad0       ?getAddressOf@UnDecorator@@CA?AVDName@@XZ 0000000180058ad0 f   libvcruntimed:undname.obj
 0001:00057b70       ?getArgumentList@UnDecorator@@CA?AVDName@@XZ 0000000180058b70 f   libvcruntimed:undname.obj
 0001:00057d10       ?getArgumentTypes@UnDecorator@@CA?AVDName@@XZ 0000000180058d10 f   libvcruntimed:undname.obj
 0001:00057ff0       ?getArrayAccess@UnDecorator@@CA?AVDName@@XZ 0000000180058ff0 f   libvcruntimed:undname.obj
 0001:000580b0       ?getArrayObject@UnDecorator@@CA?AVDName@@XZ 00000001800590b0 f   libvcruntimed:undname.obj
 0001:000581d0       ?getArrayType@UnDecorator@@CA?AVDName@@AEBV2@@Z 00000001800591d0 f i libvcruntimed:undname.obj
 0001:00058590       ?getBasedType@UnDecorator@@CA?AVDName@@XZ 0000000180059590 f   libvcruntimed:undname.obj
 0001:00058700       ?getBasicDataType@UnDecorator@@CA?AVDName@@AEBV2@@Z 0000000180059700 f   libvcruntimed:undname.obj
 0001:00059510       ?getCHPEName@UnDecorator@@QEAAPEADPEADH@Z 000000018005a510 f i libvcruntimed:undname.obj
 0001:000596e0       ?getCallIndex@UnDecorator@@CA?AVDName@@XZ 000000018005a6e0 f i libvcruntimed:undname.obj
 0001:00059700       ?getCallingConvention@UnDecorator@@CA?AVDName@@XZ 000000018005a700 f   libvcruntimed:undname.obj
 0001:00059af0       ?getDataIndirectType@UnDecorator@@CA?AVDName@@AEBV2@W4IndirectionKind@@0H@Z 000000018005aaf0 f   libvcruntimed:undname.obj
 0001:0005a790       ?getDataIndirectType@UnDecorator@@CA?AVDName@@XZ 000000018005b790 f i libvcruntimed:undname.obj
 0001:0005a7e0       ?getDataType@UnDecorator@@CA?AVDName@@PEAV2@@Z 000000018005b7e0 f   libvcruntimed:undname.obj
 0001:0005a9c0       ?getDecoratedName@UnDecorator@@CA?AVDName@@XZ 000000018005b9c0 f   libvcruntimed:undname.obj
 0001:0005aeb0       ?getDimension@UnDecorator@@CA?AVDName@@_N@Z 000000018005beb0 f   libvcruntimed:undname.obj
 0001:0005b1c0       ?getDispatchTarget@UnDecorator@@CA?AVDName@@XZ 000000018005c1c0 f   libvcruntimed:undname.obj
 0001:0005b290       ?getDisplacement@UnDecorator@@CA?AVDName@@XZ 000000018005c290 f i libvcruntimed:undname.obj
 0001:0005b2b0       ?getECSUDataType@UnDecorator@@CA?AVDName@@XZ 000000018005c2b0 f   libvcruntimed:undname.obj
 0001:0005b640       ?getECSUName@UnDecorator@@CA?AVDName@@XZ 000000018005c640 f i libvcruntimed:undname.obj
 0001:0005b660       ?getEnumType@UnDecorator@@CA?AVDName@@XZ 000000018005c660 f i libvcruntimed:undname.obj
 0001:0005b8f0       ?getExtendedDataIndirectType@UnDecorator@@CA?AVDName@@AEAW4IndirectionKind@@AEA_NH@Z 000000018005c8f0 f   libvcruntimed:undname.obj
 0001:0005bc10       ?getExternalDataType@UnDecorator@@CA?AVDName@@AEBV2@@Z 000000018005cc10 f i libvcruntimed:undname.obj
 0001:0005bcf0       ?getFloatingPoint@UnDecorator@@CA?AVDName@@H@Z 000000018005ccf0 f   libvcruntimed:undname.obj
 0001:0005be80       ?getFunctionIndirectType@UnDecorator@@CA?AVDName@@AEBV2@@Z 000000018005ce80 f   libvcruntimed:undname.obj
 0001:0005c4b0       ?getGuardNumber@UnDecorator@@CA?AVDName@@XZ 000000018005d4b0 f i libvcruntimed:undname.obj
 0001:0005c4d0       ?getLastChar@DName@@QEBADXZ 000000018005d4d0 f i libvcruntimed:undname.obj
 0001:0005c520       ?getLastChar@DNameStatusNode@@UEBADXZ 000000018005d520 f i libvcruntimed:undname.obj
 0001:0005c560       ?getLastChar@charNode@@UEBADXZ 000000018005d560 f i libvcruntimed:undname.obj
 0001:0005c570       ?getLastChar@pDNameNode@@UEBADXZ 000000018005d570 f i libvcruntimed:undname.obj
 0001:0005c5b0       ?getLastChar@pairNode@@UEBADXZ 000000018005d5b0 f i libvcruntimed:undname.obj
 0001:0005c630       ?getLastChar@pcharNode@@UEBADXZ 000000018005d630 f i libvcruntimed:undname.obj
 0001:0005c670       ?getLexicalFrame@UnDecorator@@CA?AVDName@@XZ 000000018005d670 f i libvcruntimed:undname.obj
 0001:0005c6c0       ?getMemberAccess@UnDecorator@@CA?AVDName@@XZ 000000018005d6c0 f   libvcruntimed:undname.obj
 0001:0005c770       ?getMemoryWithBuffer@_HeapManager@@QEAAPEAX_K@Z 000000018005d770 f   libvcruntimed:undname.obj
 0001:0005c8c0       ?getMemoryWithoutBuffer@_HeapManager@@QEAAPEAX_K@Z 000000018005d8c0 f   libvcruntimed:undname.obj
 0001:0005c910       ?getNoexcept@UnDecorator@@CA?AVDName@@XZ 000000018005d910 f   libvcruntimed:undname.obj
 0001:0005c9c0       ?getNumberOfDimensions@UnDecorator@@CAHXZ 000000018005d9c0 f   libvcruntimed:undname.obj
 0001:0005cae0       ?getOperatorName@UnDecorator@@CA?AVDName@@_NPEA_N@Z 000000018005dae0 f i libvcruntimed:undname.obj
 0001:0005dad0       ?getPointerToMember@UnDecorator@@CA?AVDName@@XZ 000000018005ead0 f   libvcruntimed:undname.obj
 0001:0005dc20       ?getPointerType@UnDecorator@@CA?AVDName@@AEBV2@0@Z 000000018005ec20 f i libvcruntimed:undname.obj
 0001:0005dc60       ?getPointerTypeArray@UnDecorator@@CA?AVDName@@AEBV2@0@Z 000000018005ec60 f i libvcruntimed:undname.obj
 0001:0005dca0       ?getPrimaryDataType@UnDecorator@@CA?AVDName@@AEBV2@@Z 000000018005eca0 f   libvcruntimed:undname.obj
 0001:0005e2d0       ?getPtrRefDataType@UnDecorator@@CA?AVDName@@AEBV2@H@Z 000000018005f2d0 f   libvcruntimed:undname.obj
 0001:0005e6c0       ?getPtrRefType@UnDecorator@@CA?AVDName@@AEBV2@0W4IndirectionKind@@@Z 000000018005f6c0 f   libvcruntimed:undname.obj
 0001:0005e900       ?getReferenceType@UnDecorator@@CA?AVDName@@AEBV2@0W4IndirectionKind@@@Z 000000018005f900 f i libvcruntimed:undname.obj
 0001:0005e940       ?getRestrictionSpec@UnDecorator@@CA?AVDName@@XZ 000000018005f940 f   libvcruntimed:undname.obj
 0001:0005ebd0       ?getReturnType@UnDecorator@@CA?AVDName@@PEAV2@@Z 000000018005fbd0 f   libvcruntimed:undname.obj
 0001:0005ec30       ?getScope@UnDecorator@@CA?AVDName@@XZ 000000018005fc30 f   libvcruntimed:undname.obj
 0001:0005f390       ?getScopedName@UnDecorator@@CA?AVDName@@XZ 0000000180060390 f   libvcruntimed:undname.obj
 0001:0005f590       ?getSignedDimension@UnDecorator@@CA?AVDName@@XZ 0000000180060590 f   libvcruntimed:undname.obj
 0001:0005f620       ?getStorageConvention@UnDecorator@@CA?AVDName@@XZ 0000000180060620 f i libvcruntimed:undname.obj
 0001:0005f640       ?getString@DName@@QEBAPEADPEAD0@Z 0000000180060640 f i libvcruntimed:undname.obj
 0001:0005f6c0       ?getString@DName@@QEBAPEADPEADH@Z 00000001800606c0 f i libvcruntimed:undname.obj
 0001:0005f780       ?getString@DNameStatusNode@@UEBAPEADPEAD0@Z 0000000180060780 f i libvcruntimed:undname.obj
 0001:0005f7d0       ?getString@charNode@@UEBAPEADPEAD0@Z 00000001800607d0 f i libvcruntimed:undname.obj
 0001:0005f810       ?getString@pDNameNode@@UEBAPEADPEAD0@Z 0000000180060810 f i libvcruntimed:undname.obj
 0001:0005f870       ?getString@pairNode@@UEBAPEADPEAD0@Z 0000000180060870 f i libvcruntimed:undname.obj
 0001:0005f940       ?getString@pcharNode@@UEBAPEADPEAD0@Z 0000000180060940 f i libvcruntimed:undname.obj
 0001:0005f980       ?getStringEncoding@UnDecorator@@CA?AVDName@@W4PrefixKind@@H@Z 0000000180060980 f   libvcruntimed:undname.obj
 0001:0005fae0       ?getStringHelper@@YAPEADPEADPEBD1H@Z 0000000180060ae0 f i libvcruntimed:undname.obj
 0001:0005fb50       ?getStringObject@UnDecorator@@CA?AVDName@@XZ 0000000180060b50 f   libvcruntimed:undname.obj
 0001:0005fc30       ?getSymbolName@UnDecorator@@CA?AVDName@@XZ 0000000180060c30 f i libvcruntimed:undname.obj
 0001:0005fcd0       ?getTemplateArgumentList@UnDecorator@@CA?AVDName@@XZ 0000000180060cd0 f   libvcruntimed:undname.obj
 0001:00060010       ?getTemplateName@UnDecorator@@CA?AVDName@@_N@Z 0000000180061010 f   libvcruntimed:undname.obj
 0001:00060250       ?getTemplateNonTypeArgument@UnDecorator@@CA?AVDName@@XZ 0000000180061250 f   libvcruntimed:undname.obj
 0001:00060b00       ?getTemplateTypeArgument@UnDecorator@@CA?AVDName@@XZ 0000000180061b00 f   libvcruntimed:undname.obj
 0001:00060d90       ?getThisType@UnDecorator@@CA?AVDName@@XZ 0000000180061d90 f i libvcruntimed:undname.obj
 0001:00060de0       ?getThrowTypes@UnDecorator@@CA?AVDName@@XZ 0000000180061de0 f   libvcruntimed:undname.obj
 0001:00060e30       ?getTypeEncoding@UnDecorator@@CAHXZ 0000000180061e30 f i libvcruntimed:undname.obj
 0001:00061a90       ?getUndecoratedName@UnDecorator@@QEAAPEADPEADH@Z 0000000180062a90 f i libvcruntimed:undname.obj
 0001:00061c80       ?getUnionObject@UnDecorator@@CA?AVDName@@XZ 0000000180062c80 f   libvcruntimed:undname.obj
 0001:00061d90       ?getVCallThunkType@UnDecorator@@CA?AVDName@@XZ 0000000180062d90 f i libvcruntimed:undname.obj
 0001:00061e40       ?getValue@UnDecorator@@CA?AV?$optional@_K@std@@XZ 0000000180062e40 f   libvcruntimed:undname.obj
 0001:00061f10       ?getValueObject@UnDecorator@@CA?AVDName@@XZ 0000000180062f10 f   libvcruntimed:undname.obj
 0001:00062130       ?getVbTableType@UnDecorator@@CA?AVDName@@AEBV2@@Z 0000000180063130 f i libvcruntimed:undname.obj
 0001:00062160       ?getVdispMapType@UnDecorator@@CA?AVDName@@AEBV2@@Z 0000000180063160 f i libvcruntimed:undname.obj
 0001:00062220       ?getVfTableType@UnDecorator@@CA?AVDName@@AEBV2@@Z 0000000180063220 f i libvcruntimed:undname.obj
 0001:000624c0       ?getZName@UnDecorator@@CA?AVDName@@_N0@Z 00000001800634c0 f   libvcruntimed:undname.obj
 0001:00062940       ?haveTemplateParameters@UnDecorator@@SAHXZ 0000000180063940 f i libvcruntimed:undname.obj
 0001:00062950       ?isArray@DName@@QEBAHXZ    0000000180063950 f i libvcruntimed:undname.obj
 0001:00062970       ?isComArray@DName@@QEBAHXZ 0000000180063970 f i libvcruntimed:undname.obj
 0001:00062990       ?isEmpty@DName@@QEBAHXZ    0000000180063990 f i libvcruntimed:undname.obj
 0001:000629c0       ?isFull@Replicator@@QEBAHXZ 00000001800639c0 f i libvcruntimed:undname.obj
 0001:000629f0       ?isNoTE@DName@@QEBAHXZ     00000001800639f0 f i libvcruntimed:undname.obj
 0001:00062a10       ?isPinPtr@DName@@QEBAHXZ   0000000180063a10 f i libvcruntimed:undname.obj
 0001:00062a30       ?isPtrRef@DName@@QEBAHXZ   0000000180063a30 f i libvcruntimed:undname.obj
 0001:00062a50       ?isUDC@DName@@QEBAHXZ      0000000180063a50 f i libvcruntimed:undname.obj
 0001:00062aa0       ?isUDTThunk@DName@@QEBAHXZ 0000000180063aa0 f i libvcruntimed:undname.obj
 0001:00062af0       ?isVCallThunk@DName@@QEBAHXZ 0000000180063af0 f i libvcruntimed:undname.obj
 0001:00062b10       ?isValid@DName@@QEBAHXZ    0000000180063b10 f i libvcruntimed:undname.obj
 0001:00062b50       ?length@DName@@QEBAHXZ     0000000180063b50 f i libvcruntimed:undname.obj
 0001:00062ba0       ?length@DNameStatusNode@@UEBAHXZ 0000000180063ba0 f i libvcruntimed:undname.obj
 0001:00062bb0       ?length@charNode@@UEBAHXZ  0000000180063bb0 f i libvcruntimed:undname.obj
 0001:00062bc0       ?length@pDNameNode@@UEBAHXZ 0000000180063bc0 f i libvcruntimed:undname.obj
 0001:00062c00       ?length@pairNode@@UEBAHXZ  0000000180063c00 f i libvcruntimed:undname.obj
 0001:00062c90       ?length@pcharNode@@UEBAHXZ 0000000180063c90 f i libvcruntimed:undname.obj
 0001:00062ca0       ?make@DNameStatusNode@@SAPEBV1@W4DNameStatus@@@Z 0000000180063ca0 f i libvcruntimed:undname.obj
 0001:00062cf0       ?parseDecoratedName@UnDecorator@@CA?AVDName@@XZ 0000000180063cf0 f   libvcruntimed:undname.obj
 0001:00062ee0       ?raw_length@DNameStatusNode@@UEBAHXZ 0000000180063ee0 f i libvcruntimed:undname.obj
 0001:00062f00       ?raw_length@charNode@@UEBAHXZ 0000000180063f00 f i libvcruntimed:undname.obj
 0001:00062f20       ?raw_length@pDNameNode@@UEBAHXZ 0000000180063f20 f i libvcruntimed:undname.obj
 0001:00062f30       ?raw_length@pairNode@@UEBAHXZ 0000000180063f30 f i libvcruntimed:undname.obj
 0001:00062f40       ?raw_length@pcharNode@@UEBAHXZ 0000000180063f40 f i libvcruntimed:undname.obj
 0001:00062f60       ?setIsArray@DName@@QEAAXXZ 0000000180063f60 f i libvcruntimed:undname.obj
 0001:00062f80       ?setIsComArray@DName@@QEAAXXZ 0000000180063f80 f i libvcruntimed:undname.obj
 0001:00062fa0       ?setIsNoTE@DName@@QEAAXXZ  0000000180063fa0 f i libvcruntimed:undname.obj
 0001:00062fc0       ?setIsPinPtr@DName@@QEAAXXZ 0000000180063fc0 f i libvcruntimed:undname.obj
 0001:00062fe0       ?setIsUDC@DName@@QEAAXXZ   0000000180063fe0 f i libvcruntimed:undname.obj
 0001:00063010       ?setIsVCallThunk@DName@@QEAAXXZ 0000000180064010 f i libvcruntimed:undname.obj
 0001:00063030       ?setPtrRef@DName@@QEAAAEAV1@XZ 0000000180064030 f i libvcruntimed:undname.obj
 0001:00063050       ?status@DName@@QEBA?AW4DNameStatus@@XZ 0000000180064050 f i libvcruntimed:undname.obj
 0001:00063180       __unDName                  0000000180064180 f   libvcruntimed:undname.obj
 0001:000631e0       __unDNameEx                00000001800641e0 f   libvcruntimed:undname.obj
 0001:000632a0       snprintf                   00000001800642a0 f i libvcruntimed:undname.obj
 0001:00063300       unDNameGenerateCHPE        0000000180064300 f   libvcruntimed:undname.obj
 0001:000633b0       vsnprintf                  00000001800643b0 f i libvcruntimed:undname.obj
 0001:00063440       _NLG_Notify                0000000180064440 f   libvcruntimed:notify.obj
 0001:00063460       __NLG_Dispatch2            0000000180064460 f   libvcruntimed:notify.obj
 0001:00063470       __NLG_Return2              0000000180064470 f   libvcruntimed:notify.obj
 0001:00063490       __except_validate_context_record 0000000180064490 f   libvcruntimed:jbcxrval.obj
 0001:000634f0       __except_validate_jump_buffer 00000001800644f0 f   libvcruntimed:jbcxrval.obj
 0001:00063510       __except_validate_jump_buffer_common 0000000180064510 f i libvcruntimed:jbcxrval.obj
 0001:00063590       ??$?RU__vcrt_ptd@@@__crt_internal_free_policy@@QEBAXQEBU__vcrt_ptd@@@Z 0000000180064590 f i libvcruntimed:per_thread_data.obj
 0001:000635c0       ??0?$__crt_unique_heap_ptr@U__vcrt_ptd@@U__crt_internal_free_policy@@@@QEAA@QEAU__vcrt_ptd@@@Z 00000001800645c0 f i libvcruntimed:per_thread_data.obj
 0001:00063600       ??1?$__crt_unique_heap_ptr@U__vcrt_ptd@@U__crt_internal_free_policy@@@@QEAA@XZ 0000000180064600 f i libvcruntimed:per_thread_data.obj
 0001:00063640       ??B?$__crt_unique_heap_ptr@U__vcrt_ptd@@U__crt_internal_free_policy@@@@QEBA_NXZ 0000000180064640 f i libvcruntimed:per_thread_data.obj
 0001:00063660       ?detach@?$__crt_unique_heap_ptr@U__vcrt_ptd@@U__crt_internal_free_policy@@@@QEAAPEAU__vcrt_ptd@@XZ 0000000180064660 f i libvcruntimed:per_thread_data.obj
 0001:00063690       ?get@?$__crt_unique_heap_ptr@U__vcrt_ptd@@U__crt_internal_free_policy@@@@QEBAPEAU__vcrt_ptd@@XZ 0000000180064690 f i libvcruntimed:per_thread_data.obj
 0001:000636a0       ?is_valid@?$__crt_unique_heap_ptr@U__vcrt_ptd@@U__crt_internal_free_policy@@@@QEBA_NXZ 00000001800646a0 f i libvcruntimed:per_thread_data.obj
 0001:000636d0       ?release@?$__crt_unique_heap_ptr@U__vcrt_ptd@@U__crt_internal_free_policy@@@@QEAAXXZ 00000001800646d0 f i libvcruntimed:per_thread_data.obj
 0001:00063740       __vcrt_freefls             0000000180064740 f   libvcruntimed:per_thread_data.obj
 0001:00063780       __vcrt_freeptd             0000000180064780 f   libvcruntimed:per_thread_data.obj
 0001:000637e0       __vcrt_getptd              00000001800647e0 f   libvcruntimed:per_thread_data.obj
 0001:00063810       __vcrt_getptd_noexit       0000000180064810 f   libvcruntimed:per_thread_data.obj
 0001:000639b0       __vcrt_getptd_noinit       00000001800649b0 f   libvcruntimed:per_thread_data.obj
 0001:00063a10       __vcrt_initialize_ptd      0000000180064a10 f   libvcruntimed:per_thread_data.obj
 0001:00063a60       __vcrt_uninitialize_ptd    0000000180064a60 f   libvcruntimed:per_thread_data.obj
 0001:00063a90       __vcrt_initialize_locks    0000000180064a90 f   libvcruntimed:locks.obj
 0001:00063b00       __vcrt_lock                0000000180064b00 f   libvcruntimed:locks.obj
 0001:00063b30       __vcrt_uninitialize_locks  0000000180064b30 f   libvcruntimed:locks.obj
 0001:00063b90       __vcrt_unlock              0000000180064b90 f   libvcruntimed:locks.obj
 0001:00063bc0       ??$?0AEAViterator@TryBlockMap4@FH4@@AEAV012@$0A@@?$pair@Viterator@TryBlockMap4@FH4@@V123@@std@@QEAA@AEAViterator@TryBlockMap4@FH4@@0@Z 0000000180064bc0 f i libvcruntimed:risctrnsctrl.obj
 0001:00063c20       ??$?0AEAViterator@TryBlockMap@__FrameHandler3@@AEAV012@$0A@@?$pair@Viterator@TryBlockMap@__FrameHandler3@@V123@@std@@QEAA@AEAViterator@TryBlockMap@__FrameHandler3@@0@Z 0000000180064c20 f i libvcruntimed:risctrnsctrl.obj
 0001:00063df0       ??$_CallSETranslator@V__FrameHandler3@@@@YAHPEAUEHExceptionRecord@@PEA_KPEAU_CONTEXT@@PEAU_xDISPATCHER_CONTEXT@@PEBU_s_FuncInfo@@K1H@Z 0000000180064df0 f i libvcruntimed:risctrnsctrl.obj
 0001:00063e80       ??$_CallSETranslator@V__FrameHandler4@@@@YAHPEAUEHExceptionRecord@@PEA_KPEAU_CONTEXT@@PEAU_xDISPATCHER_CONTEXT@@PEAUFuncInfo4@FH4@@K1H@Z 0000000180064e80 f i libvcruntimed:risctrnsctrl.obj
 0001:00063f10       ??$forward@AEAViterator@TryBlockMap4@FH4@@@std@@YAAEAViterator@TryBlockMap4@FH4@@AEAV123@@Z 0000000180064f10 f i libvcruntimed:risctrnsctrl.obj
 0001:00063f20       ??$forward@AEAViterator@TryBlockMap@__FrameHandler3@@@std@@YAAEAViterator@TryBlockMap@__FrameHandler3@@AEAV123@@Z 0000000180064f20 f i libvcruntimed:risctrnsctrl.obj
 0001:00063f30       ??0FuncInfo4@FH4@@QEAA@XZ  0000000180064f30 f i libvcruntimed:risctrnsctrl.obj
 0001:00063fa0       ??0FuncInfoHeader@FH4@@QEAA@XZ 0000000180064fa0 f i libvcruntimed:risctrnsctrl.obj
 0001:00063fc0       ??0iterator@TryBlockMap4@FH4@@QEAA@AEAV12@I@Z 0000000180064fc0 f i libvcruntimed:risctrnsctrl.obj
 0001:00063ff0       ??0iterator@TryBlockMap@__FrameHandler3@@QEAA@AEAV12@I@Z 0000000180064ff0 f i libvcruntimed:risctrnsctrl.obj
 0001:00064020       ??4iterator@TryBlockMap4@FH4@@QEAAAEAV012@AEBV012@@Z 0000000180065020 f i libvcruntimed:risctrnsctrl.obj
 0001:00064040       ??9iterator@TryBlockMap4@FH4@@QEBA_NAEBV012@@Z 0000000180065040 f i libvcruntimed:risctrnsctrl.obj
 0001:00064080       ??Diterator@TryBlockMap4@FH4@@QEAA?AUTryBlockMapEntry4@2@XZ 0000000180065080 f i libvcruntimed:risctrnsctrl.obj
 0001:000640b0       ??Eiterator@TryBlockMap4@FH4@@QEAAAEAV012@XZ 00000001800650b0 f i libvcruntimed:risctrnsctrl.obj
 0001:000640f0       ?CatchTryBlock@__FrameHandler3@@SAPEBU_s_TryBlockMapEntry@@PEBU_s_FuncInfo@@H@Z 00000001800650f0 f   libvcruntimed:risctrnsctrl.obj
 0001:00064180       ?DecompFuncInfo@FH4@@YA_JPEAEAEAUFuncInfo4@1@_KH@Z 0000000180065180 f i libvcruntimed:risctrnsctrl.obj
 0001:000641c0       ?DecompFuncInfo@FH4@@YA_JPEAEAEAUFuncInfo4@1@_KH_N@Z 00000001800651c0 f i libvcruntimed:risctrnsctrl.obj
 0001:00064390       ?DecompTryBlock@TryBlockMap4@FH4@@AEAAXXZ 0000000180065390 f i libvcruntimed:risctrnsctrl.obj
 0001:00064410       ?ExecutionInCatch@__FrameHandler3@@SA_NPEAU_xDISPATCHER_CONTEXT@@PEBU_s_FuncInfo@@@Z 0000000180065410 f   libvcruntimed:risctrnsctrl.obj
 0001:00064460       ?ExecutionInCatch@__FrameHandler4@@SA_NPEAU_xDISPATCHER_CONTEXT@@PEAUFuncInfo4@FH4@@@Z 0000000180065460 f   libvcruntimed:risctrnsctrl.obj
 0001:00064480       ?FrameUnwindToEmptyState@__FrameHandler3@@SAXPEA_KPEAU_xDISPATCHER_CONTEXT@@PEBU_s_FuncInfo@@@Z 0000000180065480 f   libvcruntimed:risctrnsctrl.obj
 0001:00064520       ?FrameUnwindToEmptyState@__FrameHandler4@@SAXPEA_KPEAU_xDISPATCHER_CONTEXT@@PEAUFuncInfo4@FH4@@@Z 0000000180065520 f   libvcruntimed:risctrnsctrl.obj
 0001:00064570       ?GetEstablisherFrame@__FrameHandler3@@SAPEA_KPEA_KPEAU_xDISPATCHER_CONTEXT@@PEBU_s_FuncInfo@@0@Z 0000000180065570 f   libvcruntimed:risctrnsctrl.obj
 0001:000646e0       ?GetEstablisherFrame@__FrameHandler4@@SAPEA_KPEA_KPEAU_xDISPATCHER_CONTEXT@@PEAUFuncInfo4@FH4@@0@Z 00000001800656e0 f   libvcruntimed:risctrnsctrl.obj
 0001:00064750       ?GetRangeOfTrysToCheck@__FrameHandler3@@SA?AU?$pair@Viterator@TryBlockMap@__FrameHandler3@@V123@@std@@AEAVTryBlockMap@1@HPEAU_xDISPATCHER_CONTEXT@@PEBU_s_FuncInfo@@H@Z 0000000180065750 f   libvcruntimed:risctrnsctrl.obj
 0001:00064990       ?GetRangeOfTrysToCheck@__FrameHandler4@@SA?AU?$pair@Viterator@TryBlockMap4@FH4@@V123@@std@@AEAVTryBlockMap4@FH4@@HPEAU_xDISPATCHER_CONTEXT@@PEAUFuncInfo4@5@H@Z 0000000180065990 f   libvcruntimed:risctrnsctrl.obj
 0001:00064b40       ?ReadInt@FH4@@YAHPEAPEAE@Z 0000000180065b40 f i libvcruntimed:risctrnsctrl.obj
 0001:00064b80       ?ReadUnsigned@FH4@@YAIPEAPEAE@Z 0000000180065b80 f i libvcruntimed:risctrnsctrl.obj
 0001:00064c10       ?UnwindNestedFrames@__FrameHandler3@@SAXPEA_KPEAUEHExceptionRecord@@PEAU_CONTEXT@@0PEAXPEBU_s_FuncInfo@@HHPEBU_s_HandlerType@@PEAU_xDISPATCHER_CONTEXT@@E@Z 0000000180065c10 f   libvcruntimed:risctrnsctrl.obj
 0001:00064d80       ?UnwindNestedFrames@__FrameHandler4@@SAXPEA_KPEAUEHExceptionRecord@@PEAU_CONTEXT@@0PEAXPEAUFuncInfo4@FH4@@HHPEAUHandlerType4@5@PEAU_xDISPATCHER_CONTEXT@@E@Z 0000000180065d80 f   libvcruntimed:risctrnsctrl.obj
 0001:00064f50       ?begin@TryBlockMap4@FH4@@QEAA?AViterator@12@XZ 0000000180065f50 f i libvcruntimed:risctrnsctrl.obj
 0001:00064f80       ?end@TryBlockMap4@FH4@@QEAA?AViterator@12@XZ 0000000180065f80 f i libvcruntimed:risctrnsctrl.obj
 0001:00064fb0       ?imageRelToByteBuffer@FH4@@YAPEAE_KH@Z 0000000180065fb0 f i libvcruntimed:risctrnsctrl.obj
 0001:00064fd0       ?incrementToSentinel@iterator@TryBlockMap4@FH4@@QEAAXXZ 0000000180065fd0 f i libvcruntimed:risctrnsctrl.obj
 0001:00064ff0       ?setBuffer@TryBlockMap4@FH4@@QEAAXViterator@12@@Z 0000000180065ff0 f i libvcruntimed:risctrnsctrl.obj
 0001:00065060       _CreateFrameInfo           0000000180066060 f   libvcruntimed:risctrnsctrl.obj
 0001:000650d0       _FindAndUnlinkFrame        00000001800660d0 f   libvcruntimed:risctrnsctrl.obj
 0001:00065150       _GetImageBase              0000000180066150 f   libvcruntimed:risctrnsctrl.obj
 0001:00065170       _GetThrowImageBase         0000000180066170 f   libvcruntimed:risctrnsctrl.obj
 0001:00065190       _SetImageBase              0000000180066190 f   libvcruntimed:risctrnsctrl.obj
 0001:000651b0       _SetThrowImageBase         00000001800661b0 f   libvcruntimed:risctrnsctrl.obj
 0001:000651d0       __CxxFrameHandler          00000001800661d0 f   libvcruntimed:risctrnsctrl.obj
 0001:00065210       __CxxFrameHandler2         0000000180066210 f   libvcruntimed:risctrnsctrl.obj
 0001:00065250       __CxxFrameHandler3         0000000180066250 f   libvcruntimed:risctrnsctrl.obj
 0001:00065330       __CxxFrameHandler4         0000000180066330 f   libvcruntimed:risctrnsctrl.obj
 0001:00065440       ??$__crt_interlocked_exchange_pointer@UHINSTANCE__@@PEAU1@@@YAPEAUHINSTANCE__@@PEDSEAU0@QEAU0@@Z 0000000180066440 f i libvcruntimed:winapi_downlevel.obj
 0001:00065460       ??$__crt_interlocked_exchange_pointer@UHINSTANCE__@@PEAX@@YAPEAUHINSTANCE__@@PEDSEAU0@QEAX@Z 0000000180066460 f i libvcruntimed:winapi_downlevel.obj
 0001:00065480       ??$__crt_interlocked_exchange_pointer@XPEAX@@YAPEAXPEDSEAXQEAX@Z 0000000180066480 f i libvcruntimed:winapi_downlevel.obj
 0001:000654a0       ??$__crt_interlocked_read_pointer@UHINSTANCE__@@@@YAPEAUHINSTANCE__@@PEDSEAU0@@Z 00000001800664a0 f i libvcruntimed:winapi_downlevel.obj
 0001:000654c0       ??$__crt_interlocked_read_pointer@X@@YAPEAXPEDSEAX@Z 00000001800664c0 f i libvcruntimed:winapi_downlevel.obj
 0001:000659d0       __vcrt_FlsAlloc            00000001800669d0 f   libvcruntimed:winapi_downlevel.obj
 0001:00065a20       __vcrt_FlsFree             0000000180066a20 f   libvcruntimed:winapi_downlevel.obj
 0001:00065a70       __vcrt_FlsGetValue         0000000180066a70 f   libvcruntimed:winapi_downlevel.obj
 0001:00065ac0       __vcrt_FlsSetValue         0000000180066ac0 f   libvcruntimed:winapi_downlevel.obj
 0001:00065b20       __vcrt_InitializeCriticalSectionEx 0000000180066b20 f   libvcruntimed:winapi_downlevel.obj
 0001:00065b90       ?GetCurrentState@__FrameHandler3@@SAHPEA_KPEAU_xDISPATCHER_CONTEXT@@PEBU_s_FuncInfo@@@Z 0000000180066b90 f   libvcruntimed:ehstate.obj
 0001:00065bf0       ?GetUnwindTryBlock@__FrameHandler3@@SAHPEA_KPEAU_xDISPATCHER_CONTEXT@@PEBU_s_FuncInfo@@@Z 0000000180066bf0 f   libvcruntimed:ehstate.obj
 0001:00065c40       ?SetState@__FrameHandler3@@SAXPEA_KPEBU_s_FuncInfo@@H@Z 0000000180066c40 f   libvcruntimed:ehstate.obj
 0001:00065c70       ?SetUnwindTryBlock@__FrameHandler3@@SAXPEA_KPEAU_xDISPATCHER_CONTEXT@@PEBU_s_FuncInfo@@H@Z 0000000180066c70 f   libvcruntimed:ehstate.obj
 0001:00065ce0       ?StateFromControlPc@__FrameHandler3@@SAHPEBU_s_FuncInfo@@PEAU_xDISPATCHER_CONTEXT@@@Z 0000000180066ce0 f   libvcruntimed:ehstate.obj
 0001:00065d20       ?StateFromControlPc@__FrameHandler4@@SAHPEAUFuncInfo4@FH4@@PEAU_xDISPATCHER_CONTEXT@@@Z 0000000180066d20 f   libvcruntimed:ehstate.obj
 0001:00065d60       ?StateFromIp@__FrameHandler3@@SAHPEBU_s_FuncInfo@@PEAU_xDISPATCHER_CONTEXT@@_K@Z 0000000180066d60 f   libvcruntimed:ehstate.obj
 0001:00065e50       ?StateFromIp@__FrameHandler4@@SAHPEAUFuncInfo4@FH4@@PEAU_xDISPATCHER_CONTEXT@@_K@Z 0000000180066e50 f   libvcruntimed:ehstate.obj
 0001:00065f40       ?__FuncRelToRealOffset@@YA_KPEAU_xDISPATCHER_CONTEXT@@I@Z 0000000180066f40 f i libvcruntimed:ehstate.obj
 0001:00065f70       ?__RVAtoRealOffset@@YA_KPEAU_xDISPATCHER_CONTEXT@@H@Z 0000000180066f70 f i libvcruntimed:ehstate.obj
 0001:000681d0       ??$TypeMatchHelper@V__FrameHandler3@@@@YAHPEBU_s_HandlerType@@PEBU_s_CatchableType@@PEBU_s_ThrowInfo@@@Z 00000001800691d0 f i libvcruntimed:frame.obj
 0001:000683d0       ??$TypeMatchHelper@V__FrameHandler4@@@@YAHPEAUHandlerType4@FH4@@PEBU_s_CatchableType@@PEBU_s_ThrowInfo@@@Z 00000001800693d0 f i libvcruntimed:frame.obj
 0001:000685e0       ??$__InternalCxxFrameHandler@V__FrameHandler3@@@@YA?AW4_EXCEPTION_DISPOSITION@@PEAUEHExceptionRecord@@PEA_KPEAU_CONTEXT@@PEAU_xDISPATCHER_CONTEXT@@PEBU_s_FuncInfo@@H1E@Z 00000001800695e0 f i libvcruntimed:frame.obj
 0001:00068a50       ??$__InternalCxxFrameHandler@V__FrameHandler4@@@@YA?AW4_EXCEPTION_DISPOSITION@@PEAUEHExceptionRecord@@PEA_KPEAU_CONTEXT@@PEAU_xDISPATCHER_CONTEXT@@PEAUFuncInfo4@FH4@@H1E@Z 0000000180069a50 f i libvcruntimed:frame.obj
 0001:00068ee0       ??0HandlerMap4@FH4@@QEAA@PEBUTryBlockMapEntry4@1@_KH@Z 0000000180069ee0 f i libvcruntimed:frame.obj
 0001:00068fa0       ??0HandlerMap@__FrameHandler3@@QEAA@PEBU_s_TryBlockMapEntry@@_KI@Z 0000000180069fa0 f i libvcruntimed:frame.obj
 0001:00068ff0       ??0HandlerType4@FH4@@QEAA@XZ 0000000180069ff0 f i libvcruntimed:frame.obj
 0001:00069010       ??0TryBlockMap4@FH4@@QEAA@PEBUFuncInfo4@1@_K@Z 000000018006a010 f i libvcruntimed:frame.obj
 0001:000690a0       ??0TryBlockMap@__FrameHandler3@@QEAA@PEBU_s_FuncInfo@@_K@Z 000000018006a0a0 f i libvcruntimed:frame.obj
 0001:000690d0       ??0UWMap4@FH4@@QEAA@PEBUFuncInfo4@1@_K@Z 000000018006a0d0 f i libvcruntimed:frame.obj
 0001:00069140       ??0bad_exception@std@@QEAA@AEBV01@@Z 000000018006a140 f i libvcruntimed:frame.obj
 0001:00069180       ??0bad_exception@std@@QEAA@XZ 000000018006a180 f i libvcruntimed:frame.obj
 0001:000691c0       ??0exception@std@@QEAA@AEBV01@@Z 000000018006a1c0 f i libvcruntimed:frame.obj
 0001:00069220       ??0exception@std@@QEAA@QEBDH@Z 000000018006a220 f i libvcruntimed:frame.obj
 0001:00069270       ??0iterator@HandlerMap4@FH4@@QEAA@AEAV12@I@Z 000000018006a270 f i libvcruntimed:frame.obj
 0001:000692a0       ??0iterator@HandlerMap@__FrameHandler3@@QEAA@AEAV12@I@Z 000000018006a2a0 f i libvcruntimed:frame.obj
 0001:000692d0       ??0iterator@UWMap4@FH4@@QEAA@AEAV12@PEAE@Z 000000018006a2d0 f i libvcruntimed:frame.obj
 0001:00069300       ??1bad_exception@std@@UEAA@XZ 000000018006a300 f i libvcruntimed:frame.obj
 0001:00069320       ??1exception@std@@UEAA@XZ  000000018006a320 f i libvcruntimed:frame.obj
 0001:00069350       ??4iterator@UWMap4@FH4@@QEAAAEAV012@AEBV012@@Z 000000018006a350 f i libvcruntimed:frame.obj
 0001:000693a0       ??8iterator@HandlerMap4@FH4@@QEBA_NAEBV012@@Z 000000018006a3a0 f i libvcruntimed:frame.obj
 0001:000693e0       ??8iterator@HandlerMap@__FrameHandler3@@QEBA_NAEBV012@@Z 000000018006a3e0 f i libvcruntimed:frame.obj
 0001:00069420       ??8type_info@@QEBA_NAEBV0@@Z 000000018006a420 f i libvcruntimed:frame.obj
 0001:00069470       ??9iterator@HandlerMap4@FH4@@QEBA_NAEBV012@@Z 000000018006a470 f i libvcruntimed:frame.obj
 0001:000694b0       ??9iterator@HandlerMap@__FrameHandler3@@QEBA_NAEBV012@@Z 000000018006a4b0 f i libvcruntimed:frame.obj
 0001:000694f0       ??Diterator@HandlerMap4@FH4@@QEAA?AUHandlerType4@2@XZ 000000018006a4f0 f i libvcruntimed:frame.obj
 0001:00069520       ??Diterator@HandlerMap@__FrameHandler3@@QEAA?BU_s_HandlerType@@XZ 000000018006a520 f i libvcruntimed:frame.obj
 0001:00069560       ??Diterator@TryBlockMap@__FrameHandler3@@QEAA?BU_s_TryBlockMapEntry@@XZ 000000018006a560 f i libvcruntimed:frame.obj
 0001:000695b0       ??Diterator@UWMap4@FH4@@QEAA?AUUnwindMapEntry4@2@XZ 000000018006a5b0 f i libvcruntimed:frame.obj
 0001:00069630       ??Eiterator@HandlerMap4@FH4@@QEAAAEAV012@XZ 000000018006a630 f i libvcruntimed:frame.obj
 0001:00069670       ??Eiterator@HandlerMap@__FrameHandler3@@QEAAAEAV012@XZ 000000018006a670 f i libvcruntimed:frame.obj
 0001:00069690       ??Eiterator@TryBlockMap@__FrameHandler3@@QEAAAEAV012@XZ 000000018006a690 f i libvcruntimed:frame.obj
 0001:000696b0       ??Eiterator@UWMap4@FH4@@QEAAAEAV012@XZ 000000018006a6b0 f i libvcruntimed:frame.obj
 0001:000696f0       ??Giterator@UWMap4@FH4@@QEBA_JAEBV012@@Z 000000018006a6f0 f i libvcruntimed:frame.obj
 0001:00069710       ??Miterator@TryBlockMap4@FH4@@QEBA_NAEBV012@@Z 000000018006a710 f i libvcruntimed:frame.obj
 0001:00069750       ??Miterator@TryBlockMap@__FrameHandler3@@QEBA_NAEBV012@@Z 000000018006a750 f i libvcruntimed:frame.obj
 0001:00069790       ??Oiterator@UWMap4@FH4@@QEBA_NAEBV012@@Z 000000018006a790 f i libvcruntimed:frame.obj
 0001:000697d0       ??Piterator@UWMap4@FH4@@QEBA_NAEBV012@@Z 000000018006a7d0 f i libvcruntimed:frame.obj
 0001:00069810       ??_Ebad_exception@std@@UEAAPEAXI@Z 000000018006a810 f i libvcruntimed:frame.obj
 0001:00069810       ??_Gbad_exception@std@@UEAAPEAXI@Z 000000018006a810 f i libvcruntimed:frame.obj
 0001:00069850       ??_Eexception@std@@UEAAPEAXI@Z 000000018006a850 f i libvcruntimed:frame.obj
 0001:00069850       ??_Gexception@std@@UEAAPEAXI@Z 000000018006a850 f i libvcruntimed:frame.obj
 0001:00069890       ?BuildCatchObject@__FrameHandler3@@SAXPEAUEHExceptionRecord@@PEAXPEBU_s_HandlerType@@PEBU_s_CatchableType@@@Z 000000018006a890 f   libvcruntimed:frame.obj
 0001:000698d0       ?BuildCatchObject@__FrameHandler4@@SAXPEAUEHExceptionRecord@@PEAXPEAUHandlerType4@FH4@@PEBU_s_CatchableType@@@Z 000000018006a8d0 f   libvcruntimed:frame.obj
 0001:00069910       ?BuildCatchObjectHelper@__FrameHandler3@@SAHPEAUEHExceptionRecord@@PEAXPEBU_s_HandlerType@@PEBU_s_CatchableType@@@Z 000000018006a910 f   libvcruntimed:frame.obj
 0001:00069950       ?BuildCatchObjectHelper@__FrameHandler4@@SAHPEAUEHExceptionRecord@@PEAXPEAUHandlerType4@FH4@@PEBU_s_CatchableType@@@Z 000000018006a950 f   libvcruntimed:frame.obj
 0001:00069990       ?CxxCallCatchBlock@__FrameHandler3@@SAPEAXPEAU_EXCEPTION_RECORD@@@Z 000000018006a990 f   libvcruntimed:frame.obj
 0001:00069bf0       ?CxxCallCatchBlock@__FrameHandler4@@SAPEAXPEAU_EXCEPTION_RECORD@@@Z 000000018006abf0 f   libvcruntimed:frame.obj
 0001:00069f20       ?DecompHandler@HandlerMap4@FH4@@AEAAXXZ 000000018006af20 f i libvcruntimed:frame.obj
 0001:0006a2f0       ?FrameUnwindToState@__FrameHandler3@@SAXPEA_KPEAU_xDISPATCHER_CONTEXT@@PEBU_s_FuncInfo@@H@Z 000000018006b2f0 f   libvcruntimed:frame.obj
 0001:0006a540       ?FrameUnwindToState@__FrameHandler4@@SAXPEA_KPEAU_xDISPATCHER_CONTEXT@@PEAUFuncInfo4@FH4@@H@Z 000000018006b540 f   libvcruntimed:frame.obj
 0001:0006a850       ?GetHandlerSearchState@__FrameHandler3@@SAHPEA_KPEAU_xDISPATCHER_CONTEXT@@PEBU_s_FuncInfo@@@Z 000000018006b850 f i libvcruntimed:frame.obj
 0001:0006a900       ?GetHandlerSearchState@__FrameHandler4@@SAHPEA_KPEAU_xDISPATCHER_CONTEXT@@PEAUFuncInfo4@FH4@@@Z 000000018006b900 f i libvcruntimed:frame.obj
 0001:0006a980       ?GetMaxState@__FrameHandler3@@SAHPEAU_xDISPATCHER_CONTEXT@@PEBU_s_FuncInfo@@@Z 000000018006b980 f i libvcruntimed:frame.obj
 0001:0006a9a0       ?GetMaxState@__FrameHandler4@@SAHPEAU_xDISPATCHER_CONTEXT@@PEAUFuncInfo4@FH4@@@Z 000000018006b9a0 f i libvcruntimed:frame.obj
 0001:0006abd0       ?ReadEntry@UWMap4@FH4@@AEAAXPEAPEAE@Z 000000018006bbd0 f i libvcruntimed:frame.obj
 0001:0006ac80       ?TypeMatch@__FrameHandler3@@SAHPEBU_s_HandlerType@@PEBU_s_CatchableType@@PEBU_s_ThrowInfo@@@Z 000000018006bc80 f   libvcruntimed:frame.obj
 0001:0006acb0       ?TypeMatch@__FrameHandler4@@SAHPEAUHandlerType4@FH4@@PEBU_s_CatchableType@@PEBU_s_ThrowInfo@@@Z 000000018006bcb0 f   libvcruntimed:frame.obj
 0001:0006ace0       ?WalkBack@UWMap4@FH4@@AEAAXPEAPEAE@Z 000000018006bce0 f i libvcruntimed:frame.obj
 0001:0006ad30       ?WalkBack@iterator@UWMap4@FH4@@QEAAXXZ 000000018006bd30 f i libvcruntimed:frame.obj
 0001:0006ad70       ?WalkForward@UWMap4@FH4@@AEAAXPEAPEAE@Z 000000018006bd70 f i libvcruntimed:frame.obj
 0001:0006ada0       ?_CallMemberFunction1@@YAXQEAX00@Z 000000018006bda0 f i libvcruntimed:frame.obj
 0001:0006ade0       ?_CallMemberFunction2@@YAXQEAX00H@Z 000000018006bde0 f i libvcruntimed:frame.obj
 0001:0006ae70       ?begin@HandlerMap4@FH4@@QEAA?AViterator@12@XZ 000000018006be70 f i libvcruntimed:frame.obj
 0001:0006aea0       ?begin@HandlerMap@__FrameHandler3@@QEAA?AViterator@12@XZ 000000018006bea0 f i libvcruntimed:frame.obj
 0001:0006aed0       ?begin@UWMap4@FH4@@QEAA?AViterator@12@XZ 000000018006bed0 f i libvcruntimed:frame.obj
 0001:0006af00       ?end@HandlerMap4@FH4@@QEAA?AViterator@12@XZ 000000018006bf00 f i libvcruntimed:frame.obj
 0001:0006af30       ?end@HandlerMap@__FrameHandler3@@QEAA?AViterator@12@XZ 000000018006bf30 f i libvcruntimed:frame.obj
 0001:0006af60       ?getESTypes@__FrameHandler3@@SAPEBU_s_ESTypeList@@PEBU_s_FuncInfo@@@Z 000000018006bf60 f i libvcruntimed:frame.obj
 0001:0006afa0       ?getESTypes@__FrameHandler4@@SAPEBU_s_ESTypeList@@PEAUFuncInfo4@FH4@@@Z 000000018006bfa0 f i libvcruntimed:frame.obj
 0001:0006afb0       ?getLastEntry@HandlerMap4@FH4@@QEAAPEAUHandlerType4@2@XZ 000000018006bfb0 f i libvcruntimed:frame.obj
 0001:0006aff0       ?getLastEntry@HandlerMap@__FrameHandler3@@QEAAPEBU_s_HandlerType@@XZ 000000018006bff0 f i libvcruntimed:frame.obj
 0001:0006b010       ?getMagicNum@__FrameHandler3@@SAIPEBU_s_FuncInfo@@@Z 000000018006c010 f i libvcruntimed:frame.obj
 0001:0006b030       ?getMagicNum@__FrameHandler4@@SAIPEAUFuncInfo4@FH4@@@Z 000000018006c030 f i libvcruntimed:frame.obj
 0001:0006b040       ?getNumTryBlocks@TryBlockMap4@FH4@@QEAAIXZ 000000018006c040 f i libvcruntimed:frame.obj
 0001:0006b050       ?getNumTryBlocks@TryBlockMap@__FrameHandler3@@QEAAIXZ 000000018006c050 f i libvcruntimed:frame.obj
 0001:0006b070       ?getStartStop@UWMap4@FH4@@QEAAXHHAEAViterator@12@0@Z 000000018006c070 f i libvcruntimed:frame.obj
 0001:0006b190       ?getStateFromIterators@UWMap4@FH4@@SAHAEBViterator@12@H0H0@Z 000000018006c190 f i libvcruntimed:frame.obj
 0001:0006b2d0       ?isEHs@__FrameHandler3@@SA_NPEBU_s_FuncInfo@@@Z 000000018006c2d0 f i libvcruntimed:frame.obj
 0001:0006b310       ?isEHs@__FrameHandler4@@SA_NPEAUFuncInfo4@FH4@@@Z 000000018006c310 f i libvcruntimed:frame.obj
 0001:0006b330       ?isNoExcept@__FrameHandler3@@SA_NPEBU_s_FuncInfo@@@Z 000000018006c330 f i libvcruntimed:frame.obj
 0001:0006b370       ?isNoExcept@__FrameHandler4@@SA_NPEAUFuncInfo4@FH4@@@Z 000000018006c370 f i libvcruntimed:frame.obj
 0001:0006b390       ?reset@HandlerType4@FH4@@QEAAXXZ 000000018006c390 f i libvcruntimed:frame.obj
 0001:0006b3f0       ?resetBuffer@HandlerMap4@FH4@@QEAAXXZ 000000018006c3f0 f i libvcruntimed:frame.obj
 0001:0006b410       ?setBuffer@HandlerMap4@FH4@@QEAAXI@Z 000000018006c410 f i libvcruntimed:frame.obj
 0001:0006b470       ?what@exception@std@@UEBAPEBDXZ 000000018006c470 f i libvcruntimed:frame.obj
 0001:0006b4b0       __BuildCatchObject         000000018006c4b0 f   libvcruntimed:frame.obj
 0001:0006b4f0       __BuildCatchObjectHelper   000000018006c4f0 f   libvcruntimed:frame.obj
 0001:0006b530       __TypeMatch                000000018006c530 f   libvcruntimed:frame.obj
 0001:0006b560       __vcrt_EncodePointer       000000018006c560 f i libvcruntimed:frame.obj
 0001:0006b590       _CallSettingFrame          000000018006c590 f   libvcruntimed:handlers.obj
 0001:0006b5e0       _CallSettingFrame_LookupContinuationIndex 000000018006c5e0 f   libvcruntimed:handlers.obj
 0001:0006b610       _CallSettingFrame_NotifyContinuationAddr 000000018006c610 f   libvcruntimed:handlers.obj
 0001:0006b640       _CallSettingFrameEncoded   000000018006c640 f   libvcruntimed:handlers.obj
 0001:0006b690       ??$?RD@__crt_public_free_policy@@QEBAXQEBD@Z 000000018006c690 f i libvcruntimed:std_exception.obj
 0001:0006b6b0       ??0?$__crt_unique_heap_ptr@DU__crt_public_free_policy@@@@QEAA@QEAD@Z 000000018006c6b0 f i libvcruntimed:std_exception.obj
 0001:0006b6d0       ??1?$__crt_unique_heap_ptr@DU__crt_public_free_policy@@@@QEAA@XZ 000000018006c6d0 f i libvcruntimed:std_exception.obj
 0001:0006b6f0       ??B?$__crt_unique_heap_ptr@DU__crt_public_free_policy@@@@QEBA_NXZ 000000018006c6f0 f i libvcruntimed:std_exception.obj
 0001:0006b710       ?detach@?$__crt_unique_heap_ptr@DU__crt_public_free_policy@@@@QEAAPEADXZ 000000018006c710 f i libvcruntimed:std_exception.obj
 0001:0006b740       ?get@?$__crt_unique_heap_ptr@DU__crt_public_free_policy@@@@QEBAPEADXZ 000000018006c740 f i libvcruntimed:std_exception.obj
 0001:0006b750       ?is_valid@?$__crt_unique_heap_ptr@DU__crt_public_free_policy@@@@QEBA_NXZ 000000018006c750 f i libvcruntimed:std_exception.obj
 0001:0006b780       ?release@?$__crt_unique_heap_ptr@DU__crt_public_free_policy@@@@QEAAXXZ 000000018006c780 f i libvcruntimed:std_exception.obj
 0001:0006b7b0       __std_exception_copy       000000018006c7b0 f   libvcruntimed:std_exception.obj
 0001:0006b8f0       __std_exception_destroy    000000018006c8f0 f   libvcruntimed:std_exception.obj
 0001:0006b930       _CxxThrowException         000000018006c930 f   libvcruntimed:throw.obj
 0001:0006ba70       strcmp                     000000018006ca70 f   libucrtd:strcmp.obj
 0001:0006bb00       fabs                       000000018006cb00 f   libucrtd:fabs.obj
 0001:0006bb20       atan2f                     000000018006cb20 f   libucrtd:atan2f.obj
 0001:0006c620       sqrtf                      000000018006d620 f   libucrtd:sqrtf.obj
 0001:0006c760       floorf                     000000018006d760 f   libucrtd:floorf.obj
 0001:0006c8b0       _fpclass                   000000018006d8b0 f   libucrtd:ieeemisc.obj
 0001:0006ca70       _fpclassf                  000000018006da70 f   libucrtd:ieeemisc.obj
 0001:0006cba0       _isnan                     000000018006dba0 f   libucrtd:ieeemisc.obj
 0001:0006cc00       _isnanf                    000000018006dc00 f   libucrtd:ieeemisc.obj
 0001:0006cc50       _nextafter                 000000018006dc50 f   libucrtd:ieeemisc.obj
 0001:0006cc80       _nextafterf                000000018006dc80 f   libucrtd:ieeemisc.obj
 0001:0006ccb0       _scalb                     000000018006dcb0 f   libucrtd:ieeemisc.obj
 0001:0006d0c0       _scalbf                    000000018006e0c0 f   libucrtd:ieeemisc.obj
 0001:0006d430       ??$__crt_interlocked_read@J@@YAJPEDJ@Z 000000018006e430 f i libucrtd:assert.obj
 0001:0006f520       ??$ftprintf@PEAU_iobuf@@PEBDAEBQEBDAEBQEBDAEBI@?$__crt_char_traits@D@@SAH$$QEAPEAU_iobuf@@$$QEAPEBDAEBQEBD2AEBI@Z 0000000180070520 f i libucrtd:assert.obj
 0001:0006f570       ??$ftprintf@PEAU_iobuf@@PEB_WAEBQEB_WAEBQEB_WAEBI@?$__crt_char_traits@_W@@SAH$$QEAPEAU_iobuf@@$$QEAPEB_WAEBQEB_W2AEBI@Z 0000000180070570 f i libucrtd:assert.obj
 0001:0006f5c0       ??$get_module_file_name@AEAPEAUHINSTANCE__@@AEAY0BAF@DK@?$__crt_char_traits@D@@SAKAEAPEAUHINSTANCE__@@AEAY0BAF@D$$QEAK@Z 00000001800705c0 f i libucrtd:assert.obj
 0001:0006f600       ??$get_module_file_name@AEAPEAUHINSTANCE__@@AEAY0BAF@_WK@?$__crt_char_traits@_W@@SAKAEAPEAUHINSTANCE__@@AEAY0BAF@_W$$QEAK@Z 0000000180070600 f i libucrtd:assert.obj
 0001:0006f640       ??$itot_s@AEBIPEAD_KH@?$__crt_char_traits@D@@SAHAEBI$$QEAPEAD$$QEA_K$$QEAH@Z 0000000180070640 f i libucrtd:assert.obj
 0001:0006f690       ??$itot_s@AEBIPEA_W_KH@?$__crt_char_traits@_W@@SAHAEBI$$QEAPEA_W$$QEA_K$$QEAH@Z 0000000180070690 f i libucrtd:assert.obj
 0001:0006f6e0       ??$show_message_box@AEAY0CEA@DPEBDJ@?$__crt_char_traits@D@@SAHAEAY0CEA@D$$QEAPEBD$$QEAJ@Z 00000001800706e0 f i libucrtd:assert.obj
 0001:0006f720       ??$show_message_box@AEAY0CEA@_WPEB_WJ@?$__crt_char_traits@_W@@SAHAEAY0CEA@_W$$QEAPEB_W$$QEAJ@Z 0000000180070720 f i libucrtd:assert.obj
 0001:0006f760       ??$tcscat_s@AEBQEADAEB_KAEAPEAD@?$__crt_char_traits@D@@SAHAEBQEADAEB_KAEAPEAD@Z 0000000180070760 f i libucrtd:assert.obj
 0001:0006f7a0       ??$tcscat_s@AEBQEADAEB_KAEBQEBD@?$__crt_char_traits@D@@SAHAEBQEADAEB_KAEBQEBD@Z 00000001800707a0 f i libucrtd:assert.obj
 0001:0006f7e0       ??$tcscat_s@AEBQEADAEB_KPEBD@?$__crt_char_traits@D@@SAHAEBQEADAEB_K$$QEAPEBD@Z 00000001800707e0 f i libucrtd:assert.obj
 0001:0006f820       ??$tcscat_s@AEBQEA_WAEB_KAEAPEA_W@?$__crt_char_traits@_W@@SAHAEBQEA_WAEB_KAEAPEA_W@Z 0000000180070820 f i libucrtd:assert.obj
 0001:0006f860       ??$tcscat_s@AEBQEA_WAEB_KAEBQEB_W@?$__crt_char_traits@_W@@SAHAEBQEA_WAEB_KAEBQEB_W@Z 0000000180070860 f i libucrtd:assert.obj
 0001:0006f8a0       ??$tcscat_s@AEBQEA_WAEB_KPEB_W@?$__crt_char_traits@_W@@SAHAEBQEA_WAEB_K$$QEAPEB_W@Z 00000001800708a0 f i libucrtd:assert.obj
 0001:0006f8e0       ??$tcscpy_s@AEAY0BAF@D_KPEBD@?$__crt_char_traits@D@@SAHAEAY0BAF@D$$QEA_K$$QEAPEBD@Z 00000001800708e0 f i libucrtd:assert.obj
 0001:0006f920       ??$tcscpy_s@AEAY0BAF@_W_KPEB_W@?$__crt_char_traits@_W@@SAHAEAY0BAF@_W$$QEA_K$$QEAPEB_W@Z 0000000180070920 f i libucrtd:assert.obj
 0001:0006f960       ??$tcscpy_s@AEBQEADAEB_KPEBD@?$__crt_char_traits@D@@SAHAEBQEADAEB_K$$QEAPEBD@Z 0000000180070960 f i libucrtd:assert.obj
 0001:0006f9a0       ??$tcscpy_s@AEBQEA_WAEB_KPEB_W@?$__crt_char_traits@_W@@SAHAEBQEA_WAEB_K$$QEAPEB_W@Z 00000001800709a0 f i libucrtd:assert.obj
 0001:0006f9e0       ??$tcslen@AEAY0BAF@D@?$__crt_char_traits@D@@SA_KAEAY0BAF@D@Z 00000001800709e0 f i libucrtd:assert.obj
 0001:0006fa00       ??$tcslen@AEAY0BAF@_W@?$__crt_char_traits@_W@@SA_KAEAY0BAF@_W@Z 0000000180070a00 f i libucrtd:assert.obj
 0001:0006fa20       ??$tcslen@AEBQEAD@?$__crt_char_traits@D@@SA_KAEBQEAD@Z 0000000180070a20 f i libucrtd:assert.obj
 0001:0006fa40       ??$tcslen@AEBQEA_W@?$__crt_char_traits@_W@@SA_KAEBQEA_W@Z 0000000180070a40 f i libucrtd:assert.obj
 0001:0006fa60       ??$tcslen@AEBQEBD@?$__crt_char_traits@D@@SA_KAEBQEBD@Z 0000000180070a60 f i libucrtd:assert.obj
 0001:0006fa80       ??$tcslen@AEBQEB_W@?$__crt_char_traits@_W@@SA_KAEBQEB_W@Z 0000000180070a80 f i libucrtd:assert.obj
 0001:0006faa0       ??$tcsncat_s@AEBQEADAEB_KAEAPEBD_K@?$__crt_char_traits@D@@SAHAEBQEADAEB_KAEAPEBD$$QEA_K@Z 0000000180070aa0 f i libucrtd:assert.obj
 0001:0006faf0       ??$tcsncat_s@AEBQEADAEB_KAEBQEBDAEB_K@?$__crt_char_traits@D@@SAHAEBQEADAEB_KAEBQEBD1@Z 0000000180070af0 f i libucrtd:assert.obj
 0001:0006fb40       ??$tcsncat_s@AEBQEADAEB_KPEBD_K@?$__crt_char_traits@D@@SAHAEBQEADAEB_K$$QEAPEBD$$QEA_K@Z 0000000180070b40 f i libucrtd:assert.obj
 0001:0006fb90       ??$tcsncat_s@AEBQEA_WAEB_KAEAPEB_W_K@?$__crt_char_traits@_W@@SAHAEBQEA_WAEB_KAEAPEB_W$$QEA_K@Z 0000000180070b90 f i libucrtd:assert.obj
 0001:0006fbe0       ??$tcsncat_s@AEBQEA_WAEB_KAEBQEB_WAEB_K@?$__crt_char_traits@_W@@SAHAEBQEA_WAEB_KAEBQEB_W1@Z 0000000180070be0 f i libucrtd:assert.obj
 0001:0006fc30       ??$tcsncat_s@AEBQEA_WAEB_KPEB_W_K@?$__crt_char_traits@_W@@SAHAEBQEA_WAEB_K$$QEAPEB_W$$QEA_K@Z 0000000180070c30 f i libucrtd:assert.obj
 0001:0006fc80       ??0__crt_stdio_stream@@QEAA@QEAU_iobuf@@@Z 0000000180070c80 f i libucrtd:assert.obj
 0001:0006fca0       ?__crt_interlocked_read_32@@YAHPEDH@Z 0000000180070ca0 f i libucrtd:assert.obj
 0001:0006feb0       ?get_flags@__crt_stdio_stream@@QEBAJXZ 0000000180070eb0 f i libucrtd:assert.obj
 0001:0006ffa0       ?has_any_buffer@__crt_stdio_stream@@QEBA_NXZ 0000000180070fa0 f i libucrtd:assert.obj
 0001:0006ffc0       ?has_any_of@__crt_stdio_stream@@QEBA_NJ@Z 0000000180070fc0 f i libucrtd:assert.obj
 0001:00070000       _assert                    0000000180071000 f   libucrtd:assert.obj
 0001:00070040       _invoke_watson_if_error    0000000180071040 f i libucrtd:assert.obj
 0001:00070090       _vfprintf_l                0000000180071090 f i libucrtd:assert.obj
 0001:000700e0       _vfwprintf_l               00000001800710e0 f i libucrtd:assert.obj
 0001:00070130       _vswprintf_c_l             0000000180071130 f i libucrtd:assert.obj
 0001:000701a0       _wassert                   00000001800711a0 f   libucrtd:assert.obj
 0001:000701e0       fprintf                    00000001800711e0 f i libucrtd:assert.obj
 0001:00070230       fwprintf                   0000000180071230 f i libucrtd:assert.obj
 0001:000703c0       swprintf                   00000001800713c0 f i libucrtd:assert.obj
 0001:00070420       _abs64                     0000000180071420 f   libucrtd:abs.obj
 0001:00070460       abs                        0000000180071460 f   libucrtd:abs.obj
 0001:00070490       powf                       0000000180071490 f   libucrtd:powf.obj
 0001:00071360       cosf                       0000000180072360 f   libucrtd:cosf.obj
 0001:00071860       sinf                       0000000180072860 f   libucrtd:sinf.obj
 0001:00071f60       ??$?RU?$__crt_report_hook_node@D@@@__crt_internal_free_policy@@QEBAXQEBU?$__crt_report_hook_node@D@@@Z 0000000180072f60 f i libucrtd:dbgrpt.obj
 0001:00071f90       ??$?RU?$__crt_report_hook_node@_W@@@__crt_internal_free_policy@@QEBAXQEBU?$__crt_report_hook_node@_W@@@Z 0000000180072f90 f i libucrtd:dbgrpt.obj
 0001:000732b0       ??0?$__crt_unique_heap_ptr@U?$__crt_report_hook_node@D@@U__crt_internal_free_policy@@@@QEAA@QEAU?$__crt_report_hook_node@D@@@Z 00000001800742b0 f i libucrtd:dbgrpt.obj
 0001:000732d0       ??0?$__crt_unique_heap_ptr@U?$__crt_report_hook_node@_W@@U__crt_internal_free_policy@@@@QEAA@QEAU?$__crt_report_hook_node@_W@@@Z 00000001800742d0 f i libucrtd:dbgrpt.obj
 0001:000732f0       ??1?$__crt_unique_heap_ptr@U?$__crt_report_hook_node@D@@U__crt_internal_free_policy@@@@QEAA@XZ 00000001800742f0 f i libucrtd:dbgrpt.obj
 0001:00073310       ??1?$__crt_unique_heap_ptr@U?$__crt_report_hook_node@_W@@U__crt_internal_free_policy@@@@QEAA@XZ 0000000180074310 f i libucrtd:dbgrpt.obj
 0001:00073330       ??B?$__crt_unique_heap_ptr@U?$__crt_report_hook_node@D@@U__crt_internal_free_policy@@@@QEBA_NXZ 0000000180074330 f i libucrtd:dbgrpt.obj
 0001:00073350       ??B?$__crt_unique_heap_ptr@U?$__crt_report_hook_node@_W@@U__crt_internal_free_policy@@@@QEBA_NXZ 0000000180074350 f i libucrtd:dbgrpt.obj
 0001:00073a30       ?detach@?$__crt_unique_heap_ptr@U?$__crt_report_hook_node@D@@U__crt_internal_free_policy@@@@QEAAPEAU?$__crt_report_hook_node@D@@XZ 0000000180074a30 f i libucrtd:dbgrpt.obj
 0001:00073a60       ?detach@?$__crt_unique_heap_ptr@U?$__crt_report_hook_node@_W@@U__crt_internal_free_policy@@@@QEAAPEAU?$__crt_report_hook_node@_W@@XZ 0000000180074a60 f i libucrtd:dbgrpt.obj
 0001:00073a90       ?get@?$__crt_unique_heap_ptr@U?$__crt_report_hook_node@D@@U__crt_internal_free_policy@@@@QEBAPEAU?$__crt_report_hook_node@D@@XZ 0000000180074a90 f i libucrtd:dbgrpt.obj
 0001:00073aa0       ?get@?$__crt_unique_heap_ptr@U?$__crt_report_hook_node@_W@@U__crt_internal_free_policy@@@@QEBAPEAU?$__crt_report_hook_node@_W@@XZ 0000000180074aa0 f i libucrtd:dbgrpt.obj
 0001:00073b10       ?is_valid@?$__crt_unique_heap_ptr@U?$__crt_report_hook_node@D@@U__crt_internal_free_policy@@@@QEBA_NXZ 0000000180074b10 f i libucrtd:dbgrpt.obj
 0001:00073b40       ?is_valid@?$__crt_unique_heap_ptr@U?$__crt_report_hook_node@_W@@U__crt_internal_free_policy@@@@QEBA_NXZ 0000000180074b40 f i libucrtd:dbgrpt.obj
 0001:00073b70       ?release@?$__crt_unique_heap_ptr@U?$__crt_report_hook_node@D@@U__crt_internal_free_policy@@@@QEAAXXZ 0000000180074b70 f i libucrtd:dbgrpt.obj
 0001:00073ba0       ?release@?$__crt_unique_heap_ptr@U?$__crt_report_hook_node@_W@@U__crt_internal_free_policy@@@@QEAAXXZ 0000000180074ba0 f i libucrtd:dbgrpt.obj
 0001:00073bd0       _CrtDbgReport              0000000180074bd0 f   libucrtd:dbgrpt.obj
 0001:00073c50       _CrtDbgReportW             0000000180074c50 f   libucrtd:dbgrpt.obj
 0001:00073cd0       _CrtSetReportHook2         0000000180074cd0 f   libucrtd:dbgrpt.obj
 0001:00073cf0       _CrtSetReportHookW2        0000000180074cf0 f   libucrtd:dbgrpt.obj
 0001:00073d10       __acrt_MessageWindowA      0000000180074d10 f   libucrtd:dbgrpt.obj
 0001:00073d60       __acrt_MessageWindowW      0000000180074d60 f   libucrtd:dbgrpt.obj
 0001:00073db0       _invoke_watson_if_oneof    0000000180074db0 f i libucrtd:dbgrpt.obj
 0001:00073e10       _snwprintf_s               0000000180074e10 f i libucrtd:dbgrpt.obj
 0001:00073e80       _vsnwprintf_s_l            0000000180074e80 f i libucrtd:dbgrpt.obj
 0001:00073f00       ??0_LocaleUpdate@@QEAA@QEAU__crt_locale_pointers@@@Z 0000000180074f00 f i libucrtd:debug_heap.obj
 0001:00074020       ??1_LocaleUpdate@@QEAA@XZ  0000000180075020 f i libucrtd:debug_heap.obj
 0001:00074050       ?GetLocaleT@_LocaleUpdate@@QEAAPEAU__crt_locale_pointers@@XZ 0000000180075050 f i libucrtd:debug_heap.obj
 0001:00076030       _CrtCheckMemory            0000000180077030 f   libucrtd:debug_heap.obj
 0001:000761c0       _CrtDoForAllClientObjects  00000001800771c0 f   libucrtd:debug_heap.obj
 0001:000762f0       _CrtDumpMemoryLeaks        00000001800772f0 f   libucrtd:debug_heap.obj
 0001:000763b0       _CrtGetAllocHook           00000001800773b0 f   libucrtd:debug_heap.obj
 0001:000763c0       _CrtGetDumpClient          00000001800773c0 f   libucrtd:debug_heap.obj
 0001:000763d0       _CrtIsMemoryBlock          00000001800773d0 f   libucrtd:debug_heap.obj
 0001:00076510       _CrtIsValidHeapPointer     0000000180077510 f   libucrtd:debug_heap.obj
 0001:00076550       _CrtIsValidPointer         0000000180077550 f   libucrtd:debug_heap.obj
 0001:00076590       _CrtMemCheckpoint          0000000180077590 f   libucrtd:debug_heap.obj
 0001:00076810       _CrtMemDifference          0000000180077810 f   libucrtd:debug_heap.obj
 0001:00076b70       _CrtMemDumpAllObjectsSince 0000000180077b70 f   libucrtd:debug_heap.obj
 0001:00076bd0       _CrtMemDumpStatistics      0000000180077bd0 f   libucrtd:debug_heap.obj
 0001:00076d70       _CrtReportBlockType        0000000180077d70 f   libucrtd:debug_heap.obj
 0001:00076da0       _CrtSetAllocHook           0000000180077da0 f   libucrtd:debug_heap.obj
 0001:00076dd0       _CrtSetBreakAlloc          0000000180077dd0 f   libucrtd:debug_heap.obj
 0001:00076e00       _CrtSetDbgBlockType        0000000180077e00 f   libucrtd:debug_heap.obj
 0001:00076ea0       _CrtSetDbgFlag             0000000180077ea0 f   libucrtd:debug_heap.obj
 0001:00077000       _CrtSetDumpClient          0000000180078000 f   libucrtd:debug_heap.obj
 0001:00077030       __acrt_disable_global_locale_sync 0000000180078030 f i libucrtd:debug_heap.obj
 0001:00077060       __acrt_enable_global_locale_sync 0000000180078060 f i libucrtd:debug_heap.obj
 0001:00077090       __acrt_get_locale_data_prefix 0000000180078090 f i libucrtd:debug_heap.obj
 0001:000770b0       __acrt_locale_changed      00000001800780b0 f i libucrtd:debug_heap.obj
 0001:000770e0       __p__crtBreakAlloc         00000001800780e0 f   libucrtd:debug_heap.obj
 0001:000770f0       __p__crtDbgFlag            00000001800780f0 f   libucrtd:debug_heap.obj
 0001:00077100       _aligned_free_dbg          0000000180078100 f   libucrtd:debug_heap.obj
 0001:000771f0       _aligned_malloc_dbg        00000001800781f0 f   libucrtd:debug_heap.obj
 0001:00077230       _aligned_msize_dbg         0000000180078230 f   libucrtd:debug_heap.obj
 0001:00077400       _aligned_offset_malloc_dbg 0000000180078400 f   libucrtd:debug_heap.obj
 0001:000776f0       _aligned_offset_realloc_dbg 00000001800786f0 f   libucrtd:debug_heap.obj
 0001:00077ba0       _aligned_offset_recalloc_dbg 0000000180078ba0 f   libucrtd:debug_heap.obj
 0001:00077cc0       _aligned_realloc_dbg       0000000180078cc0 f   libucrtd:debug_heap.obj
 0001:00077d10       _aligned_recalloc_dbg      0000000180078d10 f   libucrtd:debug_heap.obj
 0001:00077d70       _calloc_dbg                0000000180078d70 f   libucrtd:debug_heap.obj
 0001:00077e10       _chvalidchk_l              0000000180078e10 f i libucrtd:debug_heap.obj
 0001:00077e40       _expand_dbg                0000000180078e40 f   libucrtd:debug_heap.obj
 0001:00077f70       _free_dbg                  0000000180078f70 f   libucrtd:debug_heap.obj
 0001:00077fe0       _ischartype_l              0000000180078fe0 f i libucrtd:debug_heap.obj
 0001:00078070       _malloc_dbg                0000000180079070 f   libucrtd:debug_heap.obj
 0001:000780b0       _msize_dbg                 00000001800790b0 f   libucrtd:debug_heap.obj
 0001:00078250       _realloc_dbg               0000000180079250 f   libucrtd:debug_heap.obj
 0001:000782c0       _recalloc_dbg              00000001800792c0 f   libucrtd:debug_heap.obj
 0001:000783c0       _initterm                  00000001800793c0 f   libucrtd:initterm.obj
 0001:00078420       _initterm_e                0000000180079420 f   libucrtd:initterm.obj
 0001:00078510       _seh_filter_dll            0000000180079510 f   libucrtd:exception_filter.obj
 0001:00078540       _seh_filter_exe            0000000180079540 f   libucrtd:exception_filter.obj
 0001:000787e0       ??$?B$$A6AXPEAXK0@Z@__crt_fast_encoded_nullptr_t@@QEBAP6AXPEAXK0@ZXZ 00000001800797e0 f i libucrtd:exit.obj
 0001:00078890       ??$__crt_fast_decode_pointer@P6AXPEAXK0@Z@@YAP6AXPEAXK0@ZQ6AX0K0@Z@Z 0000000180079890 f i libucrtd:exit.obj
 0001:000788d0       ??$__crt_fast_encode_pointer@P6AXPEAXK0@Z@@YAP6AXPEAXK0@ZQ6AX0K0@Z@Z 00000001800798d0 f i libucrtd:exit.obj
 0001:00078910       ??$__crt_get_proc_address@P6AXI@Z@@YAP6AXI@ZQEAUHINSTANCE__@@QEBD@Z 0000000180079910 f i libucrtd:exit.obj
 0001:000789d0       ??0?$__crt_unique_handle_t@U__crt_hmodule_traits@@@@QEAA@QEAUHINSTANCE__@@@Z 00000001800799d0 f i libucrtd:exit.obj
 0001:000789f0       ??1?$__crt_unique_handle_t@U__crt_hmodule_traits@@@@QEAA@XZ 00000001800799f0 f i libucrtd:exit.obj
 0001:00078b50       ?__acrt_select_exit_lock@@YA?AW4__acrt_lock_id@@XZ 0000000180079b50 f i libucrtd:exit.obj
 0001:00078b60       ?__crt_fast_encode_pointer@@YA?AU__crt_fast_encoded_nullptr_t@@$$T@Z 0000000180079b60 f i libucrtd:exit.obj
 0001:00078b80       ?__crt_rotate_pointer_value@@YA_K_KH@Z 0000000180079b80 f i libucrtd:exit.obj
 0001:00078bc0       ?close@?$__crt_unique_handle_t@U__crt_hmodule_traits@@@@QEAAXXZ 0000000180079bc0 f i libucrtd:exit.obj
 0001:00078c00       ?close@__crt_hmodule_traits@@SA_NPEAUHINSTANCE__@@@Z 0000000180079c00 f i libucrtd:exit.obj
 0001:00078d10       ?get@?$__crt_unique_handle_t@U__crt_hmodule_traits@@@@QEBAPEAUHINSTANCE__@@XZ 0000000180079d10 f i libucrtd:exit.obj
 0001:00078d20       ?get_address_of@?$__crt_unique_handle_t@U__crt_hmodule_traits@@@@QEAAPEAPEAUHINSTANCE__@@XZ 0000000180079d20 f i libucrtd:exit.obj
 0001:00078d30       ?get_invalid_value@__crt_hmodule_traits@@SAPEAUHINSTANCE__@@XZ 0000000180079d30 f i libucrtd:exit.obj
 0001:00078ef0       _Exit                      0000000180079ef0 f   libucrtd:exit.obj
 0001:00078f10       __acrt_initialize_thread_local_exit_callback 0000000180079f10 f   libucrtd:exit.obj
 0001:00078f30       _c_exit                    0000000180079f30 f   libucrtd:exit.obj
 0001:00078f50       _cexit                     0000000180079f50 f   libucrtd:exit.obj
 0001:00078f70       _exit                      0000000180079f70 f   libucrtd:exit.obj
 0001:00078f90       _is_c_termination_complete 0000000180079f90 f   libucrtd:exit.obj
 0001:00078fb0       _register_thread_local_exe_atexit_callback 0000000180079fb0 f   libucrtd:exit.obj
 0001:00079000       exit                       000000018007a000 f   libucrtd:exit.obj
 0001:00079020       quick_exit                 000000018007a020 f   libucrtd:exit.obj
 0001:00079040       ??$?RE@__crt_internal_free_policy@@QEBAXQEBE@Z 000000018007a040 f i libucrtd:argv_parsing.obj
 0001:00079070       ??$?RPEAD@__crt_internal_free_policy@@QEBAXQEBQEAD@Z 000000018007a070 f i libucrtd:argv_parsing.obj
 0001:000790a0       ??$?RPEA_W@__crt_internal_free_policy@@QEBAXQEBQEA_W@Z 000000018007a0a0 f i libucrtd:argv_parsing.obj
 0001:000797f0       ??$get_module_file_name@$$TAEAY0BAF@DH@?$__crt_char_traits@D@@SAK$$QEA$$TAEAY0BAF@D$$QEAH@Z 000000018007a7f0 f i libucrtd:argv_parsing.obj
 0001:00079830       ??$get_module_file_name@$$TAEAY0BAF@_WH@?$__crt_char_traits@_W@@SAK$$QEA$$TAEAY0BAF@_W$$QEAH@Z 000000018007a830 f i libucrtd:argv_parsing.obj
 0001:0007a1e0       ??$set_program_name@PEAD@?$__crt_char_traits@D@@SAX$$QEAPEAD@Z 000000018007b1e0 f i libucrtd:argv_parsing.obj
 0001:0007a200       ??$set_program_name@PEA_W@?$__crt_char_traits@_W@@SAX$$QEAPEA_W@Z 000000018007b200 f i libucrtd:argv_parsing.obj
 0001:0007a260       ??0?$__crt_unique_heap_ptr@EU__crt_internal_free_policy@@@@QEAA@QEAE@Z 000000018007b260 f i libucrtd:argv_parsing.obj
 0001:0007a280       ??0?$__crt_unique_heap_ptr@PEADU__crt_internal_free_policy@@@@QEAA@QEAPEAD@Z 000000018007b280 f i libucrtd:argv_parsing.obj
 0001:0007a2a0       ??0?$__crt_unique_heap_ptr@PEA_WU__crt_internal_free_policy@@@@QEAA@QEAPEA_W@Z 000000018007b2a0 f i libucrtd:argv_parsing.obj
 0001:0007a2c0       ??1?$__crt_unique_heap_ptr@EU__crt_internal_free_policy@@@@QEAA@XZ 000000018007b2c0 f i libucrtd:argv_parsing.obj
 0001:0007a2e0       ??1?$__crt_unique_heap_ptr@PEADU__crt_internal_free_policy@@@@QEAA@XZ 000000018007b2e0 f i libucrtd:argv_parsing.obj
 0001:0007a300       ??1?$__crt_unique_heap_ptr@PEA_WU__crt_internal_free_policy@@@@QEAA@XZ 000000018007b300 f i libucrtd:argv_parsing.obj
 0001:0007a320       ??B?$__crt_unique_heap_ptr@EU__crt_internal_free_policy@@@@QEBA_NXZ 000000018007b320 f i libucrtd:argv_parsing.obj
 0001:0007a400       ?detach@?$__crt_unique_heap_ptr@EU__crt_internal_free_policy@@@@QEAAPEAEXZ 000000018007b400 f i libucrtd:argv_parsing.obj
 0001:0007a430       ?detach@?$__crt_unique_heap_ptr@PEADU__crt_internal_free_policy@@@@QEAAPEAPEADXZ 000000018007b430 f i libucrtd:argv_parsing.obj
 0001:0007a460       ?detach@?$__crt_unique_heap_ptr@PEA_WU__crt_internal_free_policy@@@@QEAAPEAPEA_WXZ 000000018007b460 f i libucrtd:argv_parsing.obj
 0001:0007a520       ?get@?$__crt_unique_heap_ptr@EU__crt_internal_free_policy@@@@QEBAPEAEXZ 000000018007b520 f i libucrtd:argv_parsing.obj
 0001:0007a530       ?get@?$__crt_unique_heap_ptr@PEADU__crt_internal_free_policy@@@@QEBAPEAPEADXZ 000000018007b530 f i libucrtd:argv_parsing.obj
 0001:0007a540       ?get@?$__crt_unique_heap_ptr@PEA_WU__crt_internal_free_policy@@@@QEBAPEAPEA_WXZ 000000018007b540 f i libucrtd:argv_parsing.obj
 0001:0007a550       ?get_address_of@?$__crt_unique_heap_ptr@PEADU__crt_internal_free_policy@@@@QEAAPEAPEAPEADXZ 000000018007b550 f i libucrtd:argv_parsing.obj
 0001:0007a560       ?get_address_of@?$__crt_unique_heap_ptr@PEA_WU__crt_internal_free_policy@@@@QEAAPEAPEAPEA_WXZ 000000018007b560 f i libucrtd:argv_parsing.obj
 0001:0007a5b0       ?is_valid@?$__crt_unique_heap_ptr@EU__crt_internal_free_policy@@@@QEBA_NXZ 000000018007b5b0 f i libucrtd:argv_parsing.obj
 0001:0007a5e0       ?release@?$__crt_unique_heap_ptr@EU__crt_internal_free_policy@@@@QEAAXXZ 000000018007b5e0 f i libucrtd:argv_parsing.obj
 0001:0007a610       ?release@?$__crt_unique_heap_ptr@PEADU__crt_internal_free_policy@@@@QEAAXXZ 000000018007b610 f i libucrtd:argv_parsing.obj
 0001:0007a640       ?release@?$__crt_unique_heap_ptr@PEA_WU__crt_internal_free_policy@@@@QEAAXXZ 000000018007b640 f i libucrtd:argv_parsing.obj
 0001:0007a6c0       __acrt_allocate_buffer_for_argv 000000018007b6c0 f   libucrtd:argv_parsing.obj
 0001:0007a7e0       _configure_narrow_argv     000000018007b7e0 f   libucrtd:argv_parsing.obj
 0001:0007a800       _configure_wide_argv       000000018007b800 f   libucrtd:argv_parsing.obj
 0001:0007a820       _set_pgmptr                000000018007b820 f i libucrtd:argv_parsing.obj
 0001:0007a840       _set_wpgmptr               000000018007b840 f i libucrtd:argv_parsing.obj
 0001:0007a854       ??$?R_W@__crt_internal_free_policy@@QEBAXQEB_W@Z 000000018007b854 f i libucrtd:environment_initialization.obj
 0001:0007ae2c       ??$get_environment_from_os@$$V@?$__crt_char_traits@D@@SAPEADXZ 000000018007be2c f i libucrtd:environment_initialization.obj
 0001:0007ae34       ??$get_environment_from_os@$$V@?$__crt_char_traits@_W@@SAPEA_WXZ 000000018007be34 f i libucrtd:environment_initialization.obj
 0001:0007b004       ??$set_variable_in_environment_nolock@PEADH@?$__crt_char_traits@D@@SAH$$QEAPEAD$$QEAH@Z 000000018007c004 f i libucrtd:environment_initialization.obj
 0001:0007b010       ??$set_variable_in_environment_nolock@PEA_WH@?$__crt_char_traits@_W@@SAH$$QEAPEA_W$$QEAH@Z 000000018007c010 f i libucrtd:environment_initialization.obj
 0001:0007b01c       ??$tcscpy_s@PEADAEB_KAEAPEAD@?$__crt_char_traits@D@@SAH$$QEAPEADAEB_KAEAPEAD@Z 000000018007c01c f i libucrtd:environment_initialization.obj
 0001:0007b02c       ??$tcscpy_s@PEA_WAEB_KAEAPEA_W@?$__crt_char_traits@_W@@SAH$$QEAPEA_WAEB_KAEAPEA_W@Z 000000018007c02c f i libucrtd:environment_initialization.obj
 0001:0007b03c       ??$tcslen@AEAPEAD@?$__crt_char_traits@D@@SA_KAEAPEAD@Z 000000018007c03c f i libucrtd:environment_initialization.obj
 0001:0007b050       ??$tcslen@AEAPEA_W@?$__crt_char_traits@_W@@SA_KAEAPEA_W@Z 000000018007c050 f i libucrtd:environment_initialization.obj
 0001:0007b064       ??$uninitialize@A6AXAEAPEAPEAD@Z@?$dual_state_global@PEAPEAD@__crt_state_management@@QEAAXA6AXAEAPEAPEAD@Z@Z 000000018007c064 f i libucrtd:environment_initialization.obj
 0001:0007b0a8       ??$uninitialize@A6AXAEAPEAPEA_W@Z@?$dual_state_global@PEAPEA_W@__crt_state_management@@QEAAXA6AXAEAPEAPEA_W@Z@Z 000000018007c0a8 f i libucrtd:environment_initialization.obj
 0001:0007b124       ??0?$__crt_unique_heap_ptr@_WU__crt_internal_free_policy@@@@QEAA@QEA_W@Z 000000018007c124 f i libucrtd:environment_initialization.obj
 0001:0007b12c       ??1?$__crt_unique_heap_ptr@_WU__crt_internal_free_policy@@@@QEAA@XZ 000000018007c12c f i libucrtd:environment_initialization.obj
 0001:0007b14c       ??B?$__crt_unique_heap_ptr@PEADU__crt_internal_free_policy@@@@QEBA_NXZ 000000018007c14c f i libucrtd:environment_initialization.obj
 0001:0007b154       ??B?$__crt_unique_heap_ptr@PEA_WU__crt_internal_free_policy@@@@QEBA_NXZ 000000018007c154 f i libucrtd:environment_initialization.obj
 0001:0007b15c       ??B?$__crt_unique_heap_ptr@_WU__crt_internal_free_policy@@@@QEBA_NXZ 000000018007c15c f i libucrtd:environment_initialization.obj
 0001:0007b164       ?__crt_compute_required_transform_buffer_count@@YA_KIQEBD@Z 000000018007c164 f i libucrtd:environment_initialization.obj
 0001:0007b188       ?__crt_compute_required_transform_buffer_count@@YA_KIQEB_W@Z 000000018007c188 f i libucrtd:environment_initialization.obj
 0001:0007b1b8       ?__crt_transform_string@@YA_KIQEBDQEA_W_K@Z 000000018007c1b8 f i libucrtd:environment_initialization.obj
 0001:0007b1dc       ?__crt_transform_string@@YA_KIQEB_WQEAD_K@Z 000000018007c1dc f i libucrtd:environment_initialization.obj
 0001:0007b20c       ?detach@?$__crt_unique_heap_ptr@DU__crt_internal_free_policy@@@@QEAAPEADXZ 000000018007c20c f i libucrtd:environment_initialization.obj
 0001:0007b214       ?detach@?$__crt_unique_heap_ptr@_WU__crt_internal_free_policy@@@@QEAAPEA_WXZ 000000018007c214 f i libucrtd:environment_initialization.obj
 0001:0007b21c       ?get@?$__crt_unique_heap_ptr@_WU__crt_internal_free_policy@@@@QEBAPEA_WXZ 000000018007c21c f i libucrtd:environment_initialization.obj
 0001:0007b220       ?get_current_state_index@__crt_state_management@@YA_KXZ 000000018007c220 f i libucrtd:environment_initialization.obj
 0001:0007b254       ?initialize@?$dual_state_global@PEAPEAD@__crt_state_management@@QEAAXQEAPEAD@Z 000000018007c254 f i libucrtd:environment_initialization.obj
 0001:0007b27c       ?initialize@?$dual_state_global@PEAPEA_W@__crt_state_management@@QEAAXQEAPEA_W@Z 000000018007c27c f i libucrtd:environment_initialization.obj
 0001:0007b2a4       ?is_valid@?$__crt_unique_heap_ptr@PEADU__crt_internal_free_policy@@@@QEBA_NXZ 000000018007c2a4 f i libucrtd:environment_initialization.obj
 0001:0007b2ac       ?is_valid@?$__crt_unique_heap_ptr@PEA_WU__crt_internal_free_policy@@@@QEBA_NXZ 000000018007c2ac f i libucrtd:environment_initialization.obj
 0001:0007b2b4       ?is_valid@?$__crt_unique_heap_ptr@_WU__crt_internal_free_policy@@@@QEBA_NXZ 000000018007c2b4 f i libucrtd:environment_initialization.obj
 0001:0007b2c8       ?release@?$__crt_unique_heap_ptr@_WU__crt_internal_free_policy@@@@QEAAXXZ 000000018007c2c8 f i libucrtd:environment_initialization.obj
 0001:0007b2e8       ?value@?$dual_state_global@PEAPEAD@__crt_state_management@@QEAAAEAPEAPEADXZ 000000018007c2e8 f i libucrtd:environment_initialization.obj
 0001:0007b2ec       ?value@?$dual_state_global@PEAPEA_W@__crt_state_management@@QEAAAEAPEAPEA_WXZ 000000018007c2ec f i libucrtd:environment_initialization.obj
 0001:0007b2f0       __dcrt_get_or_create_narrow_environment_nolock 000000018007c2f0 f   libucrtd:environment_initialization.obj
 0001:0007b32c       __dcrt_get_or_create_wide_environment_nolock 000000018007c32c f   libucrtd:environment_initialization.obj
 0001:0007b368       __dcrt_uninitialize_environments_nolock 000000018007c368 f   libucrtd:environment_initialization.obj
 0001:0007b3a0       __p__environ               000000018007c3a0 f   libucrtd:environment_initialization.obj
 0001:0007b3a8       __p__wenviron              000000018007c3a8 f   libucrtd:environment_initialization.obj
 0001:0007b3b0       _get_initial_narrow_environment 000000018007c3b0 f   libucrtd:environment_initialization.obj
 0001:0007b400       _get_initial_wide_environment 000000018007c400 f   libucrtd:environment_initialization.obj
 0001:0007b450       _initialize_narrow_environment 000000018007c450 f   libucrtd:environment_initialization.obj
 0001:0007b458       _initialize_wide_environment 000000018007c458 f   libucrtd:environment_initialization.obj
 0001:0007b460       ??$?B$$A6AXXZ@__crt_fast_encoded_nullptr_t@@QEBAP6AXXZXZ 000000018007c460 f i libucrtd:onexit.obj
 0001:0007b480       ??$?BP6AXXZ@__crt_fast_encoded_nullptr_t@@QEBAPEAP6AXXZXZ 000000018007c480 f i libucrtd:onexit.obj
 0001:0007b4a0       ??$?RP6AXXZ@__crt_internal_free_policy@@QEBAXQEBQ6AXXZ@Z 000000018007c4a0 f i libucrtd:onexit.obj
 0001:0007b610       ??$__crt_fast_decode_pointer@P6AXXZ@@YAP6AXXZQ6AXXZ@Z 000000018007c610 f i libucrtd:onexit.obj
 0001:0007b650       ??$__crt_fast_decode_pointer@PEAP6AXXZ@@YAPEAP6AXXZQEAP6AXXZ@Z 000000018007c650 f i libucrtd:onexit.obj
 0001:0007b690       ??$__crt_fast_encode_pointer@P6AHXZ@@YAP6AHXZQ6AHXZ@Z 000000018007c690 f i libucrtd:onexit.obj
 0001:0007b6d0       ??$__crt_fast_encode_pointer@P6AXXZ@@YAP6AXXZQ6AXXZ@Z 000000018007c6d0 f i libucrtd:onexit.obj
 0001:0007b710       ??$__crt_fast_encode_pointer@PEAP6AXXZ@@YAPEAP6AXXZQEAP6AXXZ@Z 000000018007c710 f i libucrtd:onexit.obj
 0001:0007b820       ??0?$__crt_unique_heap_ptr@P6AXXZU__crt_internal_free_policy@@@@QEAA@QEAP6AXXZ@Z 000000018007c820 f i libucrtd:onexit.obj
 0001:0007b840       ??1?$__crt_unique_heap_ptr@P6AXXZU__crt_internal_free_policy@@@@QEAA@XZ 000000018007c840 f i libucrtd:onexit.obj
 0001:0007b860       ??1scoped_global_state_reset@__crt_state_management@@QEAA@XZ 000000018007c860 f i libucrtd:onexit.obj
 0001:0007be30       ?detach@?$__crt_unique_heap_ptr@P6AXXZU__crt_internal_free_policy@@@@QEAAPEAP6AXXZXZ 000000018007ce30 f i libucrtd:onexit.obj
 0001:0007be60       ?release@?$__crt_unique_heap_ptr@P6AXXZU__crt_internal_free_policy@@@@QEAAXXZ 000000018007ce60 f i libucrtd:onexit.obj
 0001:0007be90       _crt_at_quick_exit         000000018007ce90 f   libucrtd:onexit.obj
 0001:0007beb0       _crt_atexit                000000018007ceb0 f   libucrtd:onexit.obj
 0001:0007bed0       _execute_onexit_table      000000018007ced0 f   libucrtd:onexit.obj
 0001:0007bf10       _initialize_onexit_table   000000018007cf10 f   libucrtd:onexit.obj
 0001:0007bf90       _register_onexit_function  000000018007cf90 f   libucrtd:onexit.obj
 0001:0007c200       ??$?BX@__crt_fast_encoded_nullptr_t@@QEBAPEAXXZ 000000018007d200 f i libucrtd:initialization.obj
 0001:0007c220       ??$__crt_fast_encode_pointer@PEAX@@YAPEAXQEAX@Z 000000018007d220 f i libucrtd:initialization.obj
 0001:0007c310       ?initialize@?$dual_state_global@PEAU__crt_locale_data@@@__crt_state_management@@QEAAXQEAU__crt_locale_data@@@Z 000000018007d310 f i libucrtd:initialization.obj
 0001:0007c360       __acrt_initialize          000000018007d360 f   libucrtd:initialization.obj
 0001:0007c390       __acrt_thread_attach       000000018007d390 f   libucrtd:initialization.obj
 0001:0007c3b0       __acrt_thread_detach       000000018007d3b0 f   libucrtd:initialization.obj
 0001:0007c3c0       __acrt_uninitialize        000000018007d3c0 f   libucrtd:initialization.obj
 0001:0007c3f0       __acrt_uninitialize_critical 000000018007d3f0 f   libucrtd:initialization.obj
 0001:0007c450       _get_terminate             000000018007d450 f   libucrtd:terminate.obj
 0001:0007c470       set_terminate              000000018007d470 f   libucrtd:terminate.obj
 0001:0007c4b0       terminate                  000000018007d4b0 f   libucrtd:terminate.obj
 0001:0007c9c0       strcpy_s                   000000018007d9c0 f   libucrtd:strcpy_s.obj
 0001:0007d060       strcat_s                   000000018007e060 f   libucrtd:strcat_s.obj
 0001:0007d090       ??$?0AEBV?$stream_output_adapter@D@__crt_stdio_output@@AEB_KAEBQEBDAEBQEAU__crt_locale_pointers@@AEBQEAD@?$format_validation_base@DV?$stream_output_adapter@D@__crt_stdio_output@@@__crt_stdio_output@@IEAA@AEBV?$stream_output_adapter@D@1@AEB_KAEBQEBDAEBQEAU__crt_locale_pointers@@AEBQEAD@Z 000000018007e090 f i libucrtd:output.obj
 0001:0007d0e0       ??$?0AEBV?$stream_output_adapter@D@__crt_stdio_output@@AEB_KAEBQEBDAEBQEAU__crt_locale_pointers@@AEBQEAD@?$positional_parameter_base@DV?$stream_output_adapter@D@__crt_stdio_output@@@__crt_stdio_output@@IEAA@AEBV?$stream_output_adapter@D@1@AEB_KAEBQEBDAEBQEAU__crt_locale_pointers@@AEBQEAD@Z 000000018007e0e0 f i libucrtd:output.obj
 0001:0007d180       ??$?0AEBV?$stream_output_adapter@D@__crt_stdio_output@@AEB_KAEBQEBDAEBQEAU__crt_locale_pointers@@AEBQEAD@?$standard_base@DV?$stream_output_adapter@D@__crt_stdio_output@@@__crt_stdio_output@@IEAA@AEBV?$stream_output_adapter@D@1@AEB_KAEBQEBDAEBQEAU__crt_locale_pointers@@AEBQEAD@Z 000000018007e180 f i libucrtd:output.obj
 0001:0007d1f0       ??$?0AEBV?$stream_output_adapter@_W@__crt_stdio_output@@AEB_KAEBQEB_WAEBQEAU__crt_locale_pointers@@AEBQEAD@?$format_validation_base@_WV?$stream_output_adapter@_W@__crt_stdio_output@@@__crt_stdio_output@@IEAA@AEBV?$stream_output_adapter@_W@1@AEB_KAEBQEB_WAEBQEAU__crt_locale_pointers@@AEBQEAD@Z 000000018007e1f0 f i libucrtd:output.obj
 0001:0007d240       ??$?0AEBV?$stream_output_adapter@_W@__crt_stdio_output@@AEB_KAEBQEB_WAEBQEAU__crt_locale_pointers@@AEBQEAD@?$positional_parameter_base@_WV?$stream_output_adapter@_W@__crt_stdio_output@@@__crt_stdio_output@@IEAA@AEBV?$stream_output_adapter@_W@1@AEB_KAEBQEB_WAEBQEAU__crt_locale_pointers@@AEBQEAD@Z 000000018007e240 f i libucrtd:output.obj
 0001:0007d2e0       ??$?0AEBV?$stream_output_adapter@_W@__crt_stdio_output@@AEB_KAEBQEB_WAEBQEAU__crt_locale_pointers@@AEBQEAD@?$standard_base@_WV?$stream_output_adapter@_W@__crt_stdio_output@@@__crt_stdio_output@@IEAA@AEBV?$stream_output_adapter@_W@1@AEB_KAEBQEB_WAEBQEAU__crt_locale_pointers@@AEBQEAD@Z 000000018007e2e0 f i libucrtd:output.obj
 0001:0007d350       ??$?0AEBV?$string_output_adapter@D@__crt_stdio_output@@AEB_KAEBQEBDAEBQEAU__crt_locale_pointers@@AEBQEAD@?$format_validation_base@DV?$string_output_adapter@D@__crt_stdio_output@@@__crt_stdio_output@@IEAA@AEBV?$string_output_adapter@D@1@AEB_KAEBQEBDAEBQEAU__crt_locale_pointers@@AEBQEAD@Z 000000018007e350 f i libucrtd:output.obj
 0001:0007d3a0       ??$?0AEBV?$string_output_adapter@D@__crt_stdio_output@@AEB_KAEBQEBDAEBQEAU__crt_locale_pointers@@AEBQEAD@?$positional_parameter_base@DV?$string_output_adapter@D@__crt_stdio_output@@@__crt_stdio_output@@IEAA@AEBV?$string_output_adapter@D@1@AEB_KAEBQEBDAEBQEAU__crt_locale_pointers@@AEBQEAD@Z 000000018007e3a0 f i libucrtd:output.obj
 0001:0007d440       ??$?0AEBV?$string_output_adapter@D@__crt_stdio_output@@AEB_KAEBQEBDAEBQEAU__crt_locale_pointers@@AEBQEAD@?$standard_base@DV?$string_output_adapter@D@__crt_stdio_output@@@__crt_stdio_output@@IEAA@AEBV?$string_output_adapter@D@1@AEB_KAEBQEBDAEBQEAU__crt_locale_pointers@@AEBQEAD@Z 000000018007e440 f i libucrtd:output.obj
 0001:0007d4b0       ??$?0AEBV?$string_output_adapter@_W@__crt_stdio_output@@AEB_KAEBQEB_WAEBQEAU__crt_locale_pointers@@AEBQEAD@?$format_validation_base@_WV?$string_output_adapter@_W@__crt_stdio_output@@@__crt_stdio_output@@IEAA@AEBV?$string_output_adapter@_W@1@AEB_KAEBQEB_WAEBQEAU__crt_locale_pointers@@AEBQEAD@Z 000000018007e4b0 f i libucrtd:output.obj
 0001:0007d500       ??$?0AEBV?$string_output_adapter@_W@__crt_stdio_output@@AEB_KAEBQEB_WAEBQEAU__crt_locale_pointers@@AEBQEAD@?$positional_parameter_base@_WV?$string_output_adapter@_W@__crt_stdio_output@@@__crt_stdio_output@@IEAA@AEBV?$string_output_adapter@_W@1@AEB_KAEBQEB_WAEBQEAU__crt_locale_pointers@@AEBQEAD@Z 000000018007e500 f i libucrtd:output.obj
 0001:0007d5a0       ??$?0AEBV?$string_output_adapter@_W@__crt_stdio_output@@AEB_KAEBQEB_WAEBQEAU__crt_locale_pointers@@AEBQEAD@?$standard_base@_WV?$string_output_adapter@_W@__crt_stdio_output@@@__crt_stdio_output@@IEAA@AEBV?$string_output_adapter@_W@1@AEB_KAEBQEB_WAEBQEAU__crt_locale_pointers@@AEBQEAD@Z 000000018007e5a0 f i libucrtd:output.obj
 0001:00081490       ??$count@D@formatting_buffer@__crt_stdio_output@@QEBA_KXZ 0000000180082490 f i libucrtd:output.obj
 0001:000814e0       ??$count@_W@formatting_buffer@__crt_stdio_output@@QEBA_KXZ 00000001800824e0 f i libucrtd:output.obj
 0001:00081530       ??$data@D@formatting_buffer@__crt_stdio_output@@QEAAPEADXZ 0000000180082530 f i libucrtd:output.obj
 0001:00081580       ??$data@_W@formatting_buffer@__crt_stdio_output@@QEAAPEA_WXZ 0000000180082580 f i libucrtd:output.obj
 0001:000815d0       ??$ensure_buffer_is_big_enough@D@formatting_buffer@__crt_stdio_output@@QEAA_N_K@Z 00000001800825d0 f i libucrtd:output.obj
 0001:00081700       ??$ensure_buffer_is_big_enough@_W@formatting_buffer@__crt_stdio_output@@QEAA_N_K@Z 0000000180082700 f i libucrtd:output.obj
 0001:00081830       ??$extract_argument_from_va_list@C_J@?$positional_parameter_base@DV?$stream_output_adapter@D@__crt_stdio_output@@@__crt_stdio_output@@IEAA_NAEA_J@Z 0000000180082830 f i libucrtd:output.obj
 0001:000819b0       ??$extract_argument_from_va_list@C_J@?$positional_parameter_base@DV?$string_output_adapter@D@__crt_stdio_output@@@__crt_stdio_output@@IEAA_NAEA_J@Z 00000001800829b0 f i libucrtd:output.obj
 0001:00081b30       ??$extract_argument_from_va_list@C_J@?$positional_parameter_base@_WV?$stream_output_adapter@_W@__crt_stdio_output@@@__crt_stdio_output@@IEAA_NAEA_J@Z 0000000180082b30 f i libucrtd:output.obj
 0001:00081cb0       ??$extract_argument_from_va_list@C_J@?$positional_parameter_base@_WV?$string_output_adapter@_W@__crt_stdio_output@@@__crt_stdio_output@@IEAA_NAEA_J@Z 0000000180082cb0 f i libucrtd:output.obj
 0001:00081e30       ??$extract_argument_from_va_list@C_J@?$standard_base@DV?$stream_output_adapter@D@__crt_stdio_output@@@__crt_stdio_output@@IEAA_NAEA_J@Z 0000000180082e30 f i libucrtd:output.obj
 0001:00081e70       ??$extract_argument_from_va_list@C_J@?$standard_base@DV?$string_output_adapter@D@__crt_stdio_output@@@__crt_stdio_output@@IEAA_NAEA_J@Z 0000000180082e70 f i libucrtd:output.obj
 0001:00081eb0       ??$extract_argument_from_va_list@C_J@?$standard_base@_WV?$stream_output_adapter@_W@__crt_stdio_output@@@__crt_stdio_output@@IEAA_NAEA_J@Z 0000000180082eb0 f i libucrtd:output.obj
 0001:00081ef0       ??$extract_argument_from_va_list@C_J@?$standard_base@_WV?$string_output_adapter@_W@__crt_stdio_output@@@__crt_stdio_output@@IEAA_NAEA_J@Z 0000000180082ef0 f i libucrtd:output.obj
 0001:00081f30       ??$extract_argument_from_va_list@E_J@?$positional_parameter_base@DV?$stream_output_adapter@D@__crt_stdio_output@@@__crt_stdio_output@@IEAA_NAEA_J@Z 0000000180082f30 f i libucrtd:output.obj
 0001:000820b0       ??$extract_argument_from_va_list@E_J@?$positional_parameter_base@DV?$string_output_adapter@D@__crt_stdio_output@@@__crt_stdio_output@@IEAA_NAEA_J@Z 00000001800830b0 f i libucrtd:output.obj
 0001:00082230       ??$extract_argument_from_va_list@E_J@?$positional_parameter_base@_WV?$stream_output_adapter@_W@__crt_stdio_output@@@__crt_stdio_output@@IEAA_NAEA_J@Z 0000000180083230 f i libucrtd:output.obj
 0001:000823b0       ??$extract_argument_from_va_list@E_J@?$positional_parameter_base@_WV?$string_output_adapter@_W@__crt_stdio_output@@@__crt_stdio_output@@IEAA_NAEA_J@Z 00000001800833b0 f i libucrtd:output.obj
 0001:00082530       ??$extract_argument_from_va_list@E_J@?$standard_base@DV?$stream_output_adapter@D@__crt_stdio_output@@@__crt_stdio_output@@IEAA_NAEA_J@Z 0000000180083530 f i libucrtd:output.obj
 0001:00082570       ??$extract_argument_from_va_list@E_J@?$standard_base@DV?$string_output_adapter@D@__crt_stdio_output@@@__crt_stdio_output@@IEAA_NAEA_J@Z 0000000180083570 f i libucrtd:output.obj
 0001:000825b0       ??$extract_argument_from_va_list@E_J@?$standard_base@_WV?$stream_output_adapter@_W@__crt_stdio_output@@@__crt_stdio_output@@IEAA_NAEA_J@Z 00000001800835b0 f i libucrtd:output.obj
 0001:000825f0       ??$extract_argument_from_va_list@E_J@?$standard_base@_WV?$string_output_adapter@_W@__crt_stdio_output@@@__crt_stdio_output@@IEAA_NAEA_J@Z 00000001800835f0 f i libucrtd:output.obj
 0001:00082630       ??$extract_argument_from_va_list@F_J@?$positional_parameter_base@DV?$stream_output_adapter@D@__crt_stdio_output@@@__crt_stdio_output@@IEAA_NAEA_J@Z 0000000180083630 f i libucrtd:output.obj
 0001:000827b0       ??$extract_argument_from_va_list@F_J@?$positional_parameter_base@DV?$string_output_adapter@D@__crt_stdio_output@@@__crt_stdio_output@@IEAA_NAEA_J@Z 00000001800837b0 f i libucrtd:output.obj
 0001:00082930       ??$extract_argument_from_va_list@F_J@?$positional_parameter_base@_WV?$stream_output_adapter@_W@__crt_stdio_output@@@__crt_stdio_output@@IEAA_NAEA_J@Z 0000000180083930 f i libucrtd:output.obj
 0001:00082ab0       ??$extract_argument_from_va_list@F_J@?$positional_parameter_base@_WV?$string_output_adapter@_W@__crt_stdio_output@@@__crt_stdio_output@@IEAA_NAEA_J@Z 0000000180083ab0 f i libucrtd:output.obj
 0001:00082c30       ??$extract_argument_from_va_list@F_J@?$standard_base@DV?$stream_output_adapter@D@__crt_stdio_output@@@__crt_stdio_output@@IEAA_NAEA_J@Z 0000000180083c30 f i libucrtd:output.obj
 0001:00082c70       ??$extract_argument_from_va_list@F_J@?$standard_base@DV?$string_output_adapter@D@__crt_stdio_output@@@__crt_stdio_output@@IEAA_NAEA_J@Z 0000000180083c70 f i libucrtd:output.obj
 0001:00082cb0       ??$extract_argument_from_va_list@F_J@?$standard_base@_WV?$stream_output_adapter@_W@__crt_stdio_output@@@__crt_stdio_output@@IEAA_NAEA_J@Z 0000000180083cb0 f i libucrtd:output.obj
 0001:00082cf0       ??$extract_argument_from_va_list@F_J@?$standard_base@_WV?$string_output_adapter@_W@__crt_stdio_output@@@__crt_stdio_output@@IEAA_NAEA_J@Z 0000000180083cf0 f i libucrtd:output.obj
 0001:00082d30       ??$extract_argument_from_va_list@GD@?$positional_parameter_base@DV?$stream_output_adapter@D@__crt_stdio_output@@@__crt_stdio_output@@IEAA_NAEAD@Z 0000000180083d30 f i libucrtd:output.obj
 0001:00082eb0       ??$extract_argument_from_va_list@GD@?$positional_parameter_base@DV?$string_output_adapter@D@__crt_stdio_output@@@__crt_stdio_output@@IEAA_NAEAD@Z 0000000180083eb0 f i libucrtd:output.obj
 0001:00083030       ??$extract_argument_from_va_list@GD@?$standard_base@DV?$stream_output_adapter@D@__crt_stdio_output@@@__crt_stdio_output@@IEAA_NAEAD@Z 0000000180084030 f i libucrtd:output.obj
 0001:00083060       ??$extract_argument_from_va_list@GD@?$standard_base@DV?$string_output_adapter@D@__crt_stdio_output@@@__crt_stdio_output@@IEAA_NAEAD@Z 0000000180084060 f i libucrtd:output.obj
 0001:00083090       ??$extract_argument_from_va_list@G_J@?$positional_parameter_base@DV?$stream_output_adapter@D@__crt_stdio_output@@@__crt_stdio_output@@IEAA_NAEA_J@Z 0000000180084090 f i libucrtd:output.obj
 0001:00083210       ??$extract_argument_from_va_list@G_J@?$positional_parameter_base@DV?$string_output_adapter@D@__crt_stdio_output@@@__crt_stdio_output@@IEAA_NAEA_J@Z 0000000180084210 f i libucrtd:output.obj
 0001:00083390       ??$extract_argument_from_va_list@G_J@?$positional_parameter_base@_WV?$stream_output_adapter@_W@__crt_stdio_output@@@__crt_stdio_output@@IEAA_NAEA_J@Z 0000000180084390 f i libucrtd:output.obj
 0001:00083510       ??$extract_argument_from_va_list@G_J@?$positional_parameter_base@_WV?$string_output_adapter@_W@__crt_stdio_output@@@__crt_stdio_output@@IEAA_NAEA_J@Z 0000000180084510 f i libucrtd:output.obj
 0001:00083690       ??$extract_argument_from_va_list@G_J@?$standard_base@DV?$stream_output_adapter@D@__crt_stdio_output@@@__crt_stdio_output@@IEAA_NAEA_J@Z 0000000180084690 f i libucrtd:output.obj
 0001:000836d0       ??$extract_argument_from_va_list@G_J@?$standard_base@DV?$string_output_adapter@D@__crt_stdio_output@@@__crt_stdio_output@@IEAA_NAEA_J@Z 00000001800846d0 f i libucrtd:output.obj
 0001:00083710       ??$extract_argument_from_va_list@G_J@?$standard_base@_WV?$stream_output_adapter@_W@__crt_stdio_output@@@__crt_stdio_output@@IEAA_NAEA_J@Z 0000000180084710 f i libucrtd:output.obj
 0001:00083750       ??$extract_argument_from_va_list@G_J@?$standard_base@_WV?$string_output_adapter@_W@__crt_stdio_output@@@__crt_stdio_output@@IEAA_NAEA_J@Z 0000000180084750 f i libucrtd:output.obj
 0001:00083790       ??$extract_argument_from_va_list@H_J@?$positional_parameter_base@DV?$stream_output_adapter@D@__crt_stdio_output@@@__crt_stdio_output@@IEAA_NAEA_J@Z 0000000180084790 f i libucrtd:output.obj
 0001:00083910       ??$extract_argument_from_va_list@H_J@?$positional_parameter_base@DV?$string_output_adapter@D@__crt_stdio_output@@@__crt_stdio_output@@IEAA_NAEA_J@Z 0000000180084910 f i libucrtd:output.obj
 0001:00083a90       ??$extract_argument_from_va_list@H_J@?$positional_parameter_base@_WV?$stream_output_adapter@_W@__crt_stdio_output@@@__crt_stdio_output@@IEAA_NAEA_J@Z 0000000180084a90 f i libucrtd:output.obj
 0001:00083c10       ??$extract_argument_from_va_list@H_J@?$positional_parameter_base@_WV?$string_output_adapter@_W@__crt_stdio_output@@@__crt_stdio_output@@IEAA_NAEA_J@Z 0000000180084c10 f i libucrtd:output.obj
 0001:00083d90       ??$extract_argument_from_va_list@H_J@?$standard_base@DV?$stream_output_adapter@D@__crt_stdio_output@@@__crt_stdio_output@@IEAA_NAEA_J@Z 0000000180084d90 f i libucrtd:output.obj
 0001:00083dc0       ??$extract_argument_from_va_list@H_J@?$standard_base@DV?$string_output_adapter@D@__crt_stdio_output@@@__crt_stdio_output@@IEAA_NAEA_J@Z 0000000180084dc0 f i libucrtd:output.obj
 0001:00083df0       ??$extract_argument_from_va_list@H_J@?$standard_base@_WV?$stream_output_adapter@_W@__crt_stdio_output@@@__crt_stdio_output@@IEAA_NAEA_J@Z 0000000180084df0 f i libucrtd:output.obj
 0001:00083e20       ??$extract_argument_from_va_list@H_J@?$standard_base@_WV?$string_output_adapter@_W@__crt_stdio_output@@@__crt_stdio_output@@IEAA_NAEA_J@Z 0000000180084e20 f i libucrtd:output.obj
 0001:00083e50       ??$extract_argument_from_va_list@I_J@?$positional_parameter_base@DV?$stream_output_adapter@D@__crt_stdio_output@@@__crt_stdio_output@@IEAA_NAEA_J@Z 0000000180084e50 f i libucrtd:output.obj
 0001:00083fd0       ??$extract_argument_from_va_list@I_J@?$positional_parameter_base@DV?$string_output_adapter@D@__crt_stdio_output@@@__crt_stdio_output@@IEAA_NAEA_J@Z 0000000180084fd0 f i libucrtd:output.obj
 0001:00084150       ??$extract_argument_from_va_list@I_J@?$positional_parameter_base@_WV?$stream_output_adapter@_W@__crt_stdio_output@@@__crt_stdio_output@@IEAA_NAEA_J@Z 0000000180085150 f i libucrtd:output.obj
 0001:000842d0       ??$extract_argument_from_va_list@I_J@?$positional_parameter_base@_WV?$string_output_adapter@_W@__crt_stdio_output@@@__crt_stdio_output@@IEAA_NAEA_J@Z 00000001800852d0 f i libucrtd:output.obj
 0001:00084450       ??$extract_argument_from_va_list@I_J@?$standard_base@DV?$stream_output_adapter@D@__crt_stdio_output@@@__crt_stdio_output@@IEAA_NAEA_J@Z 0000000180085450 f i libucrtd:output.obj
 0001:00084480       ??$extract_argument_from_va_list@I_J@?$standard_base@DV?$string_output_adapter@D@__crt_stdio_output@@@__crt_stdio_output@@IEAA_NAEA_J@Z 0000000180085480 f i libucrtd:output.obj
 0001:000844b0       ??$extract_argument_from_va_list@I_J@?$standard_base@_WV?$stream_output_adapter@_W@__crt_stdio_output@@@__crt_stdio_output@@IEAA_NAEA_J@Z 00000001800854b0 f i libucrtd:output.obj
 0001:000844e0       ??$extract_argument_from_va_list@I_J@?$standard_base@_WV?$string_output_adapter@_W@__crt_stdio_output@@@__crt_stdio_output@@IEAA_NAEA_J@Z 00000001800854e0 f i libucrtd:output.obj
 0001:00084510       ??$extract_argument_from_va_list@PEADPEAD@?$positional_parameter_base@DV?$stream_output_adapter@D@__crt_stdio_output@@@__crt_stdio_output@@IEAA_NAEAPEAD@Z 0000000180085510 f i libucrtd:output.obj
 0001:00084690       ??$extract_argument_from_va_list@PEADPEAD@?$positional_parameter_base@DV?$string_output_adapter@D@__crt_stdio_output@@@__crt_stdio_output@@IEAA_NAEAPEAD@Z 0000000180085690 f i libucrtd:output.obj
 0001:00084810       ??$extract_argument_from_va_list@PEADPEAD@?$positional_parameter_base@_WV?$stream_output_adapter@_W@__crt_stdio_output@@@__crt_stdio_output@@IEAA_NAEAPEAD@Z 0000000180085810 f i libucrtd:output.obj
 0001:00084990       ??$extract_argument_from_va_list@PEADPEAD@?$positional_parameter_base@_WV?$string_output_adapter@_W@__crt_stdio_output@@@__crt_stdio_output@@IEAA_NAEAPEAD@Z 0000000180085990 f i libucrtd:output.obj
 0001:00084b10       ??$extract_argument_from_va_list@PEADPEAD@?$standard_base@DV?$stream_output_adapter@D@__crt_stdio_output@@@__crt_stdio_output@@IEAA_NAEAPEAD@Z 0000000180085b10 f i libucrtd:output.obj
 0001:00084b40       ??$extract_argument_from_va_list@PEADPEAD@?$standard_base@DV?$string_output_adapter@D@__crt_stdio_output@@@__crt_stdio_output@@IEAA_NAEAPEAD@Z 0000000180085b40 f i libucrtd:output.obj
 0001:00084b70       ??$extract_argument_from_va_list@PEADPEAD@?$standard_base@_WV?$stream_output_adapter@_W@__crt_stdio_output@@@__crt_stdio_output@@IEAA_NAEAPEAD@Z 0000000180085b70 f i libucrtd:output.obj
 0001:00084ba0       ??$extract_argument_from_va_list@PEADPEAD@?$standard_base@_WV?$string_output_adapter@_W@__crt_stdio_output@@@__crt_stdio_output@@IEAA_NAEAPEAD@Z 0000000180085ba0 f i libucrtd:output.obj
 0001:00084bd0       ??$extract_argument_from_va_list@PEAUansi_string@?1??type_case_Z@?$output_processor@DV?$stream_output_adapter@D@__crt_stdio_output@@V?$format_validation_base@DV?$stream_output_adapter@D@__crt_stdio_output@@@2@@__crt_stdio_output@@AEAA_NXZ@PEAU1?1??234@AEAA_NXZ@@?$standard_base@DV?$stream_output_adapter@D@__crt_stdio_output@@@__crt_stdio_output@@IEAA_NAEAPEAUansi_string@?1??type_case_Z@?$output_processor@DV?$stream_output_adapter@D@__crt_stdio_output@@V?$format_validation_base@DV?$stream_output_adapter@D@__crt_stdio_output@@@2@@1@AEAA_NXZ@@Z 0000000180085bd0 f i libucrtd:output.obj
 0001:00084c00       ??$extract_argument_from_va_list@PEAUansi_string@?1??type_case_Z@?$output_processor@DV?$stream_output_adapter@D@__crt_stdio_output@@V?$positional_parameter_base@DV?$stream_output_adapter@D@__crt_stdio_output@@@2@@__crt_stdio_output@@AEAA_NXZ@PEAU1?1??234@AEAA_NXZ@@?$positional_parameter_base@DV?$stream_output_adapter@D@__crt_stdio_output@@@__crt_stdio_output@@IEAA_NAEAPEAUansi_string@?1??type_case_Z@?$output_processor@DV?$stream_output_adapter@D@__crt_stdio_output@@V?$positional_parameter_base@DV?$stream_output_adapter@D@__crt_stdio_output@@@2@@1@AEAA_NXZ@@Z 0000000180085c00 f i libucrtd:output.obj
 0001:00084d80       ??$extract_argument_from_va_list@PEAUansi_string@?1??type_case_Z@?$output_processor@DV?$stream_output_adapter@D@__crt_stdio_output@@V?$positional_parameter_base@DV?$stream_output_adapter@D@__crt_stdio_output@@@2@@__crt_stdio_output@@AEAA_NXZ@PEAU1?1??234@AEAA_NXZ@@?$standard_base@DV?$stream_output_adapter@D@__crt_stdio_output@@@__crt_stdio_output@@IEAA_NAEAPEAUansi_string@?1??type_case_Z@?$output_processor@DV?$stream_output_adapter@D@__crt_stdio_output@@V?$positional_parameter_base@DV?$stream_output_adapter@D@__crt_stdio_output@@@2@@1@AEAA_NXZ@@Z 0000000180085d80 f i libucrtd:output.obj
 0001:00084db0       ??$extract_argument_from_va_list@PEAUansi_string@?1??type_case_Z@?$output_processor@DV?$stream_output_adapter@D@__crt_stdio_output@@V?$standard_base@DV?$stream_output_adapter@D@__crt_stdio_output@@@2@@__crt_stdio_output@@AEAA_NXZ@PEAU1?1??234@AEAA_NXZ@@?$standard_base@DV?$stream_output_adapter@D@__crt_stdio_output@@@__crt_stdio_output@@IEAA_NAEAPEAUansi_string@?1??type_case_Z@?$output_processor@DV?$stream_output_adapter@D@__crt_stdio_output@@V?$standard_base@DV?$stream_output_adapter@D@__crt_stdio_output@@@2@@1@AEAA_NXZ@@Z 0000000180085db0 f i libucrtd:output.obj
 0001:00084de0       ??$extract_argument_from_va_list@PEAUansi_string@?1??type_case_Z@?$output_processor@DV?$string_output_adapter@D@__crt_stdio_output@@V?$format_validation_base@DV?$string_output_adapter@D@__crt_stdio_output@@@2@@__crt_stdio_output@@AEAA_NXZ@PEAU1?1??234@AEAA_NXZ@@?$standard_base@DV?$string_output_adapter@D@__crt_stdio_output@@@__crt_stdio_output@@IEAA_NAEAPEAUansi_string@?1??type_case_Z@?$output_processor@DV?$string_output_adapter@D@__crt_stdio_output@@V?$format_validation_base@DV?$string_output_adapter@D@__crt_stdio_output@@@2@@1@AEAA_NXZ@@Z 0000000180085de0 f i libucrtd:output.obj
 0001:00084e10       ??$extract_argument_from_va_list@PEAUansi_string@?1??type_case_Z@?$output_processor@DV?$string_output_adapter@D@__crt_stdio_output@@V?$positional_parameter_base@DV?$string_output_adapter@D@__crt_stdio_output@@@2@@__crt_stdio_output@@AEAA_NXZ@PEAU1?1??234@AEAA_NXZ@@?$positional_parameter_base@DV?$string_output_adapter@D@__crt_stdio_output@@@__crt_stdio_output@@IEAA_NAEAPEAUansi_string@?1??type_case_Z@?$output_processor@DV?$string_output_adapter@D@__crt_stdio_output@@V?$positional_parameter_base@DV?$string_output_adapter@D@__crt_stdio_output@@@2@@1@AEAA_NXZ@@Z 0000000180085e10 f i libucrtd:output.obj
 0001:00084f90       ??$extract_argument_from_va_list@PEAUansi_string@?1??type_case_Z@?$output_processor@DV?$string_output_adapter@D@__crt_stdio_output@@V?$positional_parameter_base@DV?$string_output_adapter@D@__crt_stdio_output@@@2@@__crt_stdio_output@@AEAA_NXZ@PEAU1?1??234@AEAA_NXZ@@?$standard_base@DV?$string_output_adapter@D@__crt_stdio_output@@@__crt_stdio_output@@IEAA_NAEAPEAUansi_string@?1??type_case_Z@?$output_processor@DV?$string_output_adapter@D@__crt_stdio_output@@V?$positional_parameter_base@DV?$string_output_adapter@D@__crt_stdio_output@@@2@@1@AEAA_NXZ@@Z 0000000180085f90 f i libucrtd:output.obj
 0001:00084fc0       ??$extract_argument_from_va_list@PEAUansi_string@?1??type_case_Z@?$output_processor@DV?$string_output_adapter@D@__crt_stdio_output@@V?$standard_base@DV?$string_output_adapter@D@__crt_stdio_output@@@2@@__crt_stdio_output@@AEAA_NXZ@PEAU1?1??234@AEAA_NXZ@@?$standard_base@DV?$string_output_adapter@D@__crt_stdio_output@@@__crt_stdio_output@@IEAA_NAEAPEAUansi_string@?1??type_case_Z@?$output_processor@DV?$string_output_adapter@D@__crt_stdio_output@@V?$standard_base@DV?$string_output_adapter@D@__crt_stdio_output@@@2@@1@AEAA_NXZ@@Z 0000000180085fc0 f i libucrtd:output.obj
 0001:00084ff0       ??$extract_argument_from_va_list@PEAUansi_string@?1??type_case_Z@?$output_processor@_WV?$stream_output_adapter@_W@__crt_stdio_output@@V?$format_validation_base@_WV?$stream_output_adapter@_W@__crt_stdio_output@@@2@@__crt_stdio_output@@AEAA_NXZ@PEAU1?1??234@AEAA_NXZ@@?$standard_base@_WV?$stream_output_adapter@_W@__crt_stdio_output@@@__crt_stdio_output@@IEAA_NAEAPEAUansi_string@?1??type_case_Z@?$output_processor@_WV?$stream_output_adapter@_W@__crt_stdio_output@@V?$format_validation_base@_WV?$stream_output_adapter@_W@__crt_stdio_output@@@2@@1@AEAA_NXZ@@Z 0000000180085ff0 f i libucrtd:output.obj
 0001:00085020       ??$extract_argument_from_va_list@PEAUansi_string@?1??type_case_Z@?$output_processor@_WV?$stream_output_adapter@_W@__crt_stdio_output@@V?$positional_parameter_base@_WV?$stream_output_adapter@_W@__crt_stdio_output@@@2@@__crt_stdio_output@@AEAA_NXZ@PEAU1?1??234@AEAA_NXZ@@?$positional_parameter_base@_WV?$stream_output_adapter@_W@__crt_stdio_output@@@__crt_stdio_output@@IEAA_NAEAPEAUansi_string@?1??type_case_Z@?$output_processor@_WV?$stream_output_adapter@_W@__crt_stdio_output@@V?$positional_parameter_base@_WV?$stream_output_adapter@_W@__crt_stdio_output@@@2@@1@AEAA_NXZ@@Z 0000000180086020 f i libucrtd:output.obj
 0001:000851a0       ??$extract_argument_from_va_list@PEAUansi_string@?1??type_case_Z@?$output_processor@_WV?$stream_output_adapter@_W@__crt_stdio_output@@V?$positional_parameter_base@_WV?$stream_output_adapter@_W@__crt_stdio_output@@@2@@__crt_stdio_output@@AEAA_NXZ@PEAU1?1??234@AEAA_NXZ@@?$standard_base@_WV?$stream_output_adapter@_W@__crt_stdio_output@@@__crt_stdio_output@@IEAA_NAEAPEAUansi_string@?1??type_case_Z@?$output_processor@_WV?$stream_output_adapter@_W@__crt_stdio_output@@V?$positional_parameter_base@_WV?$stream_output_adapter@_W@__crt_stdio_output@@@2@@1@AEAA_NXZ@@Z 00000001800861a0 f i libucrtd:output.obj
 0001:000851d0       ??$extract_argument_from_va_list@PEAUansi_string@?1??type_case_Z@?$output_processor@_WV?$stream_output_adapter@_W@__crt_stdio_output@@V?$standard_base@_WV?$stream_output_adapter@_W@__crt_stdio_output@@@2@@__crt_stdio_output@@AEAA_NXZ@PEAU1?1??234@AEAA_NXZ@@?$standard_base@_WV?$stream_output_adapter@_W@__crt_stdio_output@@@__crt_stdio_output@@IEAA_NAEAPEAUansi_string@?1??type_case_Z@?$output_processor@_WV?$stream_output_adapter@_W@__crt_stdio_output@@V?$standard_base@_WV?$stream_output_adapter@_W@__crt_stdio_output@@@2@@1@AEAA_NXZ@@Z 00000001800861d0 f i libucrtd:output.obj
 0001:00085200       ??$extract_argument_from_va_list@PEAUansi_string@?1??type_case_Z@?$output_processor@_WV?$string_output_adapter@_W@__crt_stdio_output@@V?$format_validation_base@_WV?$string_output_adapter@_W@__crt_stdio_output@@@2@@__crt_stdio_output@@AEAA_NXZ@PEAU1?1??234@AEAA_NXZ@@?$standard_base@_WV?$string_output_adapter@_W@__crt_stdio_output@@@__crt_stdio_output@@IEAA_NAEAPEAUansi_string@?1??type_case_Z@?$output_processor@_WV?$string_output_adapter@_W@__crt_stdio_output@@V?$format_validation_base@_WV?$string_output_adapter@_W@__crt_stdio_output@@@2@@1@AEAA_NXZ@@Z 0000000180086200 f i libucrtd:output.obj
 0001:00085230       ??$extract_argument_from_va_list@PEAUansi_string@?1??type_case_Z@?$output_processor@_WV?$string_output_adapter@_W@__crt_stdio_output@@V?$positional_parameter_base@_WV?$string_output_adapter@_W@__crt_stdio_output@@@2@@__crt_stdio_output@@AEAA_NXZ@PEAU1?1??234@AEAA_NXZ@@?$positional_parameter_base@_WV?$string_output_adapter@_W@__crt_stdio_output@@@__crt_stdio_output@@IEAA_NAEAPEAUansi_string@?1??type_case_Z@?$output_processor@_WV?$string_output_adapter@_W@__crt_stdio_output@@V?$positional_parameter_base@_WV?$string_output_adapter@_W@__crt_stdio_output@@@2@@1@AEAA_NXZ@@Z 0000000180086230 f i libucrtd:output.obj
 0001:000853b0       ??$extract_argument_from_va_list@PEAUansi_string@?1??type_case_Z@?$output_processor@_WV?$string_output_adapter@_W@__crt_stdio_output@@V?$positional_parameter_base@_WV?$string_output_adapter@_W@__crt_stdio_output@@@2@@__crt_stdio_output@@AEAA_NXZ@PEAU1?1??234@AEAA_NXZ@@?$standard_base@_WV?$string_output_adapter@_W@__crt_stdio_output@@@__crt_stdio_output@@IEAA_NAEAPEAUansi_string@?1??type_case_Z@?$output_processor@_WV?$string_output_adapter@_W@__crt_stdio_output@@V?$positional_parameter_base@_WV?$string_output_adapter@_W@__crt_stdio_output@@@2@@1@AEAA_NXZ@@Z 00000001800863b0 f i libucrtd:output.obj
 0001:000853e0       ??$extract_argument_from_va_list@PEAUansi_string@?1??type_case_Z@?$output_processor@_WV?$string_output_adapter@_W@__crt_stdio_output@@V?$standard_base@_WV?$string_output_adapter@_W@__crt_stdio_output@@@2@@__crt_stdio_output@@AEAA_NXZ@PEAU1?1??234@AEAA_NXZ@@?$standard_base@_WV?$string_output_adapter@_W@__crt_stdio_output@@@__crt_stdio_output@@IEAA_NAEAPEAUansi_string@?1??type_case_Z@?$output_processor@_WV?$string_output_adapter@_W@__crt_stdio_output@@V?$standard_base@_WV?$string_output_adapter@_W@__crt_stdio_output@@@2@@1@AEAA_NXZ@@Z 00000001800863e0 f i libucrtd:output.obj
 0001:00085410       ??$extract_argument_from_va_list@PEAXPEAX@?$positional_parameter_base@DV?$stream_output_adapter@D@__crt_stdio_output@@@__crt_stdio_output@@IEAA_NAEAPEAX@Z 0000000180086410 f i libucrtd:output.obj
 0001:00085590       ??$extract_argument_from_va_list@PEAXPEAX@?$positional_parameter_base@DV?$string_output_adapter@D@__crt_stdio_output@@@__crt_stdio_output@@IEAA_NAEAPEAX@Z 0000000180086590 f i libucrtd:output.obj
 0001:00085710       ??$extract_argument_from_va_list@PEAXPEAX@?$positional_parameter_base@_WV?$stream_output_adapter@_W@__crt_stdio_output@@@__crt_stdio_output@@IEAA_NAEAPEAX@Z 0000000180086710 f i libucrtd:output.obj
 0001:00085890       ??$extract_argument_from_va_list@PEAXPEAX@?$positional_parameter_base@_WV?$string_output_adapter@_W@__crt_stdio_output@@@__crt_stdio_output@@IEAA_NAEAPEAX@Z 0000000180086890 f i libucrtd:output.obj
 0001:00085a10       ??$extract_argument_from_va_list@PEAXPEAX@?$standard_base@DV?$stream_output_adapter@D@__crt_stdio_output@@@__crt_stdio_output@@IEAA_NAEAPEAX@Z 0000000180086a10 f i libucrtd:output.obj
 0001:00085a40       ??$extract_argument_from_va_list@PEAXPEAX@?$standard_base@DV?$string_output_adapter@D@__crt_stdio_output@@@__crt_stdio_output@@IEAA_NAEAPEAX@Z 0000000180086a40 f i libucrtd:output.obj
 0001:00085a70       ??$extract_argument_from_va_list@PEAXPEAX@?$standard_base@_WV?$stream_output_adapter@_W@__crt_stdio_output@@@__crt_stdio_output@@IEAA_NAEAPEAX@Z 0000000180086a70 f i libucrtd:output.obj
 0001:00085aa0       ??$extract_argument_from_va_list@PEAXPEAX@?$standard_base@_WV?$string_output_adapter@_W@__crt_stdio_output@@@__crt_stdio_output@@IEAA_NAEAPEAX@Z 0000000180086aa0 f i libucrtd:output.obj
 0001:00085ad0       ??$extract_argument_from_va_list@U_CRT_DOUBLE@@U1@@?$positional_parameter_base@DV?$stream_output_adapter@D@__crt_stdio_output@@@__crt_stdio_output@@IEAA_NAEAU_CRT_DOUBLE@@@Z 0000000180086ad0 f i libucrtd:output.obj
 0001:00085c70       ??$extract_argument_from_va_list@U_CRT_DOUBLE@@U1@@?$positional_parameter_base@DV?$string_output_adapter@D@__crt_stdio_output@@@__crt_stdio_output@@IEAA_NAEAU_CRT_DOUBLE@@@Z 0000000180086c70 f i libucrtd:output.obj
 0001:00085e10       ??$extract_argument_from_va_list@U_CRT_DOUBLE@@U1@@?$positional_parameter_base@_WV?$stream_output_adapter@_W@__crt_stdio_output@@@__crt_stdio_output@@IEAA_NAEAU_CRT_DOUBLE@@@Z 0000000180086e10 f i libucrtd:output.obj
 0001:00085fb0       ??$extract_argument_from_va_list@U_CRT_DOUBLE@@U1@@?$positional_parameter_base@_WV?$string_output_adapter@_W@__crt_stdio_output@@@__crt_stdio_output@@IEAA_NAEAU_CRT_DOUBLE@@@Z 0000000180086fb0 f i libucrtd:output.obj
 0001:00086150       ??$extract_argument_from_va_list@U_CRT_DOUBLE@@U1@@?$standard_base@DV?$stream_output_adapter@D@__crt_stdio_output@@@__crt_stdio_output@@IEAA_NAEAU_CRT_DOUBLE@@@Z 0000000180087150 f i libucrtd:output.obj
 0001:000861a0       ??$extract_argument_from_va_list@U_CRT_DOUBLE@@U1@@?$standard_base@DV?$string_output_adapter@D@__crt_stdio_output@@@__crt_stdio_output@@IEAA_NAEAU_CRT_DOUBLE@@@Z 00000001800871a0 f i libucrtd:output.obj
 0001:000861f0       ??$extract_argument_from_va_list@U_CRT_DOUBLE@@U1@@?$standard_base@_WV?$stream_output_adapter@_W@__crt_stdio_output@@@__crt_stdio_output@@IEAA_NAEAU_CRT_DOUBLE@@@Z 00000001800871f0 f i libucrtd:output.obj
 0001:00086240       ??$extract_argument_from_va_list@U_CRT_DOUBLE@@U1@@?$standard_base@_WV?$string_output_adapter@_W@__crt_stdio_output@@@__crt_stdio_output@@IEAA_NAEAU_CRT_DOUBLE@@@Z 0000000180087240 f i libucrtd:output.obj
 0001:00086290       ??$extract_argument_from_va_list@_J_J@?$positional_parameter_base@DV?$stream_output_adapter@D@__crt_stdio_output@@@__crt_stdio_output@@IEAA_NAEA_J@Z 0000000180087290 f i libucrtd:output.obj
 0001:00086410       ??$extract_argument_from_va_list@_J_J@?$positional_parameter_base@DV?$string_output_adapter@D@__crt_stdio_output@@@__crt_stdio_output@@IEAA_NAEA_J@Z 0000000180087410 f i libucrtd:output.obj
 0001:00086590       ??$extract_argument_from_va_list@_J_J@?$positional_parameter_base@_WV?$stream_output_adapter@_W@__crt_stdio_output@@@__crt_stdio_output@@IEAA_NAEA_J@Z 0000000180087590 f i libucrtd:output.obj
 0001:00086710       ??$extract_argument_from_va_list@_J_J@?$positional_parameter_base@_WV?$string_output_adapter@_W@__crt_stdio_output@@@__crt_stdio_output@@IEAA_NAEA_J@Z 0000000180087710 f i libucrtd:output.obj
 0001:00086890       ??$extract_argument_from_va_list@_J_J@?$standard_base@DV?$stream_output_adapter@D@__crt_stdio_output@@@__crt_stdio_output@@IEAA_NAEA_J@Z 0000000180087890 f i libucrtd:output.obj
 0001:000868c0       ??$extract_argument_from_va_list@_J_J@?$standard_base@DV?$string_output_adapter@D@__crt_stdio_output@@@__crt_stdio_output@@IEAA_NAEA_J@Z 00000001800878c0 f i libucrtd:output.obj
 0001:000868f0       ??$extract_argument_from_va_list@_J_J@?$standard_base@_WV?$stream_output_adapter@_W@__crt_stdio_output@@@__crt_stdio_output@@IEAA_NAEA_J@Z 00000001800878f0 f i libucrtd:output.obj
 0001:00086920       ??$extract_argument_from_va_list@_J_J@?$standard_base@_WV?$string_output_adapter@_W@__crt_stdio_output@@@__crt_stdio_output@@IEAA_NAEA_J@Z 0000000180087920 f i libucrtd:output.obj
 0001:00086950       ??$extract_argument_from_va_list@_K_J@?$positional_parameter_base@DV?$stream_output_adapter@D@__crt_stdio_output@@@__crt_stdio_output@@IEAA_NAEA_J@Z 0000000180087950 f i libucrtd:output.obj
 0001:00086ad0       ??$extract_argument_from_va_list@_K_J@?$positional_parameter_base@DV?$string_output_adapter@D@__crt_stdio_output@@@__crt_stdio_output@@IEAA_NAEA_J@Z 0000000180087ad0 f i libucrtd:output.obj
 0001:00086c50       ??$extract_argument_from_va_list@_K_J@?$positional_parameter_base@_WV?$stream_output_adapter@_W@__crt_stdio_output@@@__crt_stdio_output@@IEAA_NAEA_J@Z 0000000180087c50 f i libucrtd:output.obj
 0001:00086dd0       ??$extract_argument_from_va_list@_K_J@?$positional_parameter_base@_WV?$string_output_adapter@_W@__crt_stdio_output@@@__crt_stdio_output@@IEAA_NAEA_J@Z 0000000180087dd0 f i libucrtd:output.obj
 0001:00086f50       ??$extract_argument_from_va_list@_K_J@?$standard_base@DV?$stream_output_adapter@D@__crt_stdio_output@@@__crt_stdio_output@@IEAA_NAEA_J@Z 0000000180087f50 f i libucrtd:output.obj
 0001:00086f80       ??$extract_argument_from_va_list@_K_J@?$standard_base@DV?$string_output_adapter@D@__crt_stdio_output@@@__crt_stdio_output@@IEAA_NAEA_J@Z 0000000180087f80 f i libucrtd:output.obj
 0001:00086fb0       ??$extract_argument_from_va_list@_K_J@?$standard_base@_WV?$stream_output_adapter@_W@__crt_stdio_output@@@__crt_stdio_output@@IEAA_NAEA_J@Z 0000000180087fb0 f i libucrtd:output.obj
 0001:00086fe0       ??$extract_argument_from_va_list@_K_J@?$standard_base@_WV?$string_output_adapter@_W@__crt_stdio_output@@@__crt_stdio_output@@IEAA_NAEA_J@Z 0000000180087fe0 f i libucrtd:output.obj
 0001:00087010       ??$extract_argument_from_va_list@_W_W@?$positional_parameter_base@DV?$stream_output_adapter@D@__crt_stdio_output@@@__crt_stdio_output@@IEAA_NAEA_W@Z 0000000180088010 f i libucrtd:output.obj
 0001:00087190       ??$extract_argument_from_va_list@_W_W@?$positional_parameter_base@DV?$string_output_adapter@D@__crt_stdio_output@@@__crt_stdio_output@@IEAA_NAEA_W@Z 0000000180088190 f i libucrtd:output.obj
 0001:00087310       ??$extract_argument_from_va_list@_W_W@?$positional_parameter_base@_WV?$stream_output_adapter@_W@__crt_stdio_output@@@__crt_stdio_output@@IEAA_NAEA_W@Z 0000000180088310 f i libucrtd:output.obj
 0001:00087490       ??$extract_argument_from_va_list@_W_W@?$positional_parameter_base@_WV?$string_output_adapter@_W@__crt_stdio_output@@@__crt_stdio_output@@IEAA_NAEA_W@Z 0000000180088490 f i libucrtd:output.obj
 0001:00087610       ??$extract_argument_from_va_list@_W_W@?$standard_base@DV?$stream_output_adapter@D@__crt_stdio_output@@@__crt_stdio_output@@IEAA_NAEA_W@Z 0000000180088610 f i libucrtd:output.obj
 0001:00087640       ??$extract_argument_from_va_list@_W_W@?$standard_base@DV?$string_output_adapter@D@__crt_stdio_output@@@__crt_stdio_output@@IEAA_NAEA_W@Z 0000000180088640 f i libucrtd:output.obj
 0001:00087670       ??$extract_argument_from_va_list@_W_W@?$standard_base@_WV?$stream_output_adapter@_W@__crt_stdio_output@@@__crt_stdio_output@@IEAA_NAEA_W@Z 0000000180088670 f i libucrtd:output.obj
 0001:000876a0       ??$extract_argument_from_va_list@_W_W@?$standard_base@_WV?$string_output_adapter@_W@__crt_stdio_output@@@__crt_stdio_output@@IEAA_NAEA_W@Z 00000001800886a0 f i libucrtd:output.obj
 0001:000876d0       ??$get_parameter_type@D@?$positional_parameter_base@DV?$stream_output_adapter@D@__crt_stdio_output@@@__crt_stdio_output@@CA?AW4parameter_type@01@PEAD@Z 00000001800886d0 f i libucrtd:output.obj
 0001:000876e0       ??$get_parameter_type@D@?$positional_parameter_base@DV?$string_output_adapter@D@__crt_stdio_output@@@__crt_stdio_output@@CA?AW4parameter_type@01@PEAD@Z 00000001800886e0 f i libucrtd:output.obj
 0001:000876f0       ??$get_parameter_type@D@?$positional_parameter_base@_WV?$stream_output_adapter@_W@__crt_stdio_output@@@__crt_stdio_output@@CA?AW4parameter_type@01@PEAD@Z 00000001800886f0 f i libucrtd:output.obj
 0001:00087700       ??$get_parameter_type@D@?$positional_parameter_base@_WV?$string_output_adapter@_W@__crt_stdio_output@@@__crt_stdio_output@@CA?AW4parameter_type@01@PEAD@Z 0000000180088700 f i libucrtd:output.obj
 0001:00087710       ??$get_parameter_type@Uansi_string@?1??type_case_Z@?$output_processor@DV?$stream_output_adapter@D@__crt_stdio_output@@V?$positional_parameter_base@DV?$stream_output_adapter@D@__crt_stdio_output@@@2@@__crt_stdio_output@@AEAA_NXZ@@?$positional_parameter_base@DV?$stream_output_adapter@D@__crt_stdio_output@@@__crt_stdio_output@@CA?AW4parameter_type@01@PEAUansi_string@?1??type_case_Z@?$output_processor@DV?$stream_output_adapter@D@__crt_stdio_output@@V?$positional_parameter_base@DV?$stream_output_adapter@D@__crt_stdio_output@@@2@@1@AEAA_NXZ@@Z 0000000180088710 f i libucrtd:output.obj
 0001:00087720       ??$get_parameter_type@Uansi_string@?1??type_case_Z@?$output_processor@DV?$string_output_adapter@D@__crt_stdio_output@@V?$positional_parameter_base@DV?$string_output_adapter@D@__crt_stdio_output@@@2@@__crt_stdio_output@@AEAA_NXZ@@?$positional_parameter_base@DV?$string_output_adapter@D@__crt_stdio_output@@@__crt_stdio_output@@CA?AW4parameter_type@01@PEAUansi_string@?1??type_case_Z@?$output_processor@DV?$string_output_adapter@D@__crt_stdio_output@@V?$positional_parameter_base@DV?$string_output_adapter@D@__crt_stdio_output@@@2@@1@AEAA_NXZ@@Z 0000000180088720 f i libucrtd:output.obj
 0001:00087730       ??$get_parameter_type@Uansi_string@?1??type_case_Z@?$output_processor@_WV?$stream_output_adapter@_W@__crt_stdio_output@@V?$positional_parameter_base@_WV?$stream_output_adapter@_W@__crt_stdio_output@@@2@@__crt_stdio_output@@AEAA_NXZ@@?$positional_parameter_base@_WV?$stream_output_adapter@_W@__crt_stdio_output@@@__crt_stdio_output@@CA?AW4parameter_type@01@PEAUansi_string@?1??type_case_Z@?$output_processor@_WV?$stream_output_adapter@_W@__crt_stdio_output@@V?$positional_parameter_base@_WV?$stream_output_adapter@_W@__crt_stdio_output@@@2@@1@AEAA_NXZ@@Z 0000000180088730 f i libucrtd:output.obj
 0001:00087740       ??$get_parameter_type@Uansi_string@?1??type_case_Z@?$output_processor@_WV?$string_output_adapter@_W@__crt_stdio_output@@V?$positional_parameter_base@_WV?$string_output_adapter@_W@__crt_stdio_output@@@2@@__crt_stdio_output@@AEAA_NXZ@@?$positional_parameter_base@_WV?$string_output_adapter@_W@__crt_stdio_output@@@__crt_stdio_output@@CA?AW4parameter_type@01@PEAUansi_string@?1??type_case_Z@?$output_processor@_WV?$string_output_adapter@_W@__crt_stdio_output@@V?$positional_parameter_base@_WV?$string_output_adapter@_W@__crt_stdio_output@@@2@@1@AEAA_NXZ@@Z 0000000180088740 f i libucrtd:output.obj
 0001:00087750       ??$get_parameter_type@X@?$positional_parameter_base@DV?$stream_output_adapter@D@__crt_stdio_output@@@__crt_stdio_output@@CA?AW4parameter_type@01@PEAX@Z 0000000180088750 f i libucrtd:output.obj
 0001:00087760       ??$get_parameter_type@X@?$positional_parameter_base@DV?$string_output_adapter@D@__crt_stdio_output@@@__crt_stdio_output@@CA?AW4parameter_type@01@PEAX@Z 0000000180088760 f i libucrtd:output.obj
 0001:00087770       ??$get_parameter_type@X@?$positional_parameter_base@_WV?$stream_output_adapter@_W@__crt_stdio_output@@@__crt_stdio_output@@CA?AW4parameter_type@01@PEAX@Z 0000000180088770 f i libucrtd:output.obj
 0001:00087780       ??$get_parameter_type@X@?$positional_parameter_base@_WV?$string_output_adapter@_W@__crt_stdio_output@@@__crt_stdio_output@@CA?AW4parameter_type@01@PEAX@Z 0000000180088780 f i libucrtd:output.obj
 0001:00087790       ??$is_character_specifier@D@?$positional_parameter_base@DV?$stream_output_adapter@D@__crt_stdio_output@@@__crt_stdio_output@@CA_ND@Z 0000000180088790 f i libucrtd:output.obj
 0001:000877d0       ??$is_character_specifier@D@?$positional_parameter_base@DV?$string_output_adapter@D@__crt_stdio_output@@@__crt_stdio_output@@CA_ND@Z 00000001800887d0 f i libucrtd:output.obj
 0001:00087810       ??$is_character_specifier@_W@?$positional_parameter_base@_WV?$stream_output_adapter@_W@__crt_stdio_output@@@__crt_stdio_output@@CA_N_W@Z 0000000180088810 f i libucrtd:output.obj
 0001:00087850       ??$is_character_specifier@_W@?$positional_parameter_base@_WV?$string_output_adapter@_W@__crt_stdio_output@@@__crt_stdio_output@@CA_N_W@Z 0000000180088850 f i libucrtd:output.obj
 0001:00087890       ??$is_integral_specifier@D@?$positional_parameter_base@DV?$stream_output_adapter@D@__crt_stdio_output@@@__crt_stdio_output@@CA_ND@Z 0000000180088890 f i libucrtd:output.obj
 0001:00087900       ??$is_integral_specifier@D@?$positional_parameter_base@DV?$string_output_adapter@D@__crt_stdio_output@@@__crt_stdio_output@@CA_ND@Z 0000000180088900 f i libucrtd:output.obj
 0001:00087970       ??$is_integral_specifier@_W@?$positional_parameter_base@_WV?$stream_output_adapter@_W@__crt_stdio_output@@@__crt_stdio_output@@CA_N_W@Z 0000000180088970 f i libucrtd:output.obj
 0001:000879e0       ??$is_integral_specifier@_W@?$positional_parameter_base@_WV?$string_output_adapter@_W@__crt_stdio_output@@@__crt_stdio_output@@CA_N_W@Z 00000001800889e0 f i libucrtd:output.obj
 0001:00087a50       ??$is_pointer_specifier@D@?$positional_parameter_base@DV?$stream_output_adapter@D@__crt_stdio_output@@@__crt_stdio_output@@CA_ND@Z 0000000180088a50 f i libucrtd:output.obj
 0001:00087a80       ??$is_pointer_specifier@D@?$positional_parameter_base@DV?$string_output_adapter@D@__crt_stdio_output@@@__crt_stdio_output@@CA_ND@Z 0000000180088a80 f i libucrtd:output.obj
 0001:00087ab0       ??$is_pointer_specifier@_W@?$positional_parameter_base@_WV?$stream_output_adapter@_W@__crt_stdio_output@@@__crt_stdio_output@@CA_N_W@Z 0000000180088ab0 f i libucrtd:output.obj
 0001:00087ae0       ??$is_pointer_specifier@_W@?$positional_parameter_base@_WV?$string_output_adapter@_W@__crt_stdio_output@@@__crt_stdio_output@@CA_N_W@Z 0000000180088ae0 f i libucrtd:output.obj
 0001:00087b10       ??$is_string_specifier@D@?$positional_parameter_base@DV?$stream_output_adapter@D@__crt_stdio_output@@@__crt_stdio_output@@CA_ND@Z 0000000180088b10 f i libucrtd:output.obj
 0001:00087b50       ??$is_string_specifier@D@?$positional_parameter_base@DV?$string_output_adapter@D@__crt_stdio_output@@@__crt_stdio_output@@CA_ND@Z 0000000180088b50 f i libucrtd:output.obj
 0001:00087b90       ??$is_string_specifier@_W@?$positional_parameter_base@_WV?$stream_output_adapter@_W@__crt_stdio_output@@@__crt_stdio_output@@CA_N_W@Z 0000000180088b90 f i libucrtd:output.obj
 0001:00087bd0       ??$is_string_specifier@_W@?$positional_parameter_base@_WV?$string_output_adapter@_W@__crt_stdio_output@@@__crt_stdio_output@@CA_N_W@Z 0000000180088bd0 f i libucrtd:output.obj
 0001:00087c10       ??$is_wide_character_specifier@D@__crt_stdio_output@@YA_N_KDW4length_modifier@0@@Z 0000000180088c10 f i libucrtd:output.obj
 0001:00087cb0       ??$is_wide_character_specifier@_W@__crt_stdio_output@@YA_N_K_WW4length_modifier@0@@Z 0000000180088cb0 f i libucrtd:output.obj
 0001:00087d80       ??$peek_va_arg@C@__crt_stdio_output@@YACPEAD@Z 0000000180088d80 f i libucrtd:output.obj
 0001:00087de0       ??$peek_va_arg@E@__crt_stdio_output@@YAEPEAD@Z 0000000180088de0 f i libucrtd:output.obj
 0001:00087e40       ??$peek_va_arg@F@__crt_stdio_output@@YAFPEAD@Z 0000000180088e40 f i libucrtd:output.obj
 0001:00087ea0       ??$peek_va_arg@G@__crt_stdio_output@@YAGPEAD@Z 0000000180088ea0 f i libucrtd:output.obj
 0001:00087f00       ??$peek_va_arg@H@__crt_stdio_output@@YAHPEAD@Z 0000000180088f00 f i libucrtd:output.obj
 0001:00087f50       ??$peek_va_arg@I@__crt_stdio_output@@YAIPEAD@Z 0000000180088f50 f i libucrtd:output.obj
 0001:00087fa0       ??$peek_va_arg@PEAD@__crt_stdio_output@@YAPEADPEAD@Z 0000000180088fa0 f i libucrtd:output.obj
 0001:00088000       ??$peek_va_arg@PEAUansi_string@?1??type_case_Z@?$output_processor@DV?$stream_output_adapter@D@__crt_stdio_output@@V?$positional_parameter_base@DV?$stream_output_adapter@D@__crt_stdio_output@@@2@@__crt_stdio_output@@AEAA_NXZ@@__crt_stdio_output@@YAPEAUansi_string@?1??type_case_Z@?$output_processor@DV?$stream_output_adapter@D@__crt_stdio_output@@V?$positional_parameter_base@DV?$stream_output_adapter@D@__crt_stdio_output@@@2@@0@AEAA_NXZ@PEAD@Z 0000000180089000 f i libucrtd:output.obj
 0001:00088060       ??$peek_va_arg@PEAUansi_string@?1??type_case_Z@?$output_processor@DV?$string_output_adapter@D@__crt_stdio_output@@V?$positional_parameter_base@DV?$string_output_adapter@D@__crt_stdio_output@@@2@@__crt_stdio_output@@AEAA_NXZ@@__crt_stdio_output@@YAPEAUansi_string@?1??type_case_Z@?$output_processor@DV?$string_output_adapter@D@__crt_stdio_output@@V?$positional_parameter_base@DV?$string_output_adapter@D@__crt_stdio_output@@@2@@0@AEAA_NXZ@PEAD@Z 0000000180089060 f i libucrtd:output.obj
 0001:000880c0       ??$peek_va_arg@PEAUansi_string@?1??type_case_Z@?$output_processor@_WV?$stream_output_adapter@_W@__crt_stdio_output@@V?$positional_parameter_base@_WV?$stream_output_adapter@_W@__crt_stdio_output@@@2@@__crt_stdio_output@@AEAA_NXZ@@__crt_stdio_output@@YAPEAUansi_string@?1??type_case_Z@?$output_processor@_WV?$stream_output_adapter@_W@__crt_stdio_output@@V?$positional_parameter_base@_WV?$stream_output_adapter@_W@__crt_stdio_output@@@2@@0@AEAA_NXZ@PEAD@Z 00000001800890c0 f i libucrtd:output.obj
 0001:00088120       ??$peek_va_arg@PEAUansi_string@?1??type_case_Z@?$output_processor@_WV?$string_output_adapter@_W@__crt_stdio_output@@V?$positional_parameter_base@_WV?$string_output_adapter@_W@__crt_stdio_output@@@2@@__crt_stdio_output@@AEAA_NXZ@@__crt_stdio_output@@YAPEAUansi_string@?1??type_case_Z@?$output_processor@_WV?$string_output_adapter@_W@__crt_stdio_output@@V?$positional_parameter_base@_WV?$string_output_adapter@_W@__crt_stdio_output@@@2@@0@AEAA_NXZ@PEAD@Z 0000000180089120 f i libucrtd:output.obj
 0001:00088180       ??$peek_va_arg@PEAX@__crt_stdio_output@@YAPEAXPEAD@Z 0000000180089180 f i libucrtd:output.obj
 0001:000881e0       ??$peek_va_arg@U_CRT_DOUBLE@@@__crt_stdio_output@@YA?AU_CRT_DOUBLE@@PEAD@Z 00000001800891e0 f i libucrtd:output.obj
 0001:00088240       ??$peek_va_arg@_J@__crt_stdio_output@@YA_JPEAD@Z 0000000180089240 f i libucrtd:output.obj
 0001:000882a0       ??$peek_va_arg@_K@__crt_stdio_output@@YA_KPEAD@Z 00000001800892a0 f i libucrtd:output.obj
 0001:00088300       ??$peek_va_arg@_W@__crt_stdio_output@@YA_WPEAD@Z 0000000180089300 f i libucrtd:output.obj
 0001:00088360       ??$puttc_nolock@AEBDPEAU_iobuf@@@?$__crt_char_traits@D@@SAHAEBD$$QEAPEAU_iobuf@@@Z 0000000180089360 f i libucrtd:output.obj
 0001:00088390       ??$puttc_nolock@AEB_WPEAU_iobuf@@@?$__crt_char_traits@_W@@SAGAEB_W$$QEAPEAU_iobuf@@@Z 0000000180089390 f i libucrtd:output.obj
 0001:000883c0       ??$read_va_arg@C@__crt_stdio_output@@YACAEAPEAD@Z 00000001800893c0 f i libucrtd:output.obj
 0001:00088430       ??$read_va_arg@E@__crt_stdio_output@@YAEAEAPEAD@Z 0000000180089430 f i libucrtd:output.obj
 0001:000884a0       ??$read_va_arg@F@__crt_stdio_output@@YAFAEAPEAD@Z 00000001800894a0 f i libucrtd:output.obj
 0001:00088510       ??$read_va_arg@G@__crt_stdio_output@@YAGAEAPEAD@Z 0000000180089510 f i libucrtd:output.obj
 0001:00088580       ??$read_va_arg@H@__crt_stdio_output@@YAHAEAPEAD@Z 0000000180089580 f i libucrtd:output.obj
 0001:000885e0       ??$read_va_arg@I@__crt_stdio_output@@YAIAEAPEAD@Z 00000001800895e0 f i libucrtd:output.obj
 0001:00088640       ??$read_va_arg@PEAD@__crt_stdio_output@@YAPEADAEAPEAD@Z 0000000180089640 f i libucrtd:output.obj
 0001:000886b0       ??$read_va_arg@PEAUansi_string@?1??type_case_Z@?$output_processor@DV?$stream_output_adapter@D@__crt_stdio_output@@V?$format_validation_base@DV?$stream_output_adapter@D@__crt_stdio_output@@@2@@__crt_stdio_output@@AEAA_NXZ@@__crt_stdio_output@@YAPEAUansi_string@?1??type_case_Z@?$output_processor@DV?$stream_output_adapter@D@__crt_stdio_output@@V?$format_validation_base@DV?$stream_output_adapter@D@__crt_stdio_output@@@2@@0@AEAA_NXZ@AEAPEAD@Z 00000001800896b0 f i libucrtd:output.obj
 0001:00088720       ??$read_va_arg@PEAUansi_string@?1??type_case_Z@?$output_processor@DV?$stream_output_adapter@D@__crt_stdio_output@@V?$positional_parameter_base@DV?$stream_output_adapter@D@__crt_stdio_output@@@2@@__crt_stdio_output@@AEAA_NXZ@@__crt_stdio_output@@YAPEAUansi_string@?1??type_case_Z@?$output_processor@DV?$stream_output_adapter@D@__crt_stdio_output@@V?$positional_parameter_base@DV?$stream_output_adapter@D@__crt_stdio_output@@@2@@0@AEAA_NXZ@AEAPEAD@Z 0000000180089720 f i libucrtd:output.obj
 0001:00088790       ??$read_va_arg@PEAUansi_string@?1??type_case_Z@?$output_processor@DV?$stream_output_adapter@D@__crt_stdio_output@@V?$standard_base@DV?$stream_output_adapter@D@__crt_stdio_output@@@2@@__crt_stdio_output@@AEAA_NXZ@@__crt_stdio_output@@YAPEAUansi_string@?1??type_case_Z@?$output_processor@DV?$stream_output_adapter@D@__crt_stdio_output@@V?$standard_base@DV?$stream_output_adapter@D@__crt_stdio_output@@@2@@0@AEAA_NXZ@AEAPEAD@Z 0000000180089790 f i libucrtd:output.obj
 0001:00088800       ??$read_va_arg@PEAUansi_string@?1??type_case_Z@?$output_processor@DV?$string_output_adapter@D@__crt_stdio_output@@V?$format_validation_base@DV?$string_output_adapter@D@__crt_stdio_output@@@2@@__crt_stdio_output@@AEAA_NXZ@@__crt_stdio_output@@YAPEAUansi_string@?1??type_case_Z@?$output_processor@DV?$string_output_adapter@D@__crt_stdio_output@@V?$format_validation_base@DV?$string_output_adapter@D@__crt_stdio_output@@@2@@0@AEAA_NXZ@AEAPEAD@Z 0000000180089800 f i libucrtd:output.obj
 0001:00088870       ??$read_va_arg@PEAUansi_string@?1??type_case_Z@?$output_processor@DV?$string_output_adapter@D@__crt_stdio_output@@V?$positional_parameter_base@DV?$string_output_adapter@D@__crt_stdio_output@@@2@@__crt_stdio_output@@AEAA_NXZ@@__crt_stdio_output@@YAPEAUansi_string@?1??type_case_Z@?$output_processor@DV?$string_output_adapter@D@__crt_stdio_output@@V?$positional_parameter_base@DV?$string_output_adapter@D@__crt_stdio_output@@@2@@0@AEAA_NXZ@AEAPEAD@Z 0000000180089870 f i libucrtd:output.obj
 0001:000888e0       ??$read_va_arg@PEAUansi_string@?1??type_case_Z@?$output_processor@DV?$string_output_adapter@D@__crt_stdio_output@@V?$standard_base@DV?$string_output_adapter@D@__crt_stdio_output@@@2@@__crt_stdio_output@@AEAA_NXZ@@__crt_stdio_output@@YAPEAUansi_string@?1??type_case_Z@?$output_processor@DV?$string_output_adapter@D@__crt_stdio_output@@V?$standard_base@DV?$string_output_adapter@D@__crt_stdio_output@@@2@@0@AEAA_NXZ@AEAPEAD@Z 00000001800898e0 f i libucrtd:output.obj
 0001:00088950       ??$read_va_arg@PEAUansi_string@?1??type_case_Z@?$output_processor@_WV?$stream_output_adapter@_W@__crt_stdio_output@@V?$format_validation_base@_WV?$stream_output_adapter@_W@__crt_stdio_output@@@2@@__crt_stdio_output@@AEAA_NXZ@@__crt_stdio_output@@YAPEAUansi_string@?1??type_case_Z@?$output_processor@_WV?$stream_output_adapter@_W@__crt_stdio_output@@V?$format_validation_base@_WV?$stream_output_adapter@_W@__crt_stdio_output@@@2@@0@AEAA_NXZ@AEAPEAD@Z 0000000180089950 f i libucrtd:output.obj
 0001:000889c0       ??$read_va_arg@PEAUansi_string@?1??type_case_Z@?$output_processor@_WV?$stream_output_adapter@_W@__crt_stdio_output@@V?$positional_parameter_base@_WV?$stream_output_adapter@_W@__crt_stdio_output@@@2@@__crt_stdio_output@@AEAA_NXZ@@__crt_stdio_output@@YAPEAUansi_string@?1??type_case_Z@?$output_processor@_WV?$stream_output_adapter@_W@__crt_stdio_output@@V?$positional_parameter_base@_WV?$stream_output_adapter@_W@__crt_stdio_output@@@2@@0@AEAA_NXZ@AEAPEAD@Z 00000001800899c0 f i libucrtd:output.obj
 0001:00088a30       ??$read_va_arg@PEAUansi_string@?1??type_case_Z@?$output_processor@_WV?$stream_output_adapter@_W@__crt_stdio_output@@V?$standard_base@_WV?$stream_output_adapter@_W@__crt_stdio_output@@@2@@__crt_stdio_output@@AEAA_NXZ@@__crt_stdio_output@@YAPEAUansi_string@?1??type_case_Z@?$output_processor@_WV?$stream_output_adapter@_W@__crt_stdio_output@@V?$standard_base@_WV?$stream_output_adapter@_W@__crt_stdio_output@@@2@@0@AEAA_NXZ@AEAPEAD@Z 0000000180089a30 f i libucrtd:output.obj
 0001:00088aa0       ??$read_va_arg@PEAUansi_string@?1??type_case_Z@?$output_processor@_WV?$string_output_adapter@_W@__crt_stdio_output@@V?$format_validation_base@_WV?$string_output_adapter@_W@__crt_stdio_output@@@2@@__crt_stdio_output@@AEAA_NXZ@@__crt_stdio_output@@YAPEAUansi_string@?1??type_case_Z@?$output_processor@_WV?$string_output_adapter@_W@__crt_stdio_output@@V?$format_validation_base@_WV?$string_output_adapter@_W@__crt_stdio_output@@@2@@0@AEAA_NXZ@AEAPEAD@Z 0000000180089aa0 f i libucrtd:output.obj
 0001:00088b10       ??$read_va_arg@PEAUansi_string@?1??type_case_Z@?$output_processor@_WV?$string_output_adapter@_W@__crt_stdio_output@@V?$positional_parameter_base@_WV?$string_output_adapter@_W@__crt_stdio_output@@@2@@__crt_stdio_output@@AEAA_NXZ@@__crt_stdio_output@@YAPEAUansi_string@?1??type_case_Z@?$output_processor@_WV?$string_output_adapter@_W@__crt_stdio_output@@V?$positional_parameter_base@_WV?$string_output_adapter@_W@__crt_stdio_output@@@2@@0@AEAA_NXZ@AEAPEAD@Z 0000000180089b10 f i libucrtd:output.obj
 0001:00088b80       ??$read_va_arg@PEAUansi_string@?1??type_case_Z@?$output_processor@_WV?$string_output_adapter@_W@__crt_stdio_output@@V?$standard_base@_WV?$string_output_adapter@_W@__crt_stdio_output@@@2@@__crt_stdio_output@@AEAA_NXZ@@__crt_stdio_output@@YAPEAUansi_string@?1??type_case_Z@?$output_processor@_WV?$string_output_adapter@_W@__crt_stdio_output@@V?$standard_base@_WV?$string_output_adapter@_W@__crt_stdio_output@@@2@@0@AEAA_NXZ@AEAPEAD@Z 0000000180089b80 f i libucrtd:output.obj
 0001:00088bf0       ??$read_va_arg@PEAX@__crt_stdio_output@@YAPEAXAEAPEAD@Z 0000000180089bf0 f i libucrtd:output.obj
 0001:00088c60       ??$read_va_arg@U_CRT_DOUBLE@@@__crt_stdio_output@@YA?AU_CRT_DOUBLE@@AEAPEAD@Z 0000000180089c60 f i libucrtd:output.obj
 0001:00088cd0       ??$read_va_arg@_J@__crt_stdio_output@@YA_JAEAPEAD@Z 0000000180089cd0 f i libucrtd:output.obj
 0001:00088d40       ??$read_va_arg@_K@__crt_stdio_output@@YA_KAEAPEAD@Z 0000000180089d40 f i libucrtd:output.obj
 0001:00088db0       ??$read_va_arg@_W@__crt_stdio_output@@YA_WAEAPEAD@Z 0000000180089db0 f i libucrtd:output.obj
 0001:00088e20       ??$scratch_count@D@formatting_buffer@__crt_stdio_output@@QEBA_KXZ 0000000180089e20 f i libucrtd:output.obj
 0001:00088e40       ??$scratch_data@D@formatting_buffer@__crt_stdio_output@@QEAAPEADXZ 0000000180089e40 f i libucrtd:output.obj
 0001:00088eb0       ??$tcstol@AEAPEBDPEAPEADH@?$__crt_char_traits@D@@SAJAEAPEBD$$QEAPEAPEAD$$QEAH@Z 0000000180089eb0 f i libucrtd:output.obj
 0001:00088ef0       ??$tcstol@AEAPEB_WPEAPEA_WH@?$__crt_char_traits@_W@@SAJAEAPEB_W$$QEAPEAPEA_W$$QEAH@Z 0000000180089ef0 f i libucrtd:output.obj
 0001:00088f30       ??$tcstol@PEBDPEAPEADH@?$__crt_char_traits@D@@SAJ$$QEAPEBD$$QEAPEAPEAD$$QEAH@Z 0000000180089f30 f i libucrtd:output.obj
 0001:00088f70       ??$tcstol@PEB_WPEAPEA_WH@?$__crt_char_traits@_W@@SAJ$$QEAPEB_W$$QEAPEAPEA_W$$QEAH@Z 0000000180089f70 f i libucrtd:output.obj
 0001:00088fb0       ??$type_case_integer_parse_into_buffer@I@?$output_processor@DV?$stream_output_adapter@D@__crt_stdio_output@@V?$format_validation_base@DV?$stream_output_adapter@D@__crt_stdio_output@@@2@@__crt_stdio_output@@AEAAXII_N@Z 0000000180089fb0 f i libucrtd:output.obj
 0001:000890e0       ??$type_case_integer_parse_into_buffer@I@?$output_processor@DV?$stream_output_adapter@D@__crt_stdio_output@@V?$positional_parameter_base@DV?$stream_output_adapter@D@__crt_stdio_output@@@2@@__crt_stdio_output@@AEAAXII_N@Z 000000018008a0e0 f i libucrtd:output.obj
 0001:00089210       ??$type_case_integer_parse_into_buffer@I@?$output_processor@DV?$stream_output_adapter@D@__crt_stdio_output@@V?$standard_base@DV?$stream_output_adapter@D@__crt_stdio_output@@@2@@__crt_stdio_output@@AEAAXII_N@Z 000000018008a210 f i libucrtd:output.obj
 0001:00089340       ??$type_case_integer_parse_into_buffer@I@?$output_processor@DV?$string_output_adapter@D@__crt_stdio_output@@V?$format_validation_base@DV?$string_output_adapter@D@__crt_stdio_output@@@2@@__crt_stdio_output@@AEAAXII_N@Z 000000018008a340 f i libucrtd:output.obj
 0001:00089470       ??$type_case_integer_parse_into_buffer@I@?$output_processor@DV?$string_output_adapter@D@__crt_stdio_output@@V?$positional_parameter_base@DV?$string_output_adapter@D@__crt_stdio_output@@@2@@__crt_stdio_output@@AEAAXII_N@Z 000000018008a470 f i libucrtd:output.obj
 0001:000895a0       ??$type_case_integer_parse_into_buffer@I@?$output_processor@DV?$string_output_adapter@D@__crt_stdio_output@@V?$standard_base@DV?$string_output_adapter@D@__crt_stdio_output@@@2@@__crt_stdio_output@@AEAAXII_N@Z 000000018008a5a0 f i libucrtd:output.obj
 0001:000896d0       ??$type_case_integer_parse_into_buffer@I@?$output_processor@_WV?$stream_output_adapter@_W@__crt_stdio_output@@V?$format_validation_base@_WV?$stream_output_adapter@_W@__crt_stdio_output@@@2@@__crt_stdio_output@@AEAAXII_N@Z 000000018008a6d0 f i libucrtd:output.obj
 0001:00089810       ??$type_case_integer_parse_into_buffer@I@?$output_processor@_WV?$stream_output_adapter@_W@__crt_stdio_output@@V?$positional_parameter_base@_WV?$stream_output_adapter@_W@__crt_stdio_output@@@2@@__crt_stdio_output@@AEAAXII_N@Z 000000018008a810 f i libucrtd:output.obj
 0001:00089950       ??$type_case_integer_parse_into_buffer@I@?$output_processor@_WV?$stream_output_adapter@_W@__crt_stdio_output@@V?$standard_base@_WV?$stream_output_adapter@_W@__crt_stdio_output@@@2@@__crt_stdio_output@@AEAAXII_N@Z 000000018008a950 f i libucrtd:output.obj
 0001:00089a90       ??$type_case_integer_parse_into_buffer@I@?$output_processor@_WV?$string_output_adapter@_W@__crt_stdio_output@@V?$format_validation_base@_WV?$string_output_adapter@_W@__crt_stdio_output@@@2@@__crt_stdio_output@@AEAAXII_N@Z 000000018008aa90 f i libucrtd:output.obj
 0001:00089bd0       ??$type_case_integer_parse_into_buffer@I@?$output_processor@_WV?$string_output_adapter@_W@__crt_stdio_output@@V?$positional_parameter_base@_WV?$string_output_adapter@_W@__crt_stdio_output@@@2@@__crt_stdio_output@@AEAAXII_N@Z 000000018008abd0 f i libucrtd:output.obj
 0001:00089d10       ??$type_case_integer_parse_into_buffer@I@?$output_processor@_WV?$string_output_adapter@_W@__crt_stdio_output@@V?$standard_base@_WV?$string_output_adapter@_W@__crt_stdio_output@@@2@@__crt_stdio_output@@AEAAXII_N@Z 000000018008ad10 f i libucrtd:output.obj
 0001:00089e50       ??$type_case_integer_parse_into_buffer@_K@?$output_processor@DV?$stream_output_adapter@D@__crt_stdio_output@@V?$format_validation_base@DV?$stream_output_adapter@D@__crt_stdio_output@@@2@@__crt_stdio_output@@AEAAX_KI_N@Z 000000018008ae50 f i libucrtd:output.obj
 0001:00089fa0       ??$type_case_integer_parse_into_buffer@_K@?$output_processor@DV?$stream_output_adapter@D@__crt_stdio_output@@V?$positional_parameter_base@DV?$stream_output_adapter@D@__crt_stdio_output@@@2@@__crt_stdio_output@@AEAAX_KI_N@Z 000000018008afa0 f i libucrtd:output.obj
 0001:0008a0f0       ??$type_case_integer_parse_into_buffer@_K@?$output_processor@DV?$stream_output_adapter@D@__crt_stdio_output@@V?$standard_base@DV?$stream_output_adapter@D@__crt_stdio_output@@@2@@__crt_stdio_output@@AEAAX_KI_N@Z 000000018008b0f0 f i libucrtd:output.obj
 0001:0008a240       ??$type_case_integer_parse_into_buffer@_K@?$output_processor@DV?$string_output_adapter@D@__crt_stdio_output@@V?$format_validation_base@DV?$string_output_adapter@D@__crt_stdio_output@@@2@@__crt_stdio_output@@AEAAX_KI_N@Z 000000018008b240 f i libucrtd:output.obj
 0001:0008a390       ??$type_case_integer_parse_into_buffer@_K@?$output_processor@DV?$string_output_adapter@D@__crt_stdio_output@@V?$positional_parameter_base@DV?$string_output_adapter@D@__crt_stdio_output@@@2@@__crt_stdio_output@@AEAAX_KI_N@Z 000000018008b390 f i libucrtd:output.obj
 0001:0008a4e0       ??$type_case_integer_parse_into_buffer@_K@?$output_processor@DV?$string_output_adapter@D@__crt_stdio_output@@V?$standard_base@DV?$string_output_adapter@D@__crt_stdio_output@@@2@@__crt_stdio_output@@AEAAX_KI_N@Z 000000018008b4e0 f i libucrtd:output.obj
 0001:0008a630       ??$type_case_integer_parse_into_buffer@_K@?$output_processor@_WV?$stream_output_adapter@_W@__crt_stdio_output@@V?$format_validation_base@_WV?$stream_output_adapter@_W@__crt_stdio_output@@@2@@__crt_stdio_output@@AEAAX_KI_N@Z 000000018008b630 f i libucrtd:output.obj
 0001:0008a790       ??$type_case_integer_parse_into_buffer@_K@?$output_processor@_WV?$stream_output_adapter@_W@__crt_stdio_output@@V?$positional_parameter_base@_WV?$stream_output_adapter@_W@__crt_stdio_output@@@2@@__crt_stdio_output@@AEAAX_KI_N@Z 000000018008b790 f i libucrtd:output.obj
 0001:0008a8f0       ??$type_case_integer_parse_into_buffer@_K@?$output_processor@_WV?$stream_output_adapter@_W@__crt_stdio_output@@V?$standard_base@_WV?$stream_output_adapter@_W@__crt_stdio_output@@@2@@__crt_stdio_output@@AEAAX_KI_N@Z 000000018008b8f0 f i libucrtd:output.obj
 0001:0008aa50       ??$type_case_integer_parse_into_buffer@_K@?$output_processor@_WV?$string_output_adapter@_W@__crt_stdio_output@@V?$format_validation_base@_WV?$string_output_adapter@_W@__crt_stdio_output@@@2@@__crt_stdio_output@@AEAAX_KI_N@Z 000000018008ba50 f i libucrtd:output.obj
 0001:0008abb0       ??$type_case_integer_parse_into_buffer@_K@?$output_processor@_WV?$string_output_adapter@_W@__crt_stdio_output@@V?$positional_parameter_base@_WV?$string_output_adapter@_W@__crt_stdio_output@@@2@@__crt_stdio_output@@AEAAX_KI_N@Z 000000018008bbb0 f i libucrtd:output.obj
 0001:0008ad10       ??$type_case_integer_parse_into_buffer@_K@?$output_processor@_WV?$string_output_adapter@_W@__crt_stdio_output@@V?$standard_base@_WV?$string_output_adapter@_W@__crt_stdio_output@@@2@@__crt_stdio_output@@AEAAX_KI_N@Z 000000018008bd10 f i libucrtd:output.obj
 0001:0008ae70       ??$write_multiple_characters@V?$stream_output_adapter@D@__crt_stdio_output@@D@__crt_stdio_output@@YAXAEBV?$stream_output_adapter@D@0@DHQEAH@Z 000000018008be70 f i libucrtd:output.obj
 0001:0008aed0       ??$write_multiple_characters@V?$stream_output_adapter@_W@__crt_stdio_output@@D@__crt_stdio_output@@YAXAEBV?$stream_output_adapter@_W@0@DHQEAH@Z 000000018008bed0 f i libucrtd:output.obj
 0001:0008af30       ??$write_multiple_characters@V?$string_output_adapter@D@__crt_stdio_output@@D@__crt_stdio_output@@YAXAEBV?$string_output_adapter@D@0@DHQEAH@Z 000000018008bf30 f i libucrtd:output.obj
 0001:0008af90       ??$write_multiple_characters@V?$string_output_adapter@_W@__crt_stdio_output@@D@__crt_stdio_output@@YAXAEBV?$string_output_adapter@_W@0@DHQEAH@Z 000000018008bf90 f i libucrtd:output.obj
 0001:0008b3b0       ??0?$common_data@D@__crt_stdio_output@@IEAA@XZ 000000018008c3b0 f i libucrtd:output.obj
 0001:0008b480       ??0?$common_data@_W@__crt_stdio_output@@IEAA@XZ 000000018008c480 f i libucrtd:output.obj
 0001:0008b550       ??0?$output_adapter_data@DV?$stream_output_adapter@D@__crt_stdio_output@@@__crt_stdio_output@@IEAA@AEBV?$stream_output_adapter@D@1@_KQEBDQEAU__crt_locale_pointers@@QEAD@Z 000000018008c550 f i libucrtd:output.obj
 0001:0008b5d0       ??0?$output_adapter_data@DV?$string_output_adapter@D@__crt_stdio_output@@@__crt_stdio_output@@IEAA@AEBV?$string_output_adapter@D@1@_KQEBDQEAU__crt_locale_pointers@@QEAD@Z 000000018008c5d0 f i libucrtd:output.obj
 0001:0008b650       ??0?$output_adapter_data@_WV?$stream_output_adapter@_W@__crt_stdio_output@@@__crt_stdio_output@@IEAA@AEBV?$stream_output_adapter@_W@1@_KQEB_WQEAU__crt_locale_pointers@@QEAD@Z 000000018008c650 f i libucrtd:output.obj
 0001:0008b6d0       ??0?$output_adapter_data@_WV?$string_output_adapter@_W@__crt_stdio_output@@@__crt_stdio_output@@IEAA@AEBV?$string_output_adapter@_W@1@_KQEB_WQEAU__crt_locale_pointers@@QEAD@Z 000000018008c6d0 f i libucrtd:output.obj
 0001:0008b750       ??0?$output_processor@DV?$stream_output_adapter@D@__crt_stdio_output@@V?$format_validation_base@DV?$stream_output_adapter@D@__crt_stdio_output@@@2@@__crt_stdio_output@@QEAA@AEBV?$stream_output_adapter@D@1@_KQEBDQEAU__crt_locale_pointers@@QEAD@Z 000000018008c750 f i libucrtd:output.obj
 0001:0008b7a0       ??0?$output_processor@DV?$stream_output_adapter@D@__crt_stdio_output@@V?$positional_parameter_base@DV?$stream_output_adapter@D@__crt_stdio_output@@@2@@__crt_stdio_output@@QEAA@AEBV?$stream_output_adapter@D@1@_KQEBDQEAU__crt_locale_pointers@@QEAD@Z 000000018008c7a0 f i libucrtd:output.obj
 0001:0008b7f0       ??0?$output_processor@DV?$stream_output_adapter@D@__crt_stdio_output@@V?$standard_base@DV?$stream_output_adapter@D@__crt_stdio_output@@@2@@__crt_stdio_output@@QEAA@AEBV?$stream_output_adapter@D@1@_KQEBDQEAU__crt_locale_pointers@@QEAD@Z 000000018008c7f0 f i libucrtd:output.obj
 0001:0008b840       ??0?$output_processor@DV?$string_output_adapter@D@__crt_stdio_output@@V?$format_validation_base@DV?$string_output_adapter@D@__crt_stdio_output@@@2@@__crt_stdio_output@@QEAA@AEBV?$string_output_adapter@D@1@_KQEBDQEAU__crt_locale_pointers@@QEAD@Z 000000018008c840 f i libucrtd:output.obj
 0001:0008b890       ??0?$output_processor@DV?$string_output_adapter@D@__crt_stdio_output@@V?$positional_parameter_base@DV?$string_output_adapter@D@__crt_stdio_output@@@2@@__crt_stdio_output@@QEAA@AEBV?$string_output_adapter@D@1@_KQEBDQEAU__crt_locale_pointers@@QEAD@Z 000000018008c890 f i libucrtd:output.obj
 0001:0008b8e0       ??0?$output_processor@DV?$string_output_adapter@D@__crt_stdio_output@@V?$standard_base@DV?$string_output_adapter@D@__crt_stdio_output@@@2@@__crt_stdio_output@@QEAA@AEBV?$string_output_adapter@D@1@_KQEBDQEAU__crt_locale_pointers@@QEAD@Z 000000018008c8e0 f i libucrtd:output.obj
 0001:0008b930       ??0?$output_processor@_WV?$stream_output_adapter@_W@__crt_stdio_output@@V?$format_validation_base@_WV?$stream_output_adapter@_W@__crt_stdio_output@@@2@@__crt_stdio_output@@QEAA@AEBV?$stream_output_adapter@_W@1@_KQEB_WQEAU__crt_locale_pointers@@QEAD@Z 000000018008c930 f i libucrtd:output.obj
 0001:0008b980       ??0?$output_processor@_WV?$stream_output_adapter@_W@__crt_stdio_output@@V?$positional_parameter_base@_WV?$stream_output_adapter@_W@__crt_stdio_output@@@2@@__crt_stdio_output@@QEAA@AEBV?$stream_output_adapter@_W@1@_KQEB_WQEAU__crt_locale_pointers@@QEAD@Z 000000018008c980 f i libucrtd:output.obj
 0001:0008b9d0       ??0?$output_processor@_WV?$stream_output_adapter@_W@__crt_stdio_output@@V?$standard_base@_WV?$stream_output_adapter@_W@__crt_stdio_output@@@2@@__crt_stdio_output@@QEAA@AEBV?$stream_output_adapter@_W@1@_KQEB_WQEAU__crt_locale_pointers@@QEAD@Z 000000018008c9d0 f i libucrtd:output.obj
 0001:0008ba20       ??0?$output_processor@_WV?$string_output_adapter@_W@__crt_stdio_output@@V?$format_validation_base@_WV?$string_output_adapter@_W@__crt_stdio_output@@@2@@__crt_stdio_output@@QEAA@AEBV?$string_output_adapter@_W@1@_KQEB_WQEAU__crt_locale_pointers@@QEAD@Z 000000018008ca20 f i libucrtd:output.obj
 0001:0008ba70       ??0?$output_processor@_WV?$string_output_adapter@_W@__crt_stdio_output@@V?$positional_parameter_base@_WV?$string_output_adapter@_W@__crt_stdio_output@@@2@@__crt_stdio_output@@QEAA@AEBV?$string_output_adapter@_W@1@_KQEB_WQEAU__crt_locale_pointers@@QEAD@Z 000000018008ca70 f i libucrtd:output.obj
 0001:0008bac0       ??0?$output_processor@_WV?$string_output_adapter@_W@__crt_stdio_output@@V?$standard_base@_WV?$string_output_adapter@_W@__crt_stdio_output@@@2@@__crt_stdio_output@@QEAA@AEBV?$string_output_adapter@_W@1@_KQEB_WQEAU__crt_locale_pointers@@QEAD@Z 000000018008cac0 f i libucrtd:output.obj
 0001:0008bb10       ??0?$stream_output_adapter@D@__crt_stdio_output@@QEAA@QEAU_iobuf@@@Z 000000018008cb10 f i libucrtd:output.obj
 0001:0008bb40       ??0?$stream_output_adapter@_W@__crt_stdio_output@@QEAA@QEAU_iobuf@@@Z 000000018008cb40 f i libucrtd:output.obj
 0001:0008bb70       ??0?$string_output_adapter@D@__crt_stdio_output@@QEAA@QEAU?$string_output_adapter_context@D@1@@Z 000000018008cb70 f i libucrtd:output.obj
 0001:0008bb90       ??0?$string_output_adapter@_W@__crt_stdio_output@@QEAA@QEAU?$string_output_adapter_context@_W@1@@Z 000000018008cb90 f i libucrtd:output.obj
 0001:0008bbb0       ??0__acrt_stdio_temporary_buffering_guard@@QEAA@QEAU_iobuf@@@Z 000000018008cbb0 f i libucrtd:output.obj
 0001:0008bbf0       ??0__crt_deferred_errno_cache@@QEAA@XZ 000000018008cbf0 f i libucrtd:output.obj
 0001:0008bc10       ??0__crt_errno_guard@@QEAA@QEAH@Z 000000018008cc10 f i libucrtd:output.obj
 0001:0008bc50       ??0formatting_buffer@__crt_stdio_output@@QEAA@XZ 000000018008cc50 f i libucrtd:output.obj
 0001:0008bc90       ??1?$common_data@D@__crt_stdio_output@@QEAA@XZ 000000018008cc90 f i libucrtd:output.obj
 0001:0008bcb0       ??1?$common_data@_W@__crt_stdio_output@@QEAA@XZ 000000018008ccb0 f i libucrtd:output.obj
 0001:0008bcd0       ??1?$format_validation_base@DV?$stream_output_adapter@D@__crt_stdio_output@@@__crt_stdio_output@@QEAA@XZ 000000018008ccd0 f i libucrtd:output.obj
 0001:0008bcf0       ??1?$format_validation_base@DV?$string_output_adapter@D@__crt_stdio_output@@@__crt_stdio_output@@QEAA@XZ 000000018008ccf0 f i libucrtd:output.obj
 0001:0008bd10       ??1?$format_validation_base@_WV?$stream_output_adapter@_W@__crt_stdio_output@@@__crt_stdio_output@@QEAA@XZ 000000018008cd10 f i libucrtd:output.obj
 0001:0008bd30       ??1?$format_validation_base@_WV?$string_output_adapter@_W@__crt_stdio_output@@@__crt_stdio_output@@QEAA@XZ 000000018008cd30 f i libucrtd:output.obj
 0001:0008bd50       ??1?$output_adapter_data@DV?$stream_output_adapter@D@__crt_stdio_output@@@__crt_stdio_output@@QEAA@XZ 000000018008cd50 f i libucrtd:output.obj
 0001:0008bd70       ??1?$output_adapter_data@DV?$string_output_adapter@D@__crt_stdio_output@@@__crt_stdio_output@@QEAA@XZ 000000018008cd70 f i libucrtd:output.obj
 0001:0008bd90       ??1?$output_adapter_data@_WV?$stream_output_adapter@_W@__crt_stdio_output@@@__crt_stdio_output@@QEAA@XZ 000000018008cd90 f i libucrtd:output.obj
 0001:0008bdb0       ??1?$output_adapter_data@_WV?$string_output_adapter@_W@__crt_stdio_output@@@__crt_stdio_output@@QEAA@XZ 000000018008cdb0 f i libucrtd:output.obj
 0001:0008bdd0       ??1?$output_processor@DV?$stream_output_adapter@D@__crt_stdio_output@@V?$format_validation_base@DV?$stream_output_adapter@D@__crt_stdio_output@@@2@@__crt_stdio_output@@QEAA@XZ 000000018008cdd0 f i libucrtd:output.obj
 0001:0008bdf0       ??1?$output_processor@DV?$stream_output_adapter@D@__crt_stdio_output@@V?$positional_parameter_base@DV?$stream_output_adapter@D@__crt_stdio_output@@@2@@__crt_stdio_output@@QEAA@XZ 000000018008cdf0 f i libucrtd:output.obj
 0001:0008be10       ??1?$output_processor@DV?$stream_output_adapter@D@__crt_stdio_output@@V?$standard_base@DV?$stream_output_adapter@D@__crt_stdio_output@@@2@@__crt_stdio_output@@QEAA@XZ 000000018008ce10 f i libucrtd:output.obj
 0001:0008be30       ??1?$output_processor@DV?$string_output_adapter@D@__crt_stdio_output@@V?$format_validation_base@DV?$string_output_adapter@D@__crt_stdio_output@@@2@@__crt_stdio_output@@QEAA@XZ 000000018008ce30 f i libucrtd:output.obj
 0001:0008be50       ??1?$output_processor@DV?$string_output_adapter@D@__crt_stdio_output@@V?$positional_parameter_base@DV?$string_output_adapter@D@__crt_stdio_output@@@2@@__crt_stdio_output@@QEAA@XZ 000000018008ce50 f i libucrtd:output.obj
 0001:0008be70       ??1?$output_processor@DV?$string_output_adapter@D@__crt_stdio_output@@V?$standard_base@DV?$string_output_adapter@D@__crt_stdio_output@@@2@@__crt_stdio_output@@QEAA@XZ 000000018008ce70 f i libucrtd:output.obj
 0001:0008be90       ??1?$output_processor@_WV?$stream_output_adapter@_W@__crt_stdio_output@@V?$format_validation_base@_WV?$stream_output_adapter@_W@__crt_stdio_output@@@2@@__crt_stdio_output@@QEAA@XZ 000000018008ce90 f i libucrtd:output.obj
 0001:0008beb0       ??1?$output_processor@_WV?$stream_output_adapter@_W@__crt_stdio_output@@V?$positional_parameter_base@_WV?$stream_output_adapter@_W@__crt_stdio_output@@@2@@__crt_stdio_output@@QEAA@XZ 000000018008ceb0 f i libucrtd:output.obj
 0001:0008bed0       ??1?$output_processor@_WV?$stream_output_adapter@_W@__crt_stdio_output@@V?$standard_base@_WV?$stream_output_adapter@_W@__crt_stdio_output@@@2@@__crt_stdio_output@@QEAA@XZ 000000018008ced0 f i libucrtd:output.obj
 0001:0008bef0       ??1?$output_processor@_WV?$string_output_adapter@_W@__crt_stdio_output@@V?$format_validation_base@_WV?$string_output_adapter@_W@__crt_stdio_output@@@2@@__crt_stdio_output@@QEAA@XZ 000000018008cef0 f i libucrtd:output.obj
 0001:0008bf10       ??1?$output_processor@_WV?$string_output_adapter@_W@__crt_stdio_output@@V?$positional_parameter_base@_WV?$string_output_adapter@_W@__crt_stdio_output@@@2@@__crt_stdio_output@@QEAA@XZ 000000018008cf10 f i libucrtd:output.obj
 0001:0008bf30       ??1?$output_processor@_WV?$string_output_adapter@_W@__crt_stdio_output@@V?$standard_base@_WV?$string_output_adapter@_W@__crt_stdio_output@@@2@@__crt_stdio_output@@QEAA@XZ 000000018008cf30 f i libucrtd:output.obj
 0001:0008bf50       ??1?$positional_parameter_base@DV?$stream_output_adapter@D@__crt_stdio_output@@@__crt_stdio_output@@QEAA@XZ 000000018008cf50 f i libucrtd:output.obj
 0001:0008bf70       ??1?$positional_parameter_base@DV?$string_output_adapter@D@__crt_stdio_output@@@__crt_stdio_output@@QEAA@XZ 000000018008cf70 f i libucrtd:output.obj
 0001:0008bf90       ??1?$positional_parameter_base@_WV?$stream_output_adapter@_W@__crt_stdio_output@@@__crt_stdio_output@@QEAA@XZ 000000018008cf90 f i libucrtd:output.obj
 0001:0008bfb0       ??1?$positional_parameter_base@_WV?$string_output_adapter@_W@__crt_stdio_output@@@__crt_stdio_output@@QEAA@XZ 000000018008cfb0 f i libucrtd:output.obj
 0001:0008bfd0       ??1?$standard_base@DV?$stream_output_adapter@D@__crt_stdio_output@@@__crt_stdio_output@@QEAA@XZ 000000018008cfd0 f i libucrtd:output.obj
 0001:0008bff0       ??1?$standard_base@DV?$string_output_adapter@D@__crt_stdio_output@@@__crt_stdio_output@@QEAA@XZ 000000018008cff0 f i libucrtd:output.obj
 0001:0008c010       ??1?$standard_base@_WV?$stream_output_adapter@_W@__crt_stdio_output@@@__crt_stdio_output@@QEAA@XZ 000000018008d010 f i libucrtd:output.obj
 0001:0008c030       ??1?$standard_base@_WV?$string_output_adapter@_W@__crt_stdio_output@@@__crt_stdio_output@@QEAA@XZ 000000018008d030 f i libucrtd:output.obj
 0001:0008c050       ??1__acrt_stdio_temporary_buffering_guard@@QEAA@XZ 000000018008d050 f i libucrtd:output.obj
 0001:0008c080       ??1__crt_errno_guard@@QEAA@XZ 000000018008d080 f i libucrtd:output.obj
 0001:0008c0b0       ??1formatting_buffer@__crt_stdio_output@@QEAA@XZ 000000018008d0b0 f i libucrtd:output.obj
 0001:0008c0e0       ??4?$__crt_unique_heap_ptr@DU__crt_internal_free_policy@@@@QEAAAEAV0@$$QEAV0@@Z 000000018008d0e0 f i libucrtd:output.obj
 0001:0008c120       ??A?$spectre_mitigated_lookup_table@Ustate_transition_pair@__crt_stdio_output@@$0IA@@__crt_stdio_output@@QEBAAEBUstate_transition_pair@1@_K@Z 000000018008d120 f i libucrtd:output.obj
 0001:0008c140       ??C__crt_stdio_stream@@QEBAPEAU__crt_stdio_stream_data@@XZ 000000018008d140 f i libucrtd:output.obj
 0001:0008c9f0       ?adjust_hexit@?$output_processor@DV?$stream_output_adapter@D@__crt_stdio_output@@V?$format_validation_base@DV?$stream_output_adapter@D@__crt_stdio_output@@@2@@__crt_stdio_output@@CADH_N@Z 000000018008d9f0 f i libucrtd:output.obj
 0001:0008ca40       ?adjust_hexit@?$output_processor@DV?$stream_output_adapter@D@__crt_stdio_output@@V?$positional_parameter_base@DV?$stream_output_adapter@D@__crt_stdio_output@@@2@@__crt_stdio_output@@CADH_N@Z 000000018008da40 f i libucrtd:output.obj
 0001:0008ca90       ?adjust_hexit@?$output_processor@DV?$stream_output_adapter@D@__crt_stdio_output@@V?$standard_base@DV?$stream_output_adapter@D@__crt_stdio_output@@@2@@__crt_stdio_output@@CADH_N@Z 000000018008da90 f i libucrtd:output.obj
 0001:0008cae0       ?adjust_hexit@?$output_processor@DV?$string_output_adapter@D@__crt_stdio_output@@V?$format_validation_base@DV?$string_output_adapter@D@__crt_stdio_output@@@2@@__crt_stdio_output@@CADH_N@Z 000000018008dae0 f i libucrtd:output.obj
 0001:0008cb30       ?adjust_hexit@?$output_processor@DV?$string_output_adapter@D@__crt_stdio_output@@V?$positional_parameter_base@DV?$string_output_adapter@D@__crt_stdio_output@@@2@@__crt_stdio_output@@CADH_N@Z 000000018008db30 f i libucrtd:output.obj
 0001:0008cb80       ?adjust_hexit@?$output_processor@DV?$string_output_adapter@D@__crt_stdio_output@@V?$standard_base@DV?$string_output_adapter@D@__crt_stdio_output@@@2@@__crt_stdio_output@@CADH_N@Z 000000018008db80 f i libucrtd:output.obj
 0001:0008cbd0       ?adjust_hexit@?$output_processor@_WV?$stream_output_adapter@_W@__crt_stdio_output@@V?$format_validation_base@_WV?$stream_output_adapter@_W@__crt_stdio_output@@@2@@__crt_stdio_output@@CADH_N@Z 000000018008dbd0 f i libucrtd:output.obj
 0001:0008cc20       ?adjust_hexit@?$output_processor@_WV?$stream_output_adapter@_W@__crt_stdio_output@@V?$positional_parameter_base@_WV?$stream_output_adapter@_W@__crt_stdio_output@@@2@@__crt_stdio_output@@CADH_N@Z 000000018008dc20 f i libucrtd:output.obj
 0001:0008cc70       ?adjust_hexit@?$output_processor@_WV?$stream_output_adapter@_W@__crt_stdio_output@@V?$standard_base@_WV?$stream_output_adapter@_W@__crt_stdio_output@@@2@@__crt_stdio_output@@CADH_N@Z 000000018008dc70 f i libucrtd:output.obj
 0001:0008ccc0       ?adjust_hexit@?$output_processor@_WV?$string_output_adapter@_W@__crt_stdio_output@@V?$format_validation_base@_WV?$string_output_adapter@_W@__crt_stdio_output@@@2@@__crt_stdio_output@@CADH_N@Z 000000018008dcc0 f i libucrtd:output.obj
 0001:0008cd10       ?adjust_hexit@?$output_processor@_WV?$string_output_adapter@_W@__crt_stdio_output@@V?$positional_parameter_base@_WV?$string_output_adapter@_W@__crt_stdio_output@@@2@@__crt_stdio_output@@CADH_N@Z 000000018008dd10 f i libucrtd:output.obj
 0001:0008cd60       ?adjust_hexit@?$output_processor@_WV?$string_output_adapter@_W@__crt_stdio_output@@V?$standard_base@_WV?$string_output_adapter@_W@__crt_stdio_output@@@2@@__crt_stdio_output@@CADH_N@Z 000000018008dd60 f i libucrtd:output.obj
 0001:0008cdb0       ?advance_to_next_pass@?$positional_parameter_base@DV?$stream_output_adapter@D@__crt_stdio_output@@@__crt_stdio_output@@IEAA_NXZ 000000018008ddb0 f i libucrtd:output.obj
 0001:0008ce60       ?advance_to_next_pass@?$positional_parameter_base@DV?$string_output_adapter@D@__crt_stdio_output@@@__crt_stdio_output@@IEAA_NXZ 000000018008de60 f i libucrtd:output.obj
 0001:0008cf10       ?advance_to_next_pass@?$positional_parameter_base@_WV?$stream_output_adapter@_W@__crt_stdio_output@@@__crt_stdio_output@@IEAA_NXZ 000000018008df10 f i libucrtd:output.obj
 0001:0008cfc0       ?advance_to_next_pass@?$positional_parameter_base@_WV?$string_output_adapter@_W@__crt_stdio_output@@@__crt_stdio_output@@IEAA_NXZ 000000018008dfc0 f i libucrtd:output.obj
 0001:0008d070       ?advance_to_next_pass@?$standard_base@DV?$stream_output_adapter@D@__crt_stdio_output@@@__crt_stdio_output@@IEAA_NXZ 000000018008e070 f i libucrtd:output.obj
 0001:0008d0c0       ?advance_to_next_pass@?$standard_base@DV?$string_output_adapter@D@__crt_stdio_output@@@__crt_stdio_output@@IEAA_NXZ 000000018008e0c0 f i libucrtd:output.obj
 0001:0008d110       ?advance_to_next_pass@?$standard_base@_WV?$stream_output_adapter@_W@__crt_stdio_output@@@__crt_stdio_output@@IEAA_NXZ 000000018008e110 f i libucrtd:output.obj
 0001:0008d160       ?advance_to_next_pass@?$standard_base@_WV?$string_output_adapter@_W@__crt_stdio_output@@@__crt_stdio_output@@IEAA_NXZ 000000018008e160 f i libucrtd:output.obj
 0001:0008d1b0       ?crop_zeroes@__crt_stdio_output@@YAXPEADQEAU__crt_locale_pointers@@@Z 000000018008e1b0 f i libucrtd:output.obj
 0001:0008d2f0       ?find_next_state@?$output_processor@DV?$stream_output_adapter@D@__crt_stdio_output@@V?$format_validation_base@DV?$stream_output_adapter@D@__crt_stdio_output@@@2@@__crt_stdio_output@@AEBA?AW4state@2@DW432@@Z 000000018008e2f0 f i libucrtd:output.obj
 0001:0008d380       ?find_next_state@?$output_processor@DV?$stream_output_adapter@D@__crt_stdio_output@@V?$positional_parameter_base@DV?$stream_output_adapter@D@__crt_stdio_output@@@2@@__crt_stdio_output@@AEBA?AW4state@2@DW432@@Z 000000018008e380 f i libucrtd:output.obj
 0001:0008d410       ?find_next_state@?$output_processor@DV?$stream_output_adapter@D@__crt_stdio_output@@V?$standard_base@DV?$stream_output_adapter@D@__crt_stdio_output@@@2@@__crt_stdio_output@@AEBA?AW4state@2@DW432@@Z 000000018008e410 f i libucrtd:output.obj
 0001:0008d4a0       ?find_next_state@?$output_processor@DV?$string_output_adapter@D@__crt_stdio_output@@V?$format_validation_base@DV?$string_output_adapter@D@__crt_stdio_output@@@2@@__crt_stdio_output@@AEBA?AW4state@2@DW432@@Z 000000018008e4a0 f i libucrtd:output.obj
 0001:0008d530       ?find_next_state@?$output_processor@DV?$string_output_adapter@D@__crt_stdio_output@@V?$positional_parameter_base@DV?$string_output_adapter@D@__crt_stdio_output@@@2@@__crt_stdio_output@@AEBA?AW4state@2@DW432@@Z 000000018008e530 f i libucrtd:output.obj
 0001:0008d5c0       ?find_next_state@?$output_processor@DV?$string_output_adapter@D@__crt_stdio_output@@V?$standard_base@DV?$string_output_adapter@D@__crt_stdio_output@@@2@@__crt_stdio_output@@AEBA?AW4state@2@DW432@@Z 000000018008e5c0 f i libucrtd:output.obj
 0001:0008d650       ?find_next_state@?$output_processor@_WV?$stream_output_adapter@_W@__crt_stdio_output@@V?$format_validation_base@_WV?$stream_output_adapter@_W@__crt_stdio_output@@@2@@__crt_stdio_output@@AEBA?AW4state@2@_WW432@@Z 000000018008e650 f i libucrtd:output.obj
 0001:0008d6e0       ?find_next_state@?$output_processor@_WV?$stream_output_adapter@_W@__crt_stdio_output@@V?$positional_parameter_base@_WV?$stream_output_adapter@_W@__crt_stdio_output@@@2@@__crt_stdio_output@@AEBA?AW4state@2@_WW432@@Z 000000018008e6e0 f i libucrtd:output.obj
 0001:0008d770       ?find_next_state@?$output_processor@_WV?$stream_output_adapter@_W@__crt_stdio_output@@V?$standard_base@_WV?$stream_output_adapter@_W@__crt_stdio_output@@@2@@__crt_stdio_output@@AEBA?AW4state@2@_WW432@@Z 000000018008e770 f i libucrtd:output.obj
 0001:0008d800       ?find_next_state@?$output_processor@_WV?$string_output_adapter@_W@__crt_stdio_output@@V?$format_validation_base@_WV?$string_output_adapter@_W@__crt_stdio_output@@@2@@__crt_stdio_output@@AEBA?AW4state@2@_WW432@@Z 000000018008e800 f i libucrtd:output.obj
 0001:0008d890       ?find_next_state@?$output_processor@_WV?$string_output_adapter@_W@__crt_stdio_output@@V?$positional_parameter_base@_WV?$string_output_adapter@_W@__crt_stdio_output@@@2@@__crt_stdio_output@@AEBA?AW4state@2@_WW432@@Z 000000018008e890 f i libucrtd:output.obj
 0001:0008d920       ?find_next_state@?$output_processor@_WV?$string_output_adapter@_W@__crt_stdio_output@@V?$standard_base@_WV?$string_output_adapter@_W@__crt_stdio_output@@@2@@__crt_stdio_output@@AEBA?AW4state@2@_WW432@@Z 000000018008e920 f i libucrtd:output.obj
 0001:0008d9b0       ?force_decimal_point@__crt_stdio_output@@YAXPEADQEAU__crt_locale_pointers@@@Z 000000018008e9b0 f i libucrtd:output.obj
 0001:0008dab0       ?get@__crt_deferred_errno_cache@@QEAAAEAHXZ 000000018008eab0 f i libucrtd:output.obj
 0001:0008dae0       ?get_parameter_type@?$positional_parameter_base@DV?$stream_output_adapter@D@__crt_stdio_output@@@__crt_stdio_output@@CA?AW4parameter_type@12@F@Z 000000018008eae0 f i libucrtd:output.obj
 0001:0008daf0       ?get_parameter_type@?$positional_parameter_base@DV?$stream_output_adapter@D@__crt_stdio_output@@@__crt_stdio_output@@CA?AW4parameter_type@12@G@Z 000000018008eaf0 f i libucrtd:output.obj
 0001:0008db00       ?get_parameter_type@?$positional_parameter_base@DV?$stream_output_adapter@D@__crt_stdio_output@@@__crt_stdio_output@@CA?AW4parameter_type@12@H@Z 000000018008eb00 f i libucrtd:output.obj
 0001:0008db10       ?get_parameter_type@?$positional_parameter_base@DV?$stream_output_adapter@D@__crt_stdio_output@@@__crt_stdio_output@@CA?AW4parameter_type@12@I@Z 000000018008eb10 f i libucrtd:output.obj
 0001:0008db20       ?get_parameter_type@?$positional_parameter_base@DV?$stream_output_adapter@D@__crt_stdio_output@@@__crt_stdio_output@@CA?AW4parameter_type@12@U_CRT_DOUBLE@@@Z 000000018008eb20 f i libucrtd:output.obj
 0001:0008db30       ?get_parameter_type@?$positional_parameter_base@DV?$stream_output_adapter@D@__crt_stdio_output@@@__crt_stdio_output@@CA?AW4parameter_type@12@_J@Z 000000018008eb30 f i libucrtd:output.obj
 0001:0008db40       ?get_parameter_type@?$positional_parameter_base@DV?$stream_output_adapter@D@__crt_stdio_output@@@__crt_stdio_output@@CA?AW4parameter_type@12@_K@Z 000000018008eb40 f i libucrtd:output.obj
 0001:0008db50       ?get_parameter_type@?$positional_parameter_base@DV?$stream_output_adapter@D@__crt_stdio_output@@@__crt_stdio_output@@CA?AW4parameter_type@12@_W@Z 000000018008eb50 f i libucrtd:output.obj
 0001:0008db60       ?get_parameter_type@?$positional_parameter_base@DV?$string_output_adapter@D@__crt_stdio_output@@@__crt_stdio_output@@CA?AW4parameter_type@12@F@Z 000000018008eb60 f i libucrtd:output.obj
 0001:0008db70       ?get_parameter_type@?$positional_parameter_base@DV?$string_output_adapter@D@__crt_stdio_output@@@__crt_stdio_output@@CA?AW4parameter_type@12@G@Z 000000018008eb70 f i libucrtd:output.obj
 0001:0008db80       ?get_parameter_type@?$positional_parameter_base@DV?$string_output_adapter@D@__crt_stdio_output@@@__crt_stdio_output@@CA?AW4parameter_type@12@H@Z 000000018008eb80 f i libucrtd:output.obj
 0001:0008db90       ?get_parameter_type@?$positional_parameter_base@DV?$string_output_adapter@D@__crt_stdio_output@@@__crt_stdio_output@@CA?AW4parameter_type@12@I@Z 000000018008eb90 f i libucrtd:output.obj
 0001:0008dba0       ?get_parameter_type@?$positional_parameter_base@DV?$string_output_adapter@D@__crt_stdio_output@@@__crt_stdio_output@@CA?AW4parameter_type@12@U_CRT_DOUBLE@@@Z 000000018008eba0 f i libucrtd:output.obj
 0001:0008dbb0       ?get_parameter_type@?$positional_parameter_base@DV?$string_output_adapter@D@__crt_stdio_output@@@__crt_stdio_output@@CA?AW4parameter_type@12@_J@Z 000000018008ebb0 f i libucrtd:output.obj
 0001:0008dbc0       ?get_parameter_type@?$positional_parameter_base@DV?$string_output_adapter@D@__crt_stdio_output@@@__crt_stdio_output@@CA?AW4parameter_type@12@_K@Z 000000018008ebc0 f i libucrtd:output.obj
 0001:0008dbd0       ?get_parameter_type@?$positional_parameter_base@DV?$string_output_adapter@D@__crt_stdio_output@@@__crt_stdio_output@@CA?AW4parameter_type@12@_W@Z 000000018008ebd0 f i libucrtd:output.obj
 0001:0008dbe0       ?get_parameter_type@?$positional_parameter_base@_WV?$stream_output_adapter@_W@__crt_stdio_output@@@__crt_stdio_output@@CA?AW4parameter_type@12@F@Z 000000018008ebe0 f i libucrtd:output.obj
 0001:0008dbf0       ?get_parameter_type@?$positional_parameter_base@_WV?$stream_output_adapter@_W@__crt_stdio_output@@@__crt_stdio_output@@CA?AW4parameter_type@12@G@Z 000000018008ebf0 f i libucrtd:output.obj
 0001:0008dc00       ?get_parameter_type@?$positional_parameter_base@_WV?$stream_output_adapter@_W@__crt_stdio_output@@@__crt_stdio_output@@CA?AW4parameter_type@12@H@Z 000000018008ec00 f i libucrtd:output.obj
 0001:0008dc10       ?get_parameter_type@?$positional_parameter_base@_WV?$stream_output_adapter@_W@__crt_stdio_output@@@__crt_stdio_output@@CA?AW4parameter_type@12@I@Z 000000018008ec10 f i libucrtd:output.obj
 0001:0008dc20       ?get_parameter_type@?$positional_parameter_base@_WV?$stream_output_adapter@_W@__crt_stdio_output@@@__crt_stdio_output@@CA?AW4parameter_type@12@U_CRT_DOUBLE@@@Z 000000018008ec20 f i libucrtd:output.obj
 0001:0008dc30       ?get_parameter_type@?$positional_parameter_base@_WV?$stream_output_adapter@_W@__crt_stdio_output@@@__crt_stdio_output@@CA?AW4parameter_type@12@_J@Z 000000018008ec30 f i libucrtd:output.obj
 0001:0008dc40       ?get_parameter_type@?$positional_parameter_base@_WV?$stream_output_adapter@_W@__crt_stdio_output@@@__crt_stdio_output@@CA?AW4parameter_type@12@_K@Z 000000018008ec40 f i libucrtd:output.obj
 0001:0008dc50       ?get_parameter_type@?$positional_parameter_base@_WV?$stream_output_adapter@_W@__crt_stdio_output@@@__crt_stdio_output@@CA?AW4parameter_type@12@_W@Z 000000018008ec50 f i libucrtd:output.obj
 0001:0008dc60       ?get_parameter_type@?$positional_parameter_base@_WV?$string_output_adapter@_W@__crt_stdio_output@@@__crt_stdio_output@@CA?AW4parameter_type@12@F@Z 000000018008ec60 f i libucrtd:output.obj
 0001:0008dc70       ?get_parameter_type@?$positional_parameter_base@_WV?$string_output_adapter@_W@__crt_stdio_output@@@__crt_stdio_output@@CA?AW4parameter_type@12@G@Z 000000018008ec70 f i libucrtd:output.obj
 0001:0008dc80       ?get_parameter_type@?$positional_parameter_base@_WV?$string_output_adapter@_W@__crt_stdio_output@@@__crt_stdio_output@@CA?AW4parameter_type@12@H@Z 000000018008ec80 f i libucrtd:output.obj
 0001:0008dc90       ?get_parameter_type@?$positional_parameter_base@_WV?$string_output_adapter@_W@__crt_stdio_output@@@__crt_stdio_output@@CA?AW4parameter_type@12@I@Z 000000018008ec90 f i libucrtd:output.obj
 0001:0008dca0       ?get_parameter_type@?$positional_parameter_base@_WV?$string_output_adapter@_W@__crt_stdio_output@@@__crt_stdio_output@@CA?AW4parameter_type@12@U_CRT_DOUBLE@@@Z 000000018008eca0 f i libucrtd:output.obj
 0001:0008dcb0       ?get_parameter_type@?$positional_parameter_base@_WV?$string_output_adapter@_W@__crt_stdio_output@@@__crt_stdio_output@@CA?AW4parameter_type@12@_J@Z 000000018008ecb0 f i libucrtd:output.obj
 0001:0008dcc0       ?get_parameter_type@?$positional_parameter_base@_WV?$string_output_adapter@_W@__crt_stdio_output@@@__crt_stdio_output@@CA?AW4parameter_type@12@_K@Z 000000018008ecc0 f i libucrtd:output.obj
 0001:0008dcd0       ?get_parameter_type@?$positional_parameter_base@_WV?$string_output_adapter@_W@__crt_stdio_output@@@__crt_stdio_output@@CA?AW4parameter_type@12@_W@Z 000000018008ecd0 f i libucrtd:output.obj
 0001:0008dce0       ?has_flag@?$output_processor@DV?$stream_output_adapter@D@__crt_stdio_output@@V?$format_validation_base@DV?$stream_output_adapter@D@__crt_stdio_output@@@2@@__crt_stdio_output@@AEBA_NI@Z 000000018008ece0 f i libucrtd:output.obj
 0001:0008dd20       ?has_flag@?$output_processor@DV?$stream_output_adapter@D@__crt_stdio_output@@V?$positional_parameter_base@DV?$stream_output_adapter@D@__crt_stdio_output@@@2@@__crt_stdio_output@@AEBA_NI@Z 000000018008ed20 f i libucrtd:output.obj
 0001:0008dd60       ?has_flag@?$output_processor@DV?$stream_output_adapter@D@__crt_stdio_output@@V?$standard_base@DV?$stream_output_adapter@D@__crt_stdio_output@@@2@@__crt_stdio_output@@AEBA_NI@Z 000000018008ed60 f i libucrtd:output.obj
 0001:0008dda0       ?has_flag@?$output_processor@DV?$string_output_adapter@D@__crt_stdio_output@@V?$format_validation_base@DV?$string_output_adapter@D@__crt_stdio_output@@@2@@__crt_stdio_output@@AEBA_NI@Z 000000018008eda0 f i libucrtd:output.obj
 0001:0008dde0       ?has_flag@?$output_processor@DV?$string_output_adapter@D@__crt_stdio_output@@V?$positional_parameter_base@DV?$string_output_adapter@D@__crt_stdio_output@@@2@@__crt_stdio_output@@AEBA_NI@Z 000000018008ede0 f i libucrtd:output.obj
 0001:0008de20       ?has_flag@?$output_processor@DV?$string_output_adapter@D@__crt_stdio_output@@V?$standard_base@DV?$string_output_adapter@D@__crt_stdio_output@@@2@@__crt_stdio_output@@AEBA_NI@Z 000000018008ee20 f i libucrtd:output.obj
 0001:0008de60       ?has_flag@?$output_processor@_WV?$stream_output_adapter@_W@__crt_stdio_output@@V?$format_validation_base@_WV?$stream_output_adapter@_W@__crt_stdio_output@@@2@@__crt_stdio_output@@AEBA_NI@Z 000000018008ee60 f i libucrtd:output.obj
 0001:0008dea0       ?has_flag@?$output_processor@_WV?$stream_output_adapter@_W@__crt_stdio_output@@V?$positional_parameter_base@_WV?$stream_output_adapter@_W@__crt_stdio_output@@@2@@__crt_stdio_output@@AEBA_NI@Z 000000018008eea0 f i libucrtd:output.obj
 0001:0008dee0       ?has_flag@?$output_processor@_WV?$stream_output_adapter@_W@__crt_stdio_output@@V?$standard_base@_WV?$stream_output_adapter@_W@__crt_stdio_output@@@2@@__crt_stdio_output@@AEBA_NI@Z 000000018008eee0 f i libucrtd:output.obj
 0001:0008df20       ?has_flag@?$output_processor@_WV?$string_output_adapter@_W@__crt_stdio_output@@V?$format_validation_base@_WV?$string_output_adapter@_W@__crt_stdio_output@@@2@@__crt_stdio_output@@AEBA_NI@Z 000000018008ef20 f i libucrtd:output.obj
 0001:0008df60       ?has_flag@?$output_processor@_WV?$string_output_adapter@_W@__crt_stdio_output@@V?$positional_parameter_base@_WV?$string_output_adapter@_W@__crt_stdio_output@@@2@@__crt_stdio_output@@AEBA_NI@Z 000000018008ef60 f i libucrtd:output.obj
 0001:0008dfa0       ?has_flag@?$output_processor@_WV?$string_output_adapter@_W@__crt_stdio_output@@V?$standard_base@_WV?$string_output_adapter@_W@__crt_stdio_output@@@2@@__crt_stdio_output@@AEBA_NI@Z 000000018008efa0 f i libucrtd:output.obj
 0001:0008dfe0       ?is_positional_parameter_reappearance_consistent@?$positional_parameter_base@DV?$stream_output_adapter@D@__crt_stdio_output@@@__crt_stdio_output@@AEAA_NAEBUparameter_data@12@W4parameter_type@12@DW4length_modifier@2@@Z 000000018008efe0 f i libucrtd:output.obj
 0001:0008e240       ?is_positional_parameter_reappearance_consistent@?$positional_parameter_base@DV?$string_output_adapter@D@__crt_stdio_output@@@__crt_stdio_output@@AEAA_NAEBUparameter_data@12@W4parameter_type@12@DW4length_modifier@2@@Z 000000018008f240 f i libucrtd:output.obj
 0001:0008e4a0       ?is_positional_parameter_reappearance_consistent@?$positional_parameter_base@_WV?$stream_output_adapter@_W@__crt_stdio_output@@@__crt_stdio_output@@AEAA_NAEBUparameter_data@12@W4parameter_type@12@_WW4length_modifier@2@@Z 000000018008f4a0 f i libucrtd:output.obj
 0001:0008e700       ?is_positional_parameter_reappearance_consistent@?$positional_parameter_base@_WV?$string_output_adapter@_W@__crt_stdio_output@@@__crt_stdio_output@@AEAA_NAEBUparameter_data@12@W4parameter_type@12@_WW4length_modifier@2@@Z 000000018008f700 f i libucrtd:output.obj
 0001:0008e960       ?is_string_backed@__crt_stdio_stream@@QEBA_NXZ 000000018008f960 f i libucrtd:output.obj
 0001:0008e9a0       ?narrow_null_string@?$output_processor@DV?$stream_output_adapter@D@__crt_stdio_output@@V?$format_validation_base@DV?$stream_output_adapter@D@__crt_stdio_output@@@2@@__crt_stdio_output@@CAPEADXZ 000000018008f9a0 f i libucrtd:output.obj
 0001:0008e9b0       ?narrow_null_string@?$output_processor@DV?$stream_output_adapter@D@__crt_stdio_output@@V?$positional_parameter_base@DV?$stream_output_adapter@D@__crt_stdio_output@@@2@@__crt_stdio_output@@CAPEADXZ 000000018008f9b0 f i libucrtd:output.obj
 0001:0008e9c0       ?narrow_null_string@?$output_processor@DV?$stream_output_adapter@D@__crt_stdio_output@@V?$standard_base@DV?$stream_output_adapter@D@__crt_stdio_output@@@2@@__crt_stdio_output@@CAPEADXZ 000000018008f9c0 f i libucrtd:output.obj
 0001:0008e9d0       ?narrow_null_string@?$output_processor@DV?$string_output_adapter@D@__crt_stdio_output@@V?$format_validation_base@DV?$string_output_adapter@D@__crt_stdio_output@@@2@@__crt_stdio_output@@CAPEADXZ 000000018008f9d0 f i libucrtd:output.obj
 0001:0008e9e0       ?narrow_null_string@?$output_processor@DV?$string_output_adapter@D@__crt_stdio_output@@V?$positional_parameter_base@DV?$string_output_adapter@D@__crt_stdio_output@@@2@@__crt_stdio_output@@CAPEADXZ 000000018008f9e0 f i libucrtd:output.obj
 0001:0008e9f0       ?narrow_null_string@?$output_processor@DV?$string_output_adapter@D@__crt_stdio_output@@V?$standard_base@DV?$string_output_adapter@D@__crt_stdio_output@@@2@@__crt_stdio_output@@CAPEADXZ 000000018008f9f0 f i libucrtd:output.obj
 0001:0008ea00       ?narrow_null_string@?$output_processor@_WV?$stream_output_adapter@_W@__crt_stdio_output@@V?$format_validation_base@_WV?$stream_output_adapter@_W@__crt_stdio_output@@@2@@__crt_stdio_output@@CAPEADXZ 000000018008fa00 f i libucrtd:output.obj
 0001:0008ea10       ?narrow_null_string@?$output_processor@_WV?$stream_output_adapter@_W@__crt_stdio_output@@V?$positional_parameter_base@_WV?$stream_output_adapter@_W@__crt_stdio_output@@@2@@__crt_stdio_output@@CAPEADXZ 000000018008fa10 f i libucrtd:output.obj
 0001:0008ea20       ?narrow_null_string@?$output_processor@_WV?$stream_output_adapter@_W@__crt_stdio_output@@V?$standard_base@_WV?$stream_output_adapter@_W@__crt_stdio_output@@@2@@__crt_stdio_output@@CAPEADXZ 000000018008fa20 f i libucrtd:output.obj
 0001:0008ea30       ?narrow_null_string@?$output_processor@_WV?$string_output_adapter@_W@__crt_stdio_output@@V?$format_validation_base@_WV?$string_output_adapter@_W@__crt_stdio_output@@@2@@__crt_stdio_output@@CAPEADXZ 000000018008fa30 f i libucrtd:output.obj
 0001:0008ea40       ?narrow_null_string@?$output_processor@_WV?$string_output_adapter@_W@__crt_stdio_output@@V?$positional_parameter_base@_WV?$string_output_adapter@_W@__crt_stdio_output@@@2@@__crt_stdio_output@@CAPEADXZ 000000018008fa40 f i libucrtd:output.obj
 0001:0008ea50       ?narrow_null_string@?$output_processor@_WV?$string_output_adapter@_W@__crt_stdio_output@@V?$standard_base@_WV?$string_output_adapter@_W@__crt_stdio_output@@@2@@__crt_stdio_output@@CAPEADXZ 000000018008fa50 f i libucrtd:output.obj
 0001:0008ea60       ?parse_int_from_format_string@?$output_processor@DV?$stream_output_adapter@D@__crt_stdio_output@@V?$format_validation_base@DV?$stream_output_adapter@D@__crt_stdio_output@@@2@@__crt_stdio_output@@AEAA_NQEAH@Z 000000018008fa60 f i libucrtd:output.obj
 0001:0008eb50       ?parse_int_from_format_string@?$output_processor@DV?$stream_output_adapter@D@__crt_stdio_output@@V?$positional_parameter_base@DV?$stream_output_adapter@D@__crt_stdio_output@@@2@@__crt_stdio_output@@AEAA_NQEAH@Z 000000018008fb50 f i libucrtd:output.obj
 0001:0008ec40       ?parse_int_from_format_string@?$output_processor@DV?$stream_output_adapter@D@__crt_stdio_output@@V?$standard_base@DV?$stream_output_adapter@D@__crt_stdio_output@@@2@@__crt_stdio_output@@AEAA_NQEAH@Z 000000018008fc40 f i libucrtd:output.obj
 0001:0008ed30       ?parse_int_from_format_string@?$output_processor@DV?$string_output_adapter@D@__crt_stdio_output@@V?$format_validation_base@DV?$string_output_adapter@D@__crt_stdio_output@@@2@@__crt_stdio_output@@AEAA_NQEAH@Z 000000018008fd30 f i libucrtd:output.obj
 0001:0008ee20       ?parse_int_from_format_string@?$output_processor@DV?$string_output_adapter@D@__crt_stdio_output@@V?$positional_parameter_base@DV?$string_output_adapter@D@__crt_stdio_output@@@2@@__crt_stdio_output@@AEAA_NQEAH@Z 000000018008fe20 f i libucrtd:output.obj
 0001:0008ef10       ?parse_int_from_format_string@?$output_processor@DV?$string_output_adapter@D@__crt_stdio_output@@V?$standard_base@DV?$string_output_adapter@D@__crt_stdio_output@@@2@@__crt_stdio_output@@AEAA_NQEAH@Z 000000018008ff10 f i libucrtd:output.obj
 0001:0008f000       ?parse_int_from_format_string@?$output_processor@_WV?$stream_output_adapter@_W@__crt_stdio_output@@V?$format_validation_base@_WV?$stream_output_adapter@_W@__crt_stdio_output@@@2@@__crt_stdio_output@@AEAA_NQEAH@Z 0000000180090000 f i libucrtd:output.obj
 0001:0008f0f0       ?parse_int_from_format_string@?$output_processor@_WV?$stream_output_adapter@_W@__crt_stdio_output@@V?$positional_parameter_base@_WV?$stream_output_adapter@_W@__crt_stdio_output@@@2@@__crt_stdio_output@@AEAA_NQEAH@Z 00000001800900f0 f i libucrtd:output.obj
 0001:0008f1e0       ?parse_int_from_format_string@?$output_processor@_WV?$stream_output_adapter@_W@__crt_stdio_output@@V?$standard_base@_WV?$stream_output_adapter@_W@__crt_stdio_output@@@2@@__crt_stdio_output@@AEAA_NQEAH@Z 00000001800901e0 f i libucrtd:output.obj
 0001:0008f2d0       ?parse_int_from_format_string@?$output_processor@_WV?$string_output_adapter@_W@__crt_stdio_output@@V?$format_validation_base@_WV?$string_output_adapter@_W@__crt_stdio_output@@@2@@__crt_stdio_output@@AEAA_NQEAH@Z 00000001800902d0 f i libucrtd:output.obj
 0001:0008f3c0       ?parse_int_from_format_string@?$output_processor@_WV?$string_output_adapter@_W@__crt_stdio_output@@V?$positional_parameter_base@_WV?$string_output_adapter@_W@__crt_stdio_output@@@2@@__crt_stdio_output@@AEAA_NQEAH@Z 00000001800903c0 f i libucrtd:output.obj
 0001:0008f4b0       ?parse_int_from_format_string@?$output_processor@_WV?$string_output_adapter@_W@__crt_stdio_output@@V?$standard_base@_WV?$string_output_adapter@_W@__crt_stdio_output@@@2@@__crt_stdio_output@@AEAA_NQEAH@Z 00000001800904b0 f i libucrtd:output.obj
 0001:0008f5a0       ?process@?$output_processor@DV?$stream_output_adapter@D@__crt_stdio_output@@V?$format_validation_base@DV?$stream_output_adapter@D@__crt_stdio_output@@@2@@__crt_stdio_output@@QEAAHXZ 00000001800905a0 f i libucrtd:output.obj
 0001:0008f900       ?process@?$output_processor@DV?$stream_output_adapter@D@__crt_stdio_output@@V?$positional_parameter_base@DV?$stream_output_adapter@D@__crt_stdio_output@@@2@@__crt_stdio_output@@QEAAHXZ 0000000180090900 f i libucrtd:output.obj
 0001:0008fc60       ?process@?$output_processor@DV?$stream_output_adapter@D@__crt_stdio_output@@V?$standard_base@DV?$stream_output_adapter@D@__crt_stdio_output@@@2@@__crt_stdio_output@@QEAAHXZ 0000000180090c60 f i libucrtd:output.obj
 0001:0008ffc0       ?process@?$output_processor@DV?$string_output_adapter@D@__crt_stdio_output@@V?$format_validation_base@DV?$string_output_adapter@D@__crt_stdio_output@@@2@@__crt_stdio_output@@QEAAHXZ 0000000180090fc0 f i libucrtd:output.obj
 0001:00090320       ?process@?$output_processor@DV?$string_output_adapter@D@__crt_stdio_output@@V?$positional_parameter_base@DV?$string_output_adapter@D@__crt_stdio_output@@@2@@__crt_stdio_output@@QEAAHXZ 0000000180091320 f i libucrtd:output.obj
 0001:00090680       ?process@?$output_processor@DV?$string_output_adapter@D@__crt_stdio_output@@V?$standard_base@DV?$string_output_adapter@D@__crt_stdio_output@@@2@@__crt_stdio_output@@QEAAHXZ 0000000180091680 f i libucrtd:output.obj
 0001:000909e0       ?process@?$output_processor@_WV?$stream_output_adapter@_W@__crt_stdio_output@@V?$format_validation_base@_WV?$stream_output_adapter@_W@__crt_stdio_output@@@2@@__crt_stdio_output@@QEAAHXZ 00000001800919e0 f i libucrtd:output.obj
 0001:00090d40       ?process@?$output_processor@_WV?$stream_output_adapter@_W@__crt_stdio_output@@V?$positional_parameter_base@_WV?$stream_output_adapter@_W@__crt_stdio_output@@@2@@__crt_stdio_output@@QEAAHXZ 0000000180091d40 f i libucrtd:output.obj
 0001:000910a0       ?process@?$output_processor@_WV?$stream_output_adapter@_W@__crt_stdio_output@@V?$standard_base@_WV?$stream_output_adapter@_W@__crt_stdio_output@@@2@@__crt_stdio_output@@QEAAHXZ 00000001800920a0 f i libucrtd:output.obj
 0001:00091400       ?process@?$output_processor@_WV?$string_output_adapter@_W@__crt_stdio_output@@V?$format_validation_base@_WV?$string_output_adapter@_W@__crt_stdio_output@@@2@@__crt_stdio_output@@QEAAHXZ 0000000180092400 f i libucrtd:output.obj
 0001:00091760       ?process@?$output_processor@_WV?$string_output_adapter@_W@__crt_stdio_output@@V?$positional_parameter_base@_WV?$string_output_adapter@_W@__crt_stdio_output@@@2@@__crt_stdio_output@@QEAAHXZ 0000000180092760 f i libucrtd:output.obj
 0001:00091ac0       ?process@?$output_processor@_WV?$string_output_adapter@_W@__crt_stdio_output@@V?$standard_base@_WV?$string_output_adapter@_W@__crt_stdio_output@@@2@@__crt_stdio_output@@QEAAHXZ 0000000180092ac0 f i libucrtd:output.obj
 0001:00091e20       ?public_stream@__crt_stdio_stream@@QEBAPEAU_iobuf@@XZ 0000000180092e20 f i libucrtd:output.obj
 0001:00091e30       ?set_flag@?$output_processor@DV?$stream_output_adapter@D@__crt_stdio_output@@V?$format_validation_base@DV?$stream_output_adapter@D@__crt_stdio_output@@@2@@__crt_stdio_output@@AEAAXI@Z 0000000180092e30 f i libucrtd:output.obj
 0001:00091e50       ?set_flag@?$output_processor@DV?$stream_output_adapter@D@__crt_stdio_output@@V?$positional_parameter_base@DV?$stream_output_adapter@D@__crt_stdio_output@@@2@@__crt_stdio_output@@AEAAXI@Z 0000000180092e50 f i libucrtd:output.obj
 0001:00091e70       ?set_flag@?$output_processor@DV?$stream_output_adapter@D@__crt_stdio_output@@V?$standard_base@DV?$stream_output_adapter@D@__crt_stdio_output@@@2@@__crt_stdio_output@@AEAAXI@Z 0000000180092e70 f i libucrtd:output.obj
 0001:00091e90       ?set_flag@?$output_processor@DV?$string_output_adapter@D@__crt_stdio_output@@V?$format_validation_base@DV?$string_output_adapter@D@__crt_stdio_output@@@2@@__crt_stdio_output@@AEAAXI@Z 0000000180092e90 f i libucrtd:output.obj
 0001:00091eb0       ?set_flag@?$output_processor@DV?$string_output_adapter@D@__crt_stdio_output@@V?$positional_parameter_base@DV?$string_output_adapter@D@__crt_stdio_output@@@2@@__crt_stdio_output@@AEAAXI@Z 0000000180092eb0 f i libucrtd:output.obj
 0001:00091ed0       ?set_flag@?$output_processor@DV?$string_output_adapter@D@__crt_stdio_output@@V?$standard_base@DV?$string_output_adapter@D@__crt_stdio_output@@@2@@__crt_stdio_output@@AEAAXI@Z 0000000180092ed0 f i libucrtd:output.obj
 0001:00091ef0       ?set_flag@?$output_processor@_WV?$stream_output_adapter@_W@__crt_stdio_output@@V?$format_validation_base@_WV?$stream_output_adapter@_W@__crt_stdio_output@@@2@@__crt_stdio_output@@AEAAXI@Z 0000000180092ef0 f i libucrtd:output.obj
 0001:00091f10       ?set_flag@?$output_processor@_WV?$stream_output_adapter@_W@__crt_stdio_output@@V?$positional_parameter_base@_WV?$stream_output_adapter@_W@__crt_stdio_output@@@2@@__crt_stdio_output@@AEAAXI@Z 0000000180092f10 f i libucrtd:output.obj
 0001:00091f30       ?set_flag@?$output_processor@_WV?$stream_output_adapter@_W@__crt_stdio_output@@V?$standard_base@_WV?$stream_output_adapter@_W@__crt_stdio_output@@@2@@__crt_stdio_output@@AEAAXI@Z 0000000180092f30 f i libucrtd:output.obj
 0001:00091f50       ?set_flag@?$output_processor@_WV?$string_output_adapter@_W@__crt_stdio_output@@V?$format_validation_base@_WV?$string_output_adapter@_W@__crt_stdio_output@@@2@@__crt_stdio_output@@AEAAXI@Z 0000000180092f50 f i libucrtd:output.obj
 0001:00091f70       ?set_flag@?$output_processor@_WV?$string_output_adapter@_W@__crt_stdio_output@@V?$positional_parameter_base@_WV?$string_output_adapter@_W@__crt_stdio_output@@@2@@__crt_stdio_output@@AEAAXI@Z 0000000180092f70 f i libucrtd:output.obj
 0001:00091f90       ?set_flag@?$output_processor@_WV?$string_output_adapter@_W@__crt_stdio_output@@V?$standard_base@_WV?$string_output_adapter@_W@__crt_stdio_output@@@2@@__crt_stdio_output@@AEAAXI@Z 0000000180092f90 f i libucrtd:output.obj
 0001:00091fb0       ?should_format@?$positional_parameter_base@DV?$stream_output_adapter@D@__crt_stdio_output@@@__crt_stdio_output@@IEAA_NXZ 0000000180092fb0 f i libucrtd:output.obj
 0001:00091ff0       ?should_format@?$positional_parameter_base@DV?$string_output_adapter@D@__crt_stdio_output@@@__crt_stdio_output@@IEAA_NXZ 0000000180092ff0 f i libucrtd:output.obj
 0001:00092030       ?should_format@?$positional_parameter_base@_WV?$stream_output_adapter@_W@__crt_stdio_output@@@__crt_stdio_output@@IEAA_NXZ 0000000180093030 f i libucrtd:output.obj
 0001:00092070       ?should_format@?$positional_parameter_base@_WV?$string_output_adapter@_W@__crt_stdio_output@@@__crt_stdio_output@@IEAA_NXZ 0000000180093070 f i libucrtd:output.obj
 0001:000920b0       ?should_format@?$standard_base@DV?$stream_output_adapter@D@__crt_stdio_output@@@__crt_stdio_output@@IEAA_NXZ 00000001800930b0 f i libucrtd:output.obj
 0001:000920c0       ?should_format@?$standard_base@DV?$string_output_adapter@D@__crt_stdio_output@@@__crt_stdio_output@@IEAA_NXZ 00000001800930c0 f i libucrtd:output.obj
 0001:000920d0       ?should_format@?$standard_base@_WV?$stream_output_adapter@_W@__crt_stdio_output@@@__crt_stdio_output@@IEAA_NXZ 00000001800930d0 f i libucrtd:output.obj
 0001:000920e0       ?should_format@?$standard_base@_WV?$string_output_adapter@_W@__crt_stdio_output@@@__crt_stdio_output@@IEAA_NXZ 00000001800930e0 f i libucrtd:output.obj
 0001:000920f0       ?should_skip_normal_state_processing@?$positional_parameter_base@DV?$stream_output_adapter@D@__crt_stdio_output@@@__crt_stdio_output@@IEAA_NXZ 00000001800930f0 f i libucrtd:output.obj
 0001:00092140       ?should_skip_normal_state_processing@?$positional_parameter_base@DV?$string_output_adapter@D@__crt_stdio_output@@@__crt_stdio_output@@IEAA_NXZ 0000000180093140 f i libucrtd:output.obj
 0001:00092190       ?should_skip_normal_state_processing@?$positional_parameter_base@_WV?$stream_output_adapter@_W@__crt_stdio_output@@@__crt_stdio_output@@IEAA_NXZ 0000000180093190 f i libucrtd:output.obj
 0001:000921e0       ?should_skip_normal_state_processing@?$positional_parameter_base@_WV?$string_output_adapter@_W@__crt_stdio_output@@@__crt_stdio_output@@IEAA_NXZ 00000001800931e0 f i libucrtd:output.obj
 0001:00092230       ?should_skip_normal_state_processing@?$standard_base@DV?$stream_output_adapter@D@__crt_stdio_output@@@__crt_stdio_output@@IEAA_NXZ 0000000180093230 f i libucrtd:output.obj
 0001:00092240       ?should_skip_normal_state_processing@?$standard_base@DV?$string_output_adapter@D@__crt_stdio_output@@@__crt_stdio_output@@IEAA_NXZ 0000000180093240 f i libucrtd:output.obj
 0001:00092250       ?should_skip_normal_state_processing@?$standard_base@_WV?$stream_output_adapter@_W@__crt_stdio_output@@@__crt_stdio_output@@IEAA_NXZ 0000000180093250 f i libucrtd:output.obj
 0001:00092260       ?should_skip_normal_state_processing@?$standard_base@_WV?$string_output_adapter@_W@__crt_stdio_output@@@__crt_stdio_output@@IEAA_NXZ 0000000180093260 f i libucrtd:output.obj
 0001:00092270       ?should_skip_type_state_output@?$positional_parameter_base@DV?$stream_output_adapter@D@__crt_stdio_output@@@__crt_stdio_output@@IEBA_NXZ 0000000180093270 f i libucrtd:output.obj
 0001:000922b0       ?should_skip_type_state_output@?$positional_parameter_base@DV?$string_output_adapter@D@__crt_stdio_output@@@__crt_stdio_output@@IEBA_NXZ 00000001800932b0 f i libucrtd:output.obj
 0001:000922f0       ?should_skip_type_state_output@?$positional_parameter_base@_WV?$stream_output_adapter@_W@__crt_stdio_output@@@__crt_stdio_output@@IEBA_NXZ 00000001800932f0 f i libucrtd:output.obj
 0001:00092330       ?should_skip_type_state_output@?$positional_parameter_base@_WV?$string_output_adapter@_W@__crt_stdio_output@@@__crt_stdio_output@@IEBA_NXZ 0000000180093330 f i libucrtd:output.obj
 0001:00092370       ?should_skip_type_state_output@?$standard_base@DV?$stream_output_adapter@D@__crt_stdio_output@@@__crt_stdio_output@@IEBA_NXZ 0000000180093370 f i libucrtd:output.obj
 0001:00092380       ?should_skip_type_state_output@?$standard_base@DV?$string_output_adapter@D@__crt_stdio_output@@@__crt_stdio_output@@IEBA_NXZ 0000000180093380 f i libucrtd:output.obj
 0001:00092390       ?should_skip_type_state_output@?$standard_base@_WV?$stream_output_adapter@_W@__crt_stdio_output@@@__crt_stdio_output@@IEBA_NXZ 0000000180093390 f i libucrtd:output.obj
 0001:000923a0       ?should_skip_type_state_output@?$standard_base@_WV?$string_output_adapter@_W@__crt_stdio_output@@@__crt_stdio_output@@IEBA_NXZ 00000001800933a0 f i libucrtd:output.obj
 0001:000923b0       ?state_case_dot@?$output_processor@DV?$stream_output_adapter@D@__crt_stdio_output@@V?$format_validation_base@DV?$stream_output_adapter@D@__crt_stdio_output@@@2@@__crt_stdio_output@@AEAA_NXZ 00000001800933b0 f i libucrtd:output.obj
 0001:000923d0       ?state_case_dot@?$output_processor@DV?$stream_output_adapter@D@__crt_stdio_output@@V?$positional_parameter_base@DV?$stream_output_adapter@D@__crt_stdio_output@@@2@@__crt_stdio_output@@AEAA_NXZ 00000001800933d0 f i libucrtd:output.obj
 0001:000923f0       ?state_case_dot@?$output_processor@DV?$stream_output_adapter@D@__crt_stdio_output@@V?$standard_base@DV?$stream_output_adapter@D@__crt_stdio_output@@@2@@__crt_stdio_output@@AEAA_NXZ 00000001800933f0 f i libucrtd:output.obj
 0001:00092410       ?state_case_dot@?$output_processor@DV?$string_output_adapter@D@__crt_stdio_output@@V?$format_validation_base@DV?$string_output_adapter@D@__crt_stdio_output@@@2@@__crt_stdio_output@@AEAA_NXZ 0000000180093410 f i libucrtd:output.obj
 0001:00092430       ?state_case_dot@?$output_processor@DV?$string_output_adapter@D@__crt_stdio_output@@V?$positional_parameter_base@DV?$string_output_adapter@D@__crt_stdio_output@@@2@@__crt_stdio_output@@AEAA_NXZ 0000000180093430 f i libucrtd:output.obj
 0001:00092450       ?state_case_dot@?$output_processor@DV?$string_output_adapter@D@__crt_stdio_output@@V?$standard_base@DV?$string_output_adapter@D@__crt_stdio_output@@@2@@__crt_stdio_output@@AEAA_NXZ 0000000180093450 f i libucrtd:output.obj
 0001:00092470       ?state_case_dot@?$output_processor@_WV?$stream_output_adapter@_W@__crt_stdio_output@@V?$format_validation_base@_WV?$stream_output_adapter@_W@__crt_stdio_output@@@2@@__crt_stdio_output@@AEAA_NXZ 0000000180093470 f i libucrtd:output.obj
 0001:00092490       ?state_case_dot@?$output_processor@_WV?$stream_output_adapter@_W@__crt_stdio_output@@V?$positional_parameter_base@_WV?$stream_output_adapter@_W@__crt_stdio_output@@@2@@__crt_stdio_output@@AEAA_NXZ 0000000180093490 f i libucrtd:output.obj
 0001:000924b0       ?state_case_dot@?$output_processor@_WV?$stream_output_adapter@_W@__crt_stdio_output@@V?$standard_base@_WV?$stream_output_adapter@_W@__crt_stdio_output@@@2@@__crt_stdio_output@@AEAA_NXZ 00000001800934b0 f i libucrtd:output.obj
 0001:000924d0       ?state_case_dot@?$output_processor@_WV?$string_output_adapter@_W@__crt_stdio_output@@V?$format_validation_base@_WV?$string_output_adapter@_W@__crt_stdio_output@@@2@@__crt_stdio_output@@AEAA_NXZ 00000001800934d0 f i libucrtd:output.obj
 0001:000924f0       ?state_case_dot@?$output_processor@_WV?$string_output_adapter@_W@__crt_stdio_output@@V?$positional_parameter_base@_WV?$string_output_adapter@_W@__crt_stdio_output@@@2@@__crt_stdio_output@@AEAA_NXZ 00000001800934f0 f i libucrtd:output.obj
 0001:00092510       ?state_case_dot@?$output_processor@_WV?$string_output_adapter@_W@__crt_stdio_output@@V?$standard_base@_WV?$string_output_adapter@_W@__crt_stdio_output@@@2@@__crt_stdio_output@@AEAA_NXZ 0000000180093510 f i libucrtd:output.obj
 0001:00092530       ?state_case_flag@?$output_processor@DV?$stream_output_adapter@D@__crt_stdio_output@@V?$format_validation_base@DV?$stream_output_adapter@D@__crt_stdio_output@@@2@@__crt_stdio_output@@AEAA_NXZ 0000000180093530 f i libucrtd:output.obj
 0001:000925d0       ?state_case_flag@?$output_processor@DV?$stream_output_adapter@D@__crt_stdio_output@@V?$positional_parameter_base@DV?$stream_output_adapter@D@__crt_stdio_output@@@2@@__crt_stdio_output@@AEAA_NXZ 00000001800935d0 f i libucrtd:output.obj
 0001:00092670       ?state_case_flag@?$output_processor@DV?$stream_output_adapter@D@__crt_stdio_output@@V?$standard_base@DV?$stream_output_adapter@D@__crt_stdio_output@@@2@@__crt_stdio_output@@AEAA_NXZ 0000000180093670 f i libucrtd:output.obj
 0001:00092710       ?state_case_flag@?$output_processor@DV?$string_output_adapter@D@__crt_stdio_output@@V?$format_validation_base@DV?$string_output_adapter@D@__crt_stdio_output@@@2@@__crt_stdio_output@@AEAA_NXZ 0000000180093710 f i libucrtd:output.obj
 0001:000927b0       ?state_case_flag@?$output_processor@DV?$string_output_adapter@D@__crt_stdio_output@@V?$positional_parameter_base@DV?$string_output_adapter@D@__crt_stdio_output@@@2@@__crt_stdio_output@@AEAA_NXZ 00000001800937b0 f i libucrtd:output.obj
 0001:00092850       ?state_case_flag@?$output_processor@DV?$string_output_adapter@D@__crt_stdio_output@@V?$standard_base@DV?$string_output_adapter@D@__crt_stdio_output@@@2@@__crt_stdio_output@@AEAA_NXZ 0000000180093850 f i libucrtd:output.obj
 0001:000928f0       ?state_case_flag@?$output_processor@_WV?$stream_output_adapter@_W@__crt_stdio_output@@V?$format_validation_base@_WV?$stream_output_adapter@_W@__crt_stdio_output@@@2@@__crt_stdio_output@@AEAA_NXZ 00000001800938f0 f i libucrtd:output.obj
 0001:00092990       ?state_case_flag@?$output_processor@_WV?$stream_output_adapter@_W@__crt_stdio_output@@V?$positional_parameter_base@_WV?$stream_output_adapter@_W@__crt_stdio_output@@@2@@__crt_stdio_output@@AEAA_NXZ 0000000180093990 f i libucrtd:output.obj
 0001:00092a30       ?state_case_flag@?$output_processor@_WV?$stream_output_adapter@_W@__crt_stdio_output@@V?$standard_base@_WV?$stream_output_adapter@_W@__crt_stdio_output@@@2@@__crt_stdio_output@@AEAA_NXZ 0000000180093a30 f i libucrtd:output.obj
 0001:00092ad0       ?state_case_flag@?$output_processor@_WV?$string_output_adapter@_W@__crt_stdio_output@@V?$format_validation_base@_WV?$string_output_adapter@_W@__crt_stdio_output@@@2@@__crt_stdio_output@@AEAA_NXZ 0000000180093ad0 f i libucrtd:output.obj
 0001:00092b70       ?state_case_flag@?$output_processor@_WV?$string_output_adapter@_W@__crt_stdio_output@@V?$positional_parameter_base@_WV?$string_output_adapter@_W@__crt_stdio_output@@@2@@__crt_stdio_output@@AEAA_NXZ 0000000180093b70 f i libucrtd:output.obj
 0001:00092c10       ?state_case_flag@?$output_processor@_WV?$string_output_adapter@_W@__crt_stdio_output@@V?$standard_base@_WV?$string_output_adapter@_W@__crt_stdio_output@@@2@@__crt_stdio_output@@AEAA_NXZ 0000000180093c10 f i libucrtd:output.obj
 0001:00092cb0       ?state_case_normal@?$output_processor@DV?$stream_output_adapter@D@__crt_stdio_output@@V?$format_validation_base@DV?$stream_output_adapter@D@__crt_stdio_output@@@2@@__crt_stdio_output@@AEAA_NXZ 0000000180093cb0 f i libucrtd:output.obj
 0001:00092d90       ?state_case_normal@?$output_processor@DV?$stream_output_adapter@D@__crt_stdio_output@@V?$positional_parameter_base@DV?$stream_output_adapter@D@__crt_stdio_output@@@2@@__crt_stdio_output@@AEAA_NXZ 0000000180093d90 f i libucrtd:output.obj
 0001:00092e70       ?state_case_normal@?$output_processor@DV?$stream_output_adapter@D@__crt_stdio_output@@V?$standard_base@DV?$stream_output_adapter@D@__crt_stdio_output@@@2@@__crt_stdio_output@@AEAA_NXZ 0000000180093e70 f i libucrtd:output.obj
 0001:00092f50       ?state_case_normal@?$output_processor@DV?$string_output_adapter@D@__crt_stdio_output@@V?$format_validation_base@DV?$string_output_adapter@D@__crt_stdio_output@@@2@@__crt_stdio_output@@AEAA_NXZ 0000000180093f50 f i libucrtd:output.obj
 0001:00093030       ?state_case_normal@?$output_processor@DV?$string_output_adapter@D@__crt_stdio_output@@V?$positional_parameter_base@DV?$string_output_adapter@D@__crt_stdio_output@@@2@@__crt_stdio_output@@AEAA_NXZ 0000000180094030 f i libucrtd:output.obj
 0001:00093110       ?state_case_normal@?$output_processor@DV?$string_output_adapter@D@__crt_stdio_output@@V?$standard_base@DV?$string_output_adapter@D@__crt_stdio_output@@@2@@__crt_stdio_output@@AEAA_NXZ 0000000180094110 f i libucrtd:output.obj
 0001:000931f0       ?state_case_normal@?$output_processor@_WV?$stream_output_adapter@_W@__crt_stdio_output@@V?$format_validation_base@_WV?$stream_output_adapter@_W@__crt_stdio_output@@@2@@__crt_stdio_output@@AEAA_NXZ 00000001800941f0 f i libucrtd:output.obj
 0001:000932d0       ?state_case_normal@?$output_processor@_WV?$stream_output_adapter@_W@__crt_stdio_output@@V?$positional_parameter_base@_WV?$stream_output_adapter@_W@__crt_stdio_output@@@2@@__crt_stdio_output@@AEAA_NXZ 00000001800942d0 f i libucrtd:output.obj
 0001:000933b0       ?state_case_normal@?$output_processor@_WV?$stream_output_adapter@_W@__crt_stdio_output@@V?$standard_base@_WV?$stream_output_adapter@_W@__crt_stdio_output@@@2@@__crt_stdio_output@@AEAA_NXZ 00000001800943b0 f i libucrtd:output.obj
 0001:00093490       ?state_case_normal@?$output_processor@_WV?$string_output_adapter@_W@__crt_stdio_output@@V?$format_validation_base@_WV?$string_output_adapter@_W@__crt_stdio_output@@@2@@__crt_stdio_output@@AEAA_NXZ 0000000180094490 f i libucrtd:output.obj
 0001:00093570       ?state_case_normal@?$output_processor@_WV?$string_output_adapter@_W@__crt_stdio_output@@V?$positional_parameter_base@_WV?$string_output_adapter@_W@__crt_stdio_output@@@2@@__crt_stdio_output@@AEAA_NXZ 0000000180094570 f i libucrtd:output.obj
 0001:00093650       ?state_case_normal@?$output_processor@_WV?$string_output_adapter@_W@__crt_stdio_output@@V?$standard_base@_WV?$string_output_adapter@_W@__crt_stdio_output@@@2@@__crt_stdio_output@@AEAA_NXZ 0000000180094650 f i libucrtd:output.obj
 0001:00093730       ?state_case_normal_common@?$output_processor@DV?$stream_output_adapter@D@__crt_stdio_output@@V?$format_validation_base@DV?$stream_output_adapter@D@__crt_stdio_output@@@2@@__crt_stdio_output@@AEAA_NXZ 0000000180094730 f i libucrtd:output.obj
 0001:00093780       ?state_case_normal_common@?$output_processor@DV?$stream_output_adapter@D@__crt_stdio_output@@V?$positional_parameter_base@DV?$stream_output_adapter@D@__crt_stdio_output@@@2@@__crt_stdio_output@@AEAA_NXZ 0000000180094780 f i libucrtd:output.obj
 0001:000937d0       ?state_case_normal_common@?$output_processor@DV?$stream_output_adapter@D@__crt_stdio_output@@V?$standard_base@DV?$stream_output_adapter@D@__crt_stdio_output@@@2@@__crt_stdio_output@@AEAA_NXZ 00000001800947d0 f i libucrtd:output.obj
 0001:00093820       ?state_case_normal_common@?$output_processor@DV?$string_output_adapter@D@__crt_stdio_output@@V?$format_validation_base@DV?$string_output_adapter@D@__crt_stdio_output@@@2@@__crt_stdio_output@@AEAA_NXZ 0000000180094820 f i libucrtd:output.obj
 0001:00093870       ?state_case_normal_common@?$output_processor@DV?$string_output_adapter@D@__crt_stdio_output@@V?$positional_parameter_base@DV?$string_output_adapter@D@__crt_stdio_output@@@2@@__crt_stdio_output@@AEAA_NXZ 0000000180094870 f i libucrtd:output.obj
 0001:000938c0       ?state_case_normal_common@?$output_processor@DV?$string_output_adapter@D@__crt_stdio_output@@V?$standard_base@DV?$string_output_adapter@D@__crt_stdio_output@@@2@@__crt_stdio_output@@AEAA_NXZ 00000001800948c0 f i libucrtd:output.obj
 0001:00093910       ?state_case_normal_common@?$output_processor@_WV?$stream_output_adapter@_W@__crt_stdio_output@@V?$format_validation_base@_WV?$stream_output_adapter@_W@__crt_stdio_output@@@2@@__crt_stdio_output@@AEAA_NXZ 0000000180094910 f i libucrtd:output.obj
 0001:00093960       ?state_case_normal_common@?$output_processor@_WV?$stream_output_adapter@_W@__crt_stdio_output@@V?$positional_parameter_base@_WV?$stream_output_adapter@_W@__crt_stdio_output@@@2@@__crt_stdio_output@@AEAA_NXZ 0000000180094960 f i libucrtd:output.obj
 0001:000939b0       ?state_case_normal_common@?$output_processor@_WV?$stream_output_adapter@_W@__crt_stdio_output@@V?$standard_base@_WV?$stream_output_adapter@_W@__crt_stdio_output@@@2@@__crt_stdio_output@@AEAA_NXZ 00000001800949b0 f i libucrtd:output.obj
 0001:00093a00       ?state_case_normal_common@?$output_processor@_WV?$string_output_adapter@_W@__crt_stdio_output@@V?$format_validation_base@_WV?$string_output_adapter@_W@__crt_stdio_output@@@2@@__crt_stdio_output@@AEAA_NXZ 0000000180094a00 f i libucrtd:output.obj
 0001:00093a50       ?state_case_normal_common@?$output_processor@_WV?$string_output_adapter@_W@__crt_stdio_output@@V?$positional_parameter_base@_WV?$string_output_adapter@_W@__crt_stdio_output@@@2@@__crt_stdio_output@@AEAA_NXZ 0000000180094a50 f i libucrtd:output.obj
 0001:00093aa0       ?state_case_normal_common@?$output_processor@_WV?$string_output_adapter@_W@__crt_stdio_output@@V?$standard_base@_WV?$string_output_adapter@_W@__crt_stdio_output@@@2@@__crt_stdio_output@@AEAA_NXZ 0000000180094aa0 f i libucrtd:output.obj
 0001:00093af0       ?state_case_normal_tchar@?$output_processor@DV?$stream_output_adapter@D@__crt_stdio_output@@V?$format_validation_base@DV?$stream_output_adapter@D@__crt_stdio_output@@@2@@__crt_stdio_output@@AEAA_ND@Z 0000000180094af0 f i libucrtd:output.obj
 0001:00093c30       ?state_case_normal_tchar@?$output_processor@DV?$stream_output_adapter@D@__crt_stdio_output@@V?$positional_parameter_base@DV?$stream_output_adapter@D@__crt_stdio_output@@@2@@__crt_stdio_output@@AEAA_ND@Z 0000000180094c30 f i libucrtd:output.obj
 0001:00093d70       ?state_case_normal_tchar@?$output_processor@DV?$stream_output_adapter@D@__crt_stdio_output@@V?$standard_base@DV?$stream_output_adapter@D@__crt_stdio_output@@@2@@__crt_stdio_output@@AEAA_ND@Z 0000000180094d70 f i libucrtd:output.obj
 0001:00093eb0       ?state_case_normal_tchar@?$output_processor@DV?$string_output_adapter@D@__crt_stdio_output@@V?$format_validation_base@DV?$string_output_adapter@D@__crt_stdio_output@@@2@@__crt_stdio_output@@AEAA_ND@Z 0000000180094eb0 f i libucrtd:output.obj
 0001:00093ff0       ?state_case_normal_tchar@?$output_processor@DV?$string_output_adapter@D@__crt_stdio_output@@V?$positional_parameter_base@DV?$string_output_adapter@D@__crt_stdio_output@@@2@@__crt_stdio_output@@AEAA_ND@Z 0000000180094ff0 f i libucrtd:output.obj
 0001:00094130       ?state_case_normal_tchar@?$output_processor@DV?$string_output_adapter@D@__crt_stdio_output@@V?$standard_base@DV?$string_output_adapter@D@__crt_stdio_output@@@2@@__crt_stdio_output@@AEAA_ND@Z 0000000180095130 f i libucrtd:output.obj
 0001:00094270       ?state_case_normal_tchar@?$output_processor@_WV?$stream_output_adapter@_W@__crt_stdio_output@@V?$format_validation_base@_WV?$stream_output_adapter@_W@__crt_stdio_output@@@2@@__crt_stdio_output@@AEAA_N_W@Z 0000000180095270 f i libucrtd:output.obj
 0001:00094290       ?state_case_normal_tchar@?$output_processor@_WV?$stream_output_adapter@_W@__crt_stdio_output@@V?$positional_parameter_base@_WV?$stream_output_adapter@_W@__crt_stdio_output@@@2@@__crt_stdio_output@@AEAA_N_W@Z 0000000180095290 f i libucrtd:output.obj
 0001:000942b0       ?state_case_normal_tchar@?$output_processor@_WV?$stream_output_adapter@_W@__crt_stdio_output@@V?$standard_base@_WV?$stream_output_adapter@_W@__crt_stdio_output@@@2@@__crt_stdio_output@@AEAA_N_W@Z 00000001800952b0 f i libucrtd:output.obj
 0001:000942d0       ?state_case_normal_tchar@?$output_processor@_WV?$string_output_adapter@_W@__crt_stdio_output@@V?$format_validation_base@_WV?$string_output_adapter@_W@__crt_stdio_output@@@2@@__crt_stdio_output@@AEAA_N_W@Z 00000001800952d0 f i libucrtd:output.obj
 0001:000942f0       ?state_case_normal_tchar@?$output_processor@_WV?$string_output_adapter@_W@__crt_stdio_output@@V?$positional_parameter_base@_WV?$string_output_adapter@_W@__crt_stdio_output@@@2@@__crt_stdio_output@@AEAA_N_W@Z 00000001800952f0 f i libucrtd:output.obj
 0001:00094310       ?state_case_normal_tchar@?$output_processor@_WV?$string_output_adapter@_W@__crt_stdio_output@@V?$standard_base@_WV?$string_output_adapter@_W@__crt_stdio_output@@@2@@__crt_stdio_output@@AEAA_N_W@Z 0000000180095310 f i libucrtd:output.obj
 0001:00094330       ?state_case_percent@?$output_processor@DV?$stream_output_adapter@D@__crt_stdio_output@@V?$format_validation_base@DV?$stream_output_adapter@D@__crt_stdio_output@@@2@@__crt_stdio_output@@AEAA_NXZ 0000000180095330 f i libucrtd:output.obj
 0001:00094380       ?state_case_percent@?$output_processor@DV?$stream_output_adapter@D@__crt_stdio_output@@V?$positional_parameter_base@DV?$stream_output_adapter@D@__crt_stdio_output@@@2@@__crt_stdio_output@@AEAA_NXZ 0000000180095380 f i libucrtd:output.obj
 0001:000943d0       ?state_case_percent@?$output_processor@DV?$stream_output_adapter@D@__crt_stdio_output@@V?$standard_base@DV?$stream_output_adapter@D@__crt_stdio_output@@@2@@__crt_stdio_output@@AEAA_NXZ 00000001800953d0 f i libucrtd:output.obj
 0001:00094420       ?state_case_percent@?$output_processor@DV?$string_output_adapter@D@__crt_stdio_output@@V?$format_validation_base@DV?$string_output_adapter@D@__crt_stdio_output@@@2@@__crt_stdio_output@@AEAA_NXZ 0000000180095420 f i libucrtd:output.obj
 0001:00094470       ?state_case_percent@?$output_processor@DV?$string_output_adapter@D@__crt_stdio_output@@V?$positional_parameter_base@DV?$string_output_adapter@D@__crt_stdio_output@@@2@@__crt_stdio_output@@AEAA_NXZ 0000000180095470 f i libucrtd:output.obj
 0001:000944c0       ?state_case_percent@?$output_processor@DV?$string_output_adapter@D@__crt_stdio_output@@V?$standard_base@DV?$string_output_adapter@D@__crt_stdio_output@@@2@@__crt_stdio_output@@AEAA_NXZ 00000001800954c0 f i libucrtd:output.obj
 0001:00094510       ?state_case_percent@?$output_processor@_WV?$stream_output_adapter@_W@__crt_stdio_output@@V?$format_validation_base@_WV?$stream_output_adapter@_W@__crt_stdio_output@@@2@@__crt_stdio_output@@AEAA_NXZ 0000000180095510 f i libucrtd:output.obj
 0001:00094560       ?state_case_percent@?$output_processor@_WV?$stream_output_adapter@_W@__crt_stdio_output@@V?$positional_parameter_base@_WV?$stream_output_adapter@_W@__crt_stdio_output@@@2@@__crt_stdio_output@@AEAA_NXZ 0000000180095560 f i libucrtd:output.obj
 0001:000945b0       ?state_case_percent@?$output_processor@_WV?$stream_output_adapter@_W@__crt_stdio_output@@V?$standard_base@_WV?$stream_output_adapter@_W@__crt_stdio_output@@@2@@__crt_stdio_output@@AEAA_NXZ 00000001800955b0 f i libucrtd:output.obj
 0001:00094600       ?state_case_percent@?$output_processor@_WV?$string_output_adapter@_W@__crt_stdio_output@@V?$format_validation_base@_WV?$string_output_adapter@_W@__crt_stdio_output@@@2@@__crt_stdio_output@@AEAA_NXZ 0000000180095600 f i libucrtd:output.obj
 0001:00094650       ?state_case_percent@?$output_processor@_WV?$string_output_adapter@_W@__crt_stdio_output@@V?$positional_parameter_base@_WV?$string_output_adapter@_W@__crt_stdio_output@@@2@@__crt_stdio_output@@AEAA_NXZ 0000000180095650 f i libucrtd:output.obj
 0001:000946a0       ?state_case_percent@?$output_processor@_WV?$string_output_adapter@_W@__crt_stdio_output@@V?$standard_base@_WV?$string_output_adapter@_W@__crt_stdio_output@@@2@@__crt_stdio_output@@AEAA_NXZ 00000001800956a0 f i libucrtd:output.obj
 0001:000946f0       ?state_case_precision@?$output_processor@DV?$stream_output_adapter@D@__crt_stdio_output@@V?$format_validation_base@DV?$stream_output_adapter@D@__crt_stdio_output@@@2@@__crt_stdio_output@@AEAA_NXZ 00000001800956f0 f i libucrtd:output.obj
 0001:00094770       ?state_case_precision@?$output_processor@DV?$stream_output_adapter@D@__crt_stdio_output@@V?$positional_parameter_base@DV?$stream_output_adapter@D@__crt_stdio_output@@@2@@__crt_stdio_output@@AEAA_NXZ 0000000180095770 f i libucrtd:output.obj
 0001:000947f0       ?state_case_precision@?$output_processor@DV?$stream_output_adapter@D@__crt_stdio_output@@V?$standard_base@DV?$stream_output_adapter@D@__crt_stdio_output@@@2@@__crt_stdio_output@@AEAA_NXZ 00000001800957f0 f i libucrtd:output.obj
 0001:00094870       ?state_case_precision@?$output_processor@DV?$string_output_adapter@D@__crt_stdio_output@@V?$format_validation_base@DV?$string_output_adapter@D@__crt_stdio_output@@@2@@__crt_stdio_output@@AEAA_NXZ 0000000180095870 f i libucrtd:output.obj
 0001:000948f0       ?state_case_precision@?$output_processor@DV?$string_output_adapter@D@__crt_stdio_output@@V?$positional_parameter_base@DV?$string_output_adapter@D@__crt_stdio_output@@@2@@__crt_stdio_output@@AEAA_NXZ 00000001800958f0 f i libucrtd:output.obj
 0001:00094970       ?state_case_precision@?$output_processor@DV?$string_output_adapter@D@__crt_stdio_output@@V?$standard_base@DV?$string_output_adapter@D@__crt_stdio_output@@@2@@__crt_stdio_output@@AEAA_NXZ 0000000180095970 f i libucrtd:output.obj
 0001:000949f0       ?state_case_precision@?$output_processor@_WV?$stream_output_adapter@_W@__crt_stdio_output@@V?$format_validation_base@_WV?$stream_output_adapter@_W@__crt_stdio_output@@@2@@__crt_stdio_output@@AEAA_NXZ 00000001800959f0 f i libucrtd:output.obj
 0001:00094a70       ?state_case_precision@?$output_processor@_WV?$stream_output_adapter@_W@__crt_stdio_output@@V?$positional_parameter_base@_WV?$stream_output_adapter@_W@__crt_stdio_output@@@2@@__crt_stdio_output@@AEAA_NXZ 0000000180095a70 f i libucrtd:output.obj
 0001:00094af0       ?state_case_precision@?$output_processor@_WV?$stream_output_adapter@_W@__crt_stdio_output@@V?$standard_base@_WV?$stream_output_adapter@_W@__crt_stdio_output@@@2@@__crt_stdio_output@@AEAA_NXZ 0000000180095af0 f i libucrtd:output.obj
 0001:00094b70       ?state_case_precision@?$output_processor@_WV?$string_output_adapter@_W@__crt_stdio_output@@V?$format_validation_base@_WV?$string_output_adapter@_W@__crt_stdio_output@@@2@@__crt_stdio_output@@AEAA_NXZ 0000000180095b70 f i libucrtd:output.obj
 0001:00094bf0       ?state_case_precision@?$output_processor@_WV?$string_output_adapter@_W@__crt_stdio_output@@V?$positional_parameter_base@_WV?$string_output_adapter@_W@__crt_stdio_output@@@2@@__crt_stdio_output@@AEAA_NXZ 0000000180095bf0 f i libucrtd:output.obj
 0001:00094c70       ?state_case_precision@?$output_processor@_WV?$string_output_adapter@_W@__crt_stdio_output@@V?$standard_base@_WV?$string_output_adapter@_W@__crt_stdio_output@@@2@@__crt_stdio_output@@AEAA_NXZ 0000000180095c70 f i libucrtd:output.obj
 0001:00094cf0       ?state_case_size@?$output_processor@DV?$stream_output_adapter@D@__crt_stdio_output@@V?$format_validation_base@DV?$stream_output_adapter@D@__crt_stdio_output@@@2@@__crt_stdio_output@@AEAA_NXZ 0000000180095cf0 f i libucrtd:output.obj
 0001:00095170       ?state_case_size@?$output_processor@DV?$stream_output_adapter@D@__crt_stdio_output@@V?$positional_parameter_base@DV?$stream_output_adapter@D@__crt_stdio_output@@@2@@__crt_stdio_output@@AEAA_NXZ 0000000180096170 f i libucrtd:output.obj
 0001:000955f0       ?state_case_size@?$output_processor@DV?$stream_output_adapter@D@__crt_stdio_output@@V?$standard_base@DV?$stream_output_adapter@D@__crt_stdio_output@@@2@@__crt_stdio_output@@AEAA_NXZ 00000001800965f0 f i libucrtd:output.obj
 0001:00095a70       ?state_case_size@?$output_processor@DV?$string_output_adapter@D@__crt_stdio_output@@V?$format_validation_base@DV?$string_output_adapter@D@__crt_stdio_output@@@2@@__crt_stdio_output@@AEAA_NXZ 0000000180096a70 f i libucrtd:output.obj
 0001:00095ef0       ?state_case_size@?$output_processor@DV?$string_output_adapter@D@__crt_stdio_output@@V?$positional_parameter_base@DV?$string_output_adapter@D@__crt_stdio_output@@@2@@__crt_stdio_output@@AEAA_NXZ 0000000180096ef0 f i libucrtd:output.obj
 0001:00096370       ?state_case_size@?$output_processor@DV?$string_output_adapter@D@__crt_stdio_output@@V?$standard_base@DV?$string_output_adapter@D@__crt_stdio_output@@@2@@__crt_stdio_output@@AEAA_NXZ 0000000180097370 f i libucrtd:output.obj
 0001:000967f0       ?state_case_size@?$output_processor@_WV?$stream_output_adapter@_W@__crt_stdio_output@@V?$format_validation_base@_WV?$stream_output_adapter@_W@__crt_stdio_output@@@2@@__crt_stdio_output@@AEAA_NXZ 00000001800977f0 f i libucrtd:output.obj
 0001:00096c70       ?state_case_size@?$output_processor@_WV?$stream_output_adapter@_W@__crt_stdio_output@@V?$positional_parameter_base@_WV?$stream_output_adapter@_W@__crt_stdio_output@@@2@@__crt_stdio_output@@AEAA_NXZ 0000000180097c70 f i libucrtd:output.obj
 0001:000970f0       ?state_case_size@?$output_processor@_WV?$stream_output_adapter@_W@__crt_stdio_output@@V?$standard_base@_WV?$stream_output_adapter@_W@__crt_stdio_output@@@2@@__crt_stdio_output@@AEAA_NXZ 00000001800980f0 f i libucrtd:output.obj
 0001:00097570       ?state_case_size@?$output_processor@_WV?$string_output_adapter@_W@__crt_stdio_output@@V?$format_validation_base@_WV?$string_output_adapter@_W@__crt_stdio_output@@@2@@__crt_stdio_output@@AEAA_NXZ 0000000180098570 f i libucrtd:output.obj
 0001:000979f0       ?state_case_size@?$output_processor@_WV?$string_output_adapter@_W@__crt_stdio_output@@V?$positional_parameter_base@_WV?$string_output_adapter@_W@__crt_stdio_output@@@2@@__crt_stdio_output@@AEAA_NXZ 00000001800989f0 f i libucrtd:output.obj
 0001:00097e70       ?state_case_size@?$output_processor@_WV?$string_output_adapter@_W@__crt_stdio_output@@V?$standard_base@_WV?$string_output_adapter@_W@__crt_stdio_output@@@2@@__crt_stdio_output@@AEAA_NXZ 0000000180098e70 f i libucrtd:output.obj
 0001:000982f0       ?state_case_type@?$output_processor@DV?$stream_output_adapter@D@__crt_stdio_output@@V?$format_validation_base@DV?$stream_output_adapter@D@__crt_stdio_output@@@2@@__crt_stdio_output@@AEAA_NXZ 00000001800992f0 f i libucrtd:output.obj
 0001:00098790       ?state_case_type@?$output_processor@DV?$stream_output_adapter@D@__crt_stdio_output@@V?$positional_parameter_base@DV?$stream_output_adapter@D@__crt_stdio_output@@@2@@__crt_stdio_output@@AEAA_NXZ 0000000180099790 f i libucrtd:output.obj
 0001:00098c30       ?state_case_type@?$output_processor@DV?$stream_output_adapter@D@__crt_stdio_output@@V?$standard_base@DV?$stream_output_adapter@D@__crt_stdio_output@@@2@@__crt_stdio_output@@AEAA_NXZ 0000000180099c30 f i libucrtd:output.obj
 0001:000990d0       ?state_case_type@?$output_processor@DV?$string_output_adapter@D@__crt_stdio_output@@V?$format_validation_base@DV?$string_output_adapter@D@__crt_stdio_output@@@2@@__crt_stdio_output@@AEAA_NXZ 000000018009a0d0 f i libucrtd:output.obj
 0001:00099570       ?state_case_type@?$output_processor@DV?$string_output_adapter@D@__crt_stdio_output@@V?$positional_parameter_base@DV?$string_output_adapter@D@__crt_stdio_output@@@2@@__crt_stdio_output@@AEAA_NXZ 000000018009a570 f i libucrtd:output.obj
 0001:00099a10       ?state_case_type@?$output_processor@DV?$string_output_adapter@D@__crt_stdio_output@@V?$standard_base@DV?$string_output_adapter@D@__crt_stdio_output@@@2@@__crt_stdio_output@@AEAA_NXZ 000000018009aa10 f i libucrtd:output.obj
 0001:00099eb0       ?state_case_type@?$output_processor@_WV?$stream_output_adapter@_W@__crt_stdio_output@@V?$format_validation_base@_WV?$stream_output_adapter@_W@__crt_stdio_output@@@2@@__crt_stdio_output@@AEAA_NXZ 000000018009aeb0 f i libucrtd:output.obj
 0001:0009a410       ?state_case_type@?$output_processor@_WV?$stream_output_adapter@_W@__crt_stdio_output@@V?$positional_parameter_base@_WV?$stream_output_adapter@_W@__crt_stdio_output@@@2@@__crt_stdio_output@@AEAA_NXZ 000000018009b410 f i libucrtd:output.obj
 0001:0009a970       ?state_case_type@?$output_processor@_WV?$stream_output_adapter@_W@__crt_stdio_output@@V?$standard_base@_WV?$stream_output_adapter@_W@__crt_stdio_output@@@2@@__crt_stdio_output@@AEAA_NXZ 000000018009b970 f i libucrtd:output.obj
 0001:0009aed0       ?state_case_type@?$output_processor@_WV?$string_output_adapter@_W@__crt_stdio_output@@V?$format_validation_base@_WV?$string_output_adapter@_W@__crt_stdio_output@@@2@@__crt_stdio_output@@AEAA_NXZ 000000018009bed0 f i libucrtd:output.obj
 0001:0009b430       ?state_case_type@?$output_processor@_WV?$string_output_adapter@_W@__crt_stdio_output@@V?$positional_parameter_base@_WV?$string_output_adapter@_W@__crt_stdio_output@@@2@@__crt_stdio_output@@AEAA_NXZ 000000018009c430 f i libucrtd:output.obj
 0001:0009b990       ?state_case_type@?$output_processor@_WV?$string_output_adapter@_W@__crt_stdio_output@@V?$standard_base@_WV?$string_output_adapter@_W@__crt_stdio_output@@@2@@__crt_stdio_output@@AEAA_NXZ 000000018009c990 f i libucrtd:output.obj
 0001:0009bef0       ?state_case_width@?$output_processor@DV?$stream_output_adapter@D@__crt_stdio_output@@V?$format_validation_base@DV?$stream_output_adapter@D@__crt_stdio_output@@@2@@__crt_stdio_output@@AEAA_NXZ 000000018009cef0 f i libucrtd:output.obj
 0001:0009bf80       ?state_case_width@?$output_processor@DV?$stream_output_adapter@D@__crt_stdio_output@@V?$positional_parameter_base@DV?$stream_output_adapter@D@__crt_stdio_output@@@2@@__crt_stdio_output@@AEAA_NXZ 000000018009cf80 f i libucrtd:output.obj
 0001:0009c010       ?state_case_width@?$output_processor@DV?$stream_output_adapter@D@__crt_stdio_output@@V?$standard_base@DV?$stream_output_adapter@D@__crt_stdio_output@@@2@@__crt_stdio_output@@AEAA_NXZ 000000018009d010 f i libucrtd:output.obj
 0001:0009c0a0       ?state_case_width@?$output_processor@DV?$string_output_adapter@D@__crt_stdio_output@@V?$format_validation_base@DV?$string_output_adapter@D@__crt_stdio_output@@@2@@__crt_stdio_output@@AEAA_NXZ 000000018009d0a0 f i libucrtd:output.obj
 0001:0009c130       ?state_case_width@?$output_processor@DV?$string_output_adapter@D@__crt_stdio_output@@V?$positional_parameter_base@DV?$string_output_adapter@D@__crt_stdio_output@@@2@@__crt_stdio_output@@AEAA_NXZ 000000018009d130 f i libucrtd:output.obj
 0001:0009c1c0       ?state_case_width@?$output_processor@DV?$string_output_adapter@D@__crt_stdio_output@@V?$standard_base@DV?$string_output_adapter@D@__crt_stdio_output@@@2@@__crt_stdio_output@@AEAA_NXZ 000000018009d1c0 f i libucrtd:output.obj
 0001:0009c250       ?state_case_width@?$output_processor@_WV?$stream_output_adapter@_W@__crt_stdio_output@@V?$format_validation_base@_WV?$stream_output_adapter@_W@__crt_stdio_output@@@2@@__crt_stdio_output@@AEAA_NXZ 000000018009d250 f i libucrtd:output.obj
 0001:0009c2e0       ?state_case_width@?$output_processor@_WV?$stream_output_adapter@_W@__crt_stdio_output@@V?$positional_parameter_base@_WV?$stream_output_adapter@_W@__crt_stdio_output@@@2@@__crt_stdio_output@@AEAA_NXZ 000000018009d2e0 f i libucrtd:output.obj
 0001:0009c370       ?state_case_width@?$output_processor@_WV?$stream_output_adapter@_W@__crt_stdio_output@@V?$standard_base@_WV?$stream_output_adapter@_W@__crt_stdio_output@@@2@@__crt_stdio_output@@AEAA_NXZ 000000018009d370 f i libucrtd:output.obj
 0001:0009c400       ?state_case_width@?$output_processor@_WV?$string_output_adapter@_W@__crt_stdio_output@@V?$format_validation_base@_WV?$string_output_adapter@_W@__crt_stdio_output@@@2@@__crt_stdio_output@@AEAA_NXZ 000000018009d400 f i libucrtd:output.obj
 0001:0009c490       ?state_case_width@?$output_processor@_WV?$string_output_adapter@_W@__crt_stdio_output@@V?$positional_parameter_base@_WV?$string_output_adapter@_W@__crt_stdio_output@@@2@@__crt_stdio_output@@AEAA_NXZ 000000018009d490 f i libucrtd:output.obj
 0001:0009c520       ?state_case_width@?$output_processor@_WV?$string_output_adapter@_W@__crt_stdio_output@@V?$standard_base@_WV?$string_output_adapter@_W@__crt_stdio_output@@@2@@__crt_stdio_output@@AEAA_NXZ 000000018009d520 f i libucrtd:output.obj
 0001:0009c5b0       ?state_count@?$format_validation_base@DV?$stream_output_adapter@D@__crt_stdio_output@@@__crt_stdio_output@@KAIXZ 000000018009d5b0 f i libucrtd:output.obj
 0001:0009c5c0       ?state_count@?$format_validation_base@DV?$string_output_adapter@D@__crt_stdio_output@@@__crt_stdio_output@@KAIXZ 000000018009d5c0 f i libucrtd:output.obj
 0001:0009c5d0       ?state_count@?$format_validation_base@_WV?$stream_output_adapter@_W@__crt_stdio_output@@@__crt_stdio_output@@KAIXZ 000000018009d5d0 f i libucrtd:output.obj
 0001:0009c5e0       ?state_count@?$format_validation_base@_WV?$string_output_adapter@_W@__crt_stdio_output@@@__crt_stdio_output@@KAIXZ 000000018009d5e0 f i libucrtd:output.obj
 0001:0009c5f0       ?state_count@?$standard_base@DV?$stream_output_adapter@D@__crt_stdio_output@@@__crt_stdio_output@@KAIXZ 000000018009d5f0 f i libucrtd:output.obj
 0001:0009c600       ?state_count@?$standard_base@DV?$string_output_adapter@D@__crt_stdio_output@@@__crt_stdio_output@@KAIXZ 000000018009d600 f i libucrtd:output.obj
 0001:0009c610       ?state_count@?$standard_base@_WV?$stream_output_adapter@_W@__crt_stdio_output@@@__crt_stdio_output@@KAIXZ 000000018009d610 f i libucrtd:output.obj
 0001:0009c620       ?state_count@?$standard_base@_WV?$string_output_adapter@_W@__crt_stdio_output@@@__crt_stdio_output@@KAIXZ 000000018009d620 f i libucrtd:output.obj
 0001:0009c630       ?state_transition_table@?$format_validation_base@DV?$stream_output_adapter@D@__crt_stdio_output@@@__crt_stdio_output@@KAAEBV?$spectre_mitigated_lookup_table@Ustate_transition_pair@__crt_stdio_output@@$0IA@@2@XZ 000000018009d630 f i libucrtd:output.obj
 0001:0009c640       ?state_transition_table@?$format_validation_base@DV?$string_output_adapter@D@__crt_stdio_output@@@__crt_stdio_output@@KAAEBV?$spectre_mitigated_lookup_table@Ustate_transition_pair@__crt_stdio_output@@$0IA@@2@XZ 000000018009d640 f i libucrtd:output.obj
 0001:0009c650       ?state_transition_table@?$format_validation_base@_WV?$stream_output_adapter@_W@__crt_stdio_output@@@__crt_stdio_output@@KAAEBV?$spectre_mitigated_lookup_table@Ustate_transition_pair@__crt_stdio_output@@$0IA@@2@XZ 000000018009d650 f i libucrtd:output.obj
 0001:0009c660       ?state_transition_table@?$format_validation_base@_WV?$string_output_adapter@_W@__crt_stdio_output@@@__crt_stdio_output@@KAAEBV?$spectre_mitigated_lookup_table@Ustate_transition_pair@__crt_stdio_output@@$0IA@@2@XZ 000000018009d660 f i libucrtd:output.obj
 0001:0009c670       ?state_transition_table@?$standard_base@DV?$stream_output_adapter@D@__crt_stdio_output@@@__crt_stdio_output@@KAAEBV?$spectre_mitigated_lookup_table@Ustate_transition_pair@__crt_stdio_output@@$0IA@@2@XZ 000000018009d670 f i libucrtd:output.obj
 0001:0009c680       ?state_transition_table@?$standard_base@DV?$string_output_adapter@D@__crt_stdio_output@@@__crt_stdio_output@@KAAEBV?$spectre_mitigated_lookup_table@Ustate_transition_pair@__crt_stdio_output@@$0IA@@2@XZ 000000018009d680 f i libucrtd:output.obj
 0001:0009c690       ?state_transition_table@?$standard_base@_WV?$stream_output_adapter@_W@__crt_stdio_output@@@__crt_stdio_output@@KAAEBV?$spectre_mitigated_lookup_table@Ustate_transition_pair@__crt_stdio_output@@$0IA@@2@XZ 000000018009d690 f i libucrtd:output.obj
 0001:0009c6a0       ?state_transition_table@?$standard_base@_WV?$string_output_adapter@_W@__crt_stdio_output@@@__crt_stdio_output@@KAAEBV?$spectre_mitigated_lookup_table@Ustate_transition_pair@__crt_stdio_output@@$0IA@@2@XZ 000000018009d6a0 f i libucrtd:output.obj
 0001:0009c6b0       ?tchar_string@?$common_data@D@__crt_stdio_output@@IEAAAEAPEADD@Z 000000018009d6b0 f i libucrtd:output.obj
 0001:0009c6d0       ?tchar_string@?$common_data@D@__crt_stdio_output@@IEAAAEAPEADXZ 000000018009d6d0 f i libucrtd:output.obj
 0001:0009c6f0       ?tchar_string@?$common_data@_W@__crt_stdio_output@@IEAAAEAPEA_WXZ 000000018009d6f0 f i libucrtd:output.obj
 0001:0009c710       ?tchar_string@?$common_data@_W@__crt_stdio_output@@IEAAAEAPEA_W_W@Z 000000018009d710 f i libucrtd:output.obj
 0001:0009c730       ?to_integer_size@__crt_stdio_output@@YA_KW4length_modifier@1@@Z 000000018009d730 f i libucrtd:output.obj
 0001:0009c7e0       ?type_case_X@?$output_processor@DV?$stream_output_adapter@D@__crt_stdio_output@@V?$format_validation_base@DV?$stream_output_adapter@D@__crt_stdio_output@@@2@@__crt_stdio_output@@AEAA_NXZ 000000018009d7e0 f i libucrtd:output.obj
 0001:0009c800       ?type_case_X@?$output_processor@DV?$stream_output_adapter@D@__crt_stdio_output@@V?$positional_parameter_base@DV?$stream_output_adapter@D@__crt_stdio_output@@@2@@__crt_stdio_output@@AEAA_NXZ 000000018009d800 f i libucrtd:output.obj
 0001:0009c820       ?type_case_X@?$output_processor@DV?$stream_output_adapter@D@__crt_stdio_output@@V?$standard_base@DV?$stream_output_adapter@D@__crt_stdio_output@@@2@@__crt_stdio_output@@AEAA_NXZ 000000018009d820 f i libucrtd:output.obj
 0001:0009c840       ?type_case_X@?$output_processor@DV?$string_output_adapter@D@__crt_stdio_output@@V?$format_validation_base@DV?$string_output_adapter@D@__crt_stdio_output@@@2@@__crt_stdio_output@@AEAA_NXZ 000000018009d840 f i libucrtd:output.obj
 0001:0009c860       ?type_case_X@?$output_processor@DV?$string_output_adapter@D@__crt_stdio_output@@V?$positional_parameter_base@DV?$string_output_adapter@D@__crt_stdio_output@@@2@@__crt_stdio_output@@AEAA_NXZ 000000018009d860 f i libucrtd:output.obj
 0001:0009c880       ?type_case_X@?$output_processor@DV?$string_output_adapter@D@__crt_stdio_output@@V?$standard_base@DV?$string_output_adapter@D@__crt_stdio_output@@@2@@__crt_stdio_output@@AEAA_NXZ 000000018009d880 f i libucrtd:output.obj
 0001:0009c8a0       ?type_case_X@?$output_processor@_WV?$stream_output_adapter@_W@__crt_stdio_output@@V?$format_validation_base@_WV?$stream_output_adapter@_W@__crt_stdio_output@@@2@@__crt_stdio_output@@AEAA_NXZ 000000018009d8a0 f i libucrtd:output.obj
 0001:0009c8c0       ?type_case_X@?$output_processor@_WV?$stream_output_adapter@_W@__crt_stdio_output@@V?$positional_parameter_base@_WV?$stream_output_adapter@_W@__crt_stdio_output@@@2@@__crt_stdio_output@@AEAA_NXZ 000000018009d8c0 f i libucrtd:output.obj
 0001:0009c8e0       ?type_case_X@?$output_processor@_WV?$stream_output_adapter@_W@__crt_stdio_output@@V?$standard_base@_WV?$stream_output_adapter@_W@__crt_stdio_output@@@2@@__crt_stdio_output@@AEAA_NXZ 000000018009d8e0 f i libucrtd:output.obj
 0001:0009c900       ?type_case_X@?$output_processor@_WV?$string_output_adapter@_W@__crt_stdio_output@@V?$format_validation_base@_WV?$string_output_adapter@_W@__crt_stdio_output@@@2@@__crt_stdio_output@@AEAA_NXZ 000000018009d900 f i libucrtd:output.obj
 0001:0009c920       ?type_case_X@?$output_processor@_WV?$string_output_adapter@_W@__crt_stdio_output@@V?$positional_parameter_base@_WV?$string_output_adapter@_W@__crt_stdio_output@@@2@@__crt_stdio_output@@AEAA_NXZ 000000018009d920 f i libucrtd:output.obj
 0001:0009c940       ?type_case_X@?$output_processor@_WV?$string_output_adapter@_W@__crt_stdio_output@@V?$standard_base@_WV?$string_output_adapter@_W@__crt_stdio_output@@@2@@__crt_stdio_output@@AEAA_NXZ 000000018009d940 f i libucrtd:output.obj
 0001:0009c960       ?type_case_Z@?$output_processor@DV?$stream_output_adapter@D@__crt_stdio_output@@V?$format_validation_base@DV?$stream_output_adapter@D@__crt_stdio_output@@@2@@__crt_stdio_output@@AEAA_NXZ 000000018009d960 f i libucrtd:output.obj
 0001:0009ca80       ?type_case_Z@?$output_processor@DV?$stream_output_adapter@D@__crt_stdio_output@@V?$positional_parameter_base@DV?$stream_output_adapter@D@__crt_stdio_output@@@2@@__crt_stdio_output@@AEAA_NXZ 000000018009da80 f i libucrtd:output.obj
 0001:0009cba0       ?type_case_Z@?$output_processor@DV?$stream_output_adapter@D@__crt_stdio_output@@V?$standard_base@DV?$stream_output_adapter@D@__crt_stdio_output@@@2@@__crt_stdio_output@@AEAA_NXZ 000000018009dba0 f i libucrtd:output.obj
 0001:0009ccc0       ?type_case_Z@?$output_processor@DV?$string_output_adapter@D@__crt_stdio_output@@V?$format_validation_base@DV?$string_output_adapter@D@__crt_stdio_output@@@2@@__crt_stdio_output@@AEAA_NXZ 000000018009dcc0 f i libucrtd:output.obj
 0001:0009cde0       ?type_case_Z@?$output_processor@DV?$string_output_adapter@D@__crt_stdio_output@@V?$positional_parameter_base@DV?$string_output_adapter@D@__crt_stdio_output@@@2@@__crt_stdio_output@@AEAA_NXZ 000000018009dde0 f i libucrtd:output.obj
 0001:0009cf00       ?type_case_Z@?$output_processor@DV?$string_output_adapter@D@__crt_stdio_output@@V?$standard_base@DV?$string_output_adapter@D@__crt_stdio_output@@@2@@__crt_stdio_output@@AEAA_NXZ 000000018009df00 f i libucrtd:output.obj
 0001:0009d020       ?type_case_Z@?$output_processor@_WV?$stream_output_adapter@_W@__crt_stdio_output@@V?$format_validation_base@_WV?$stream_output_adapter@_W@__crt_stdio_output@@@2@@__crt_stdio_output@@AEAA_NXZ 000000018009e020 f i libucrtd:output.obj
 0001:0009d140       ?type_case_Z@?$output_processor@_WV?$stream_output_adapter@_W@__crt_stdio_output@@V?$positional_parameter_base@_WV?$stream_output_adapter@_W@__crt_stdio_output@@@2@@__crt_stdio_output@@AEAA_NXZ 000000018009e140 f i libucrtd:output.obj
 0001:0009d260       ?type_case_Z@?$output_processor@_WV?$stream_output_adapter@_W@__crt_stdio_output@@V?$standard_base@_WV?$stream_output_adapter@_W@__crt_stdio_output@@@2@@__crt_stdio_output@@AEAA_NXZ 000000018009e260 f i libucrtd:output.obj
 0001:0009d380       ?type_case_Z@?$output_processor@_WV?$string_output_adapter@_W@__crt_stdio_output@@V?$format_validation_base@_WV?$string_output_adapter@_W@__crt_stdio_output@@@2@@__crt_stdio_output@@AEAA_NXZ 000000018009e380 f i libucrtd:output.obj
 0001:0009d4a0       ?type_case_Z@?$output_processor@_WV?$string_output_adapter@_W@__crt_stdio_output@@V?$positional_parameter_base@_WV?$string_output_adapter@_W@__crt_stdio_output@@@2@@__crt_stdio_output@@AEAA_NXZ 000000018009e4a0 f i libucrtd:output.obj
 0001:0009d5c0       ?type_case_Z@?$output_processor@_WV?$string_output_adapter@_W@__crt_stdio_output@@V?$standard_base@_WV?$string_output_adapter@_W@__crt_stdio_output@@@2@@__crt_stdio_output@@AEAA_NXZ 000000018009e5c0 f i libucrtd:output.obj
 0001:0009d6e0       ?type_case_a@?$output_processor@DV?$stream_output_adapter@D@__crt_stdio_output@@V?$format_validation_base@DV?$stream_output_adapter@D@__crt_stdio_output@@@2@@__crt_stdio_output@@AEAA_NXZ 000000018009e6e0 f i libucrtd:output.obj
 0001:0009dab0       ?type_case_a@?$output_processor@DV?$stream_output_adapter@D@__crt_stdio_output@@V?$positional_parameter_base@DV?$stream_output_adapter@D@__crt_stdio_output@@@2@@__crt_stdio_output@@AEAA_NXZ 000000018009eab0 f i libucrtd:output.obj
 0001:0009de80       ?type_case_a@?$output_processor@DV?$stream_output_adapter@D@__crt_stdio_output@@V?$standard_base@DV?$stream_output_adapter@D@__crt_stdio_output@@@2@@__crt_stdio_output@@AEAA_NXZ 000000018009ee80 f i libucrtd:output.obj
 0001:0009e250       ?type_case_a@?$output_processor@DV?$string_output_adapter@D@__crt_stdio_output@@V?$format_validation_base@DV?$string_output_adapter@D@__crt_stdio_output@@@2@@__crt_stdio_output@@AEAA_NXZ 000000018009f250 f i libucrtd:output.obj
 0001:0009e620       ?type_case_a@?$output_processor@DV?$string_output_adapter@D@__crt_stdio_output@@V?$positional_parameter_base@DV?$string_output_adapter@D@__crt_stdio_output@@@2@@__crt_stdio_output@@AEAA_NXZ 000000018009f620 f i libucrtd:output.obj
 0001:0009e9f0       ?type_case_a@?$output_processor@DV?$string_output_adapter@D@__crt_stdio_output@@V?$standard_base@DV?$string_output_adapter@D@__crt_stdio_output@@@2@@__crt_stdio_output@@AEAA_NXZ 000000018009f9f0 f i libucrtd:output.obj
 0001:0009edc0       ?type_case_a@?$output_processor@_WV?$stream_output_adapter@_W@__crt_stdio_output@@V?$format_validation_base@_WV?$stream_output_adapter@_W@__crt_stdio_output@@@2@@__crt_stdio_output@@AEAA_NXZ 000000018009fdc0 f i libucrtd:output.obj
 0001:0009f190       ?type_case_a@?$output_processor@_WV?$stream_output_adapter@_W@__crt_stdio_output@@V?$positional_parameter_base@_WV?$stream_output_adapter@_W@__crt_stdio_output@@@2@@__crt_stdio_output@@AEAA_NXZ 00000001800a0190 f i libucrtd:output.obj
 0001:0009f560       ?type_case_a@?$output_processor@_WV?$stream_output_adapter@_W@__crt_stdio_output@@V?$standard_base@_WV?$stream_output_adapter@_W@__crt_stdio_output@@@2@@__crt_stdio_output@@AEAA_NXZ 00000001800a0560 f i libucrtd:output.obj
 0001:0009f930       ?type_case_a@?$output_processor@_WV?$string_output_adapter@_W@__crt_stdio_output@@V?$format_validation_base@_WV?$string_output_adapter@_W@__crt_stdio_output@@@2@@__crt_stdio_output@@AEAA_NXZ 00000001800a0930 f i libucrtd:output.obj
 0001:0009fd00       ?type_case_a@?$output_processor@_WV?$string_output_adapter@_W@__crt_stdio_output@@V?$positional_parameter_base@_WV?$string_output_adapter@_W@__crt_stdio_output@@@2@@__crt_stdio_output@@AEAA_NXZ 00000001800a0d00 f i libucrtd:output.obj
 0001:000a00d0       ?type_case_a@?$output_processor@_WV?$string_output_adapter@_W@__crt_stdio_output@@V?$standard_base@_WV?$string_output_adapter@_W@__crt_stdio_output@@@2@@__crt_stdio_output@@AEAA_NXZ 00000001800a10d0 f i libucrtd:output.obj
 0001:000a04a0       ?type_case_c@?$output_processor@DV?$stream_output_adapter@D@__crt_stdio_output@@V?$format_validation_base@DV?$stream_output_adapter@D@__crt_stdio_output@@@2@@__crt_stdio_output@@AEAA_NXZ 00000001800a14a0 f i libucrtd:output.obj
 0001:000a04c0       ?type_case_c@?$output_processor@DV?$stream_output_adapter@D@__crt_stdio_output@@V?$positional_parameter_base@DV?$stream_output_adapter@D@__crt_stdio_output@@@2@@__crt_stdio_output@@AEAA_NXZ 00000001800a14c0 f i libucrtd:output.obj
 0001:000a04e0       ?type_case_c@?$output_processor@DV?$stream_output_adapter@D@__crt_stdio_output@@V?$standard_base@DV?$stream_output_adapter@D@__crt_stdio_output@@@2@@__crt_stdio_output@@AEAA_NXZ 00000001800a14e0 f i libucrtd:output.obj
 0001:000a0500       ?type_case_c@?$output_processor@DV?$string_output_adapter@D@__crt_stdio_output@@V?$format_validation_base@DV?$string_output_adapter@D@__crt_stdio_output@@@2@@__crt_stdio_output@@AEAA_NXZ 00000001800a1500 f i libucrtd:output.obj
 0001:000a0520       ?type_case_c@?$output_processor@DV?$string_output_adapter@D@__crt_stdio_output@@V?$positional_parameter_base@DV?$string_output_adapter@D@__crt_stdio_output@@@2@@__crt_stdio_output@@AEAA_NXZ 00000001800a1520 f i libucrtd:output.obj
 0001:000a0540       ?type_case_c@?$output_processor@DV?$string_output_adapter@D@__crt_stdio_output@@V?$standard_base@DV?$string_output_adapter@D@__crt_stdio_output@@@2@@__crt_stdio_output@@AEAA_NXZ 00000001800a1540 f i libucrtd:output.obj
 0001:000a0560       ?type_case_c@?$output_processor@_WV?$stream_output_adapter@_W@__crt_stdio_output@@V?$format_validation_base@_WV?$stream_output_adapter@_W@__crt_stdio_output@@@2@@__crt_stdio_output@@AEAA_NXZ 00000001800a1560 f i libucrtd:output.obj
 0001:000a0580       ?type_case_c@?$output_processor@_WV?$stream_output_adapter@_W@__crt_stdio_output@@V?$positional_parameter_base@_WV?$stream_output_adapter@_W@__crt_stdio_output@@@2@@__crt_stdio_output@@AEAA_NXZ 00000001800a1580 f i libucrtd:output.obj
 0001:000a05a0       ?type_case_c@?$output_processor@_WV?$stream_output_adapter@_W@__crt_stdio_output@@V?$standard_base@_WV?$stream_output_adapter@_W@__crt_stdio_output@@@2@@__crt_stdio_output@@AEAA_NXZ 00000001800a15a0 f i libucrtd:output.obj
 0001:000a05c0       ?type_case_c@?$output_processor@_WV?$string_output_adapter@_W@__crt_stdio_output@@V?$format_validation_base@_WV?$string_output_adapter@_W@__crt_stdio_output@@@2@@__crt_stdio_output@@AEAA_NXZ 00000001800a15c0 f i libucrtd:output.obj
 0001:000a05e0       ?type_case_c@?$output_processor@_WV?$string_output_adapter@_W@__crt_stdio_output@@V?$positional_parameter_base@_WV?$string_output_adapter@_W@__crt_stdio_output@@@2@@__crt_stdio_output@@AEAA_NXZ 00000001800a15e0 f i libucrtd:output.obj
 0001:000a0600       ?type_case_c@?$output_processor@_WV?$string_output_adapter@_W@__crt_stdio_output@@V?$standard_base@_WV?$string_output_adapter@_W@__crt_stdio_output@@@2@@__crt_stdio_output@@AEAA_NXZ 00000001800a1600 f i libucrtd:output.obj
 0001:000a0620       ?type_case_c_tchar@?$output_processor@DV?$stream_output_adapter@D@__crt_stdio_output@@V?$format_validation_base@DV?$stream_output_adapter@D@__crt_stdio_output@@@2@@__crt_stdio_output@@AEAA_ND@Z 00000001800a1620 f i libucrtd:output.obj
 0001:000a0780       ?type_case_c_tchar@?$output_processor@DV?$stream_output_adapter@D@__crt_stdio_output@@V?$positional_parameter_base@DV?$stream_output_adapter@D@__crt_stdio_output@@@2@@__crt_stdio_output@@AEAA_ND@Z 00000001800a1780 f i libucrtd:output.obj
 0001:000a08e0       ?type_case_c_tchar@?$output_processor@DV?$stream_output_adapter@D@__crt_stdio_output@@V?$standard_base@DV?$stream_output_adapter@D@__crt_stdio_output@@@2@@__crt_stdio_output@@AEAA_ND@Z 00000001800a18e0 f i libucrtd:output.obj
 0001:000a0a40       ?type_case_c_tchar@?$output_processor@DV?$string_output_adapter@D@__crt_stdio_output@@V?$format_validation_base@DV?$string_output_adapter@D@__crt_stdio_output@@@2@@__crt_stdio_output@@AEAA_ND@Z 00000001800a1a40 f i libucrtd:output.obj
 0001:000a0ba0       ?type_case_c_tchar@?$output_processor@DV?$string_output_adapter@D@__crt_stdio_output@@V?$positional_parameter_base@DV?$string_output_adapter@D@__crt_stdio_output@@@2@@__crt_stdio_output@@AEAA_ND@Z 00000001800a1ba0 f i libucrtd:output.obj
 0001:000a0d00       ?type_case_c_tchar@?$output_processor@DV?$string_output_adapter@D@__crt_stdio_output@@V?$standard_base@DV?$string_output_adapter@D@__crt_stdio_output@@@2@@__crt_stdio_output@@AEAA_ND@Z 00000001800a1d00 f i libucrtd:output.obj
 0001:000a0e60       ?type_case_c_tchar@?$output_processor@_WV?$stream_output_adapter@_W@__crt_stdio_output@@V?$format_validation_base@_WV?$stream_output_adapter@_W@__crt_stdio_output@@@2@@__crt_stdio_output@@AEAA_N_W@Z 00000001800a1e60 f i libucrtd:output.obj
 0001:000a0f90       ?type_case_c_tchar@?$output_processor@_WV?$stream_output_adapter@_W@__crt_stdio_output@@V?$positional_parameter_base@_WV?$stream_output_adapter@_W@__crt_stdio_output@@@2@@__crt_stdio_output@@AEAA_N_W@Z 00000001800a1f90 f i libucrtd:output.obj
 0001:000a10c0       ?type_case_c_tchar@?$output_processor@_WV?$stream_output_adapter@_W@__crt_stdio_output@@V?$standard_base@_WV?$stream_output_adapter@_W@__crt_stdio_output@@@2@@__crt_stdio_output@@AEAA_N_W@Z 00000001800a20c0 f i libucrtd:output.obj
 0001:000a11f0       ?type_case_c_tchar@?$output_processor@_WV?$string_output_adapter@_W@__crt_stdio_output@@V?$format_validation_base@_WV?$string_output_adapter@_W@__crt_stdio_output@@@2@@__crt_stdio_output@@AEAA_N_W@Z 00000001800a21f0 f i libucrtd:output.obj
 0001:000a1320       ?type_case_c_tchar@?$output_processor@_WV?$string_output_adapter@_W@__crt_stdio_output@@V?$positional_parameter_base@_WV?$string_output_adapter@_W@__crt_stdio_output@@@2@@__crt_stdio_output@@AEAA_N_W@Z 00000001800a2320 f i libucrtd:output.obj
 0001:000a1450       ?type_case_c_tchar@?$output_processor@_WV?$string_output_adapter@_W@__crt_stdio_output@@V?$standard_base@_WV?$string_output_adapter@_W@__crt_stdio_output@@@2@@__crt_stdio_output@@AEAA_N_W@Z 00000001800a2450 f i libucrtd:output.obj
 0001:000a1580       ?type_case_d@?$output_processor@DV?$stream_output_adapter@D@__crt_stdio_output@@V?$format_validation_base@DV?$stream_output_adapter@D@__crt_stdio_output@@@2@@__crt_stdio_output@@AEAA_NXZ 00000001800a2580 f i libucrtd:output.obj
 0001:000a15b0       ?type_case_d@?$output_processor@DV?$stream_output_adapter@D@__crt_stdio_output@@V?$positional_parameter_base@DV?$stream_output_adapter@D@__crt_stdio_output@@@2@@__crt_stdio_output@@AEAA_NXZ 00000001800a25b0 f i libucrtd:output.obj
 0001:000a15e0       ?type_case_d@?$output_processor@DV?$stream_output_adapter@D@__crt_stdio_output@@V?$standard_base@DV?$stream_output_adapter@D@__crt_stdio_output@@@2@@__crt_stdio_output@@AEAA_NXZ 00000001800a25e0 f i libucrtd:output.obj
 0001:000a1610       ?type_case_d@?$output_processor@DV?$string_output_adapter@D@__crt_stdio_output@@V?$format_validation_base@DV?$string_output_adapter@D@__crt_stdio_output@@@2@@__crt_stdio_output@@AEAA_NXZ 00000001800a2610 f i libucrtd:output.obj
 0001:000a1640       ?type_case_d@?$output_processor@DV?$string_output_adapter@D@__crt_stdio_output@@V?$positional_parameter_base@DV?$string_output_adapter@D@__crt_stdio_output@@@2@@__crt_stdio_output@@AEAA_NXZ 00000001800a2640 f i libucrtd:output.obj
 0001:000a1670       ?type_case_d@?$output_processor@DV?$string_output_adapter@D@__crt_stdio_output@@V?$standard_base@DV?$string_output_adapter@D@__crt_stdio_output@@@2@@__crt_stdio_output@@AEAA_NXZ 00000001800a2670 f i libucrtd:output.obj
 0001:000a16a0       ?type_case_d@?$output_processor@_WV?$stream_output_adapter@_W@__crt_stdio_output@@V?$format_validation_base@_WV?$stream_output_adapter@_W@__crt_stdio_output@@@2@@__crt_stdio_output@@AEAA_NXZ 00000001800a26a0 f i libucrtd:output.obj
 0001:000a16d0       ?type_case_d@?$output_processor@_WV?$stream_output_adapter@_W@__crt_stdio_output@@V?$positional_parameter_base@_WV?$stream_output_adapter@_W@__crt_stdio_output@@@2@@__crt_stdio_output@@AEAA_NXZ 00000001800a26d0 f i libucrtd:output.obj
 0001:000a1700       ?type_case_d@?$output_processor@_WV?$stream_output_adapter@_W@__crt_stdio_output@@V?$standard_base@_WV?$stream_output_adapter@_W@__crt_stdio_output@@@2@@__crt_stdio_output@@AEAA_NXZ 00000001800a2700 f i libucrtd:output.obj
 0001:000a1730       ?type_case_d@?$output_processor@_WV?$string_output_adapter@_W@__crt_stdio_output@@V?$format_validation_base@_WV?$string_output_adapter@_W@__crt_stdio_output@@@2@@__crt_stdio_output@@AEAA_NXZ 00000001800a2730 f i libucrtd:output.obj
 0001:000a1760       ?type_case_d@?$output_processor@_WV?$string_output_adapter@_W@__crt_stdio_output@@V?$positional_parameter_base@_WV?$string_output_adapter@_W@__crt_stdio_output@@@2@@__crt_stdio_output@@AEAA_NXZ 00000001800a2760 f i libucrtd:output.obj
 0001:000a1790       ?type_case_d@?$output_processor@_WV?$string_output_adapter@_W@__crt_stdio_output@@V?$standard_base@_WV?$string_output_adapter@_W@__crt_stdio_output@@@2@@__crt_stdio_output@@AEAA_NXZ 00000001800a2790 f i libucrtd:output.obj
 0001:000a17c0       ?type_case_integer@?$output_processor@DV?$stream_output_adapter@D@__crt_stdio_output@@V?$format_validation_base@DV?$stream_output_adapter@D@__crt_stdio_output@@@2@@__crt_stdio_output@@AEAA_NI_N@Z 00000001800a27c0 f i libucrtd:output.obj
 0001:000a1c10       ?type_case_integer@?$output_processor@DV?$stream_output_adapter@D@__crt_stdio_output@@V?$positional_parameter_base@DV?$stream_output_adapter@D@__crt_stdio_output@@@2@@__crt_stdio_output@@AEAA_NI_N@Z 00000001800a2c10 f i libucrtd:output.obj
 0001:000a2060       ?type_case_integer@?$output_processor@DV?$stream_output_adapter@D@__crt_stdio_output@@V?$standard_base@DV?$stream_output_adapter@D@__crt_stdio_output@@@2@@__crt_stdio_output@@AEAA_NI_N@Z 00000001800a3060 f i libucrtd:output.obj
 0001:000a24b0       ?type_case_integer@?$output_processor@DV?$string_output_adapter@D@__crt_stdio_output@@V?$format_validation_base@DV?$string_output_adapter@D@__crt_stdio_output@@@2@@__crt_stdio_output@@AEAA_NI_N@Z 00000001800a34b0 f i libucrtd:output.obj
 0001:000a2900       ?type_case_integer@?$output_processor@DV?$string_output_adapter@D@__crt_stdio_output@@V?$positional_parameter_base@DV?$string_output_adapter@D@__crt_stdio_output@@@2@@__crt_stdio_output@@AEAA_NI_N@Z 00000001800a3900 f i libucrtd:output.obj
 0001:000a2d50       ?type_case_integer@?$output_processor@DV?$string_output_adapter@D@__crt_stdio_output@@V?$standard_base@DV?$string_output_adapter@D@__crt_stdio_output@@@2@@__crt_stdio_output@@AEAA_NI_N@Z 00000001800a3d50 f i libucrtd:output.obj
 0001:000a31a0       ?type_case_integer@?$output_processor@_WV?$stream_output_adapter@_W@__crt_stdio_output@@V?$format_validation_base@_WV?$stream_output_adapter@_W@__crt_stdio_output@@@2@@__crt_stdio_output@@AEAA_NI_N@Z 00000001800a41a0 f i libucrtd:output.obj
 0001:000a35f0       ?type_case_integer@?$output_processor@_WV?$stream_output_adapter@_W@__crt_stdio_output@@V?$positional_parameter_base@_WV?$stream_output_adapter@_W@__crt_stdio_output@@@2@@__crt_stdio_output@@AEAA_NI_N@Z 00000001800a45f0 f i libucrtd:output.obj
 0001:000a3a40       ?type_case_integer@?$output_processor@_WV?$stream_output_adapter@_W@__crt_stdio_output@@V?$standard_base@_WV?$stream_output_adapter@_W@__crt_stdio_output@@@2@@__crt_stdio_output@@AEAA_NI_N@Z 00000001800a4a40 f i libucrtd:output.obj
 0001:000a3e90       ?type_case_integer@?$output_processor@_WV?$string_output_adapter@_W@__crt_stdio_output@@V?$format_validation_base@_WV?$string_output_adapter@_W@__crt_stdio_output@@@2@@__crt_stdio_output@@AEAA_NI_N@Z 00000001800a4e90 f i libucrtd:output.obj
 0001:000a42e0       ?type_case_integer@?$output_processor@_WV?$string_output_adapter@_W@__crt_stdio_output@@V?$positional_parameter_base@_WV?$string_output_adapter@_W@__crt_stdio_output@@@2@@__crt_stdio_output@@AEAA_NI_N@Z 00000001800a52e0 f i libucrtd:output.obj
 0001:000a4730       ?type_case_integer@?$output_processor@_WV?$string_output_adapter@_W@__crt_stdio_output@@V?$standard_base@_WV?$string_output_adapter@_W@__crt_stdio_output@@@2@@__crt_stdio_output@@AEAA_NI_N@Z 00000001800a5730 f i libucrtd:output.obj
 0001:000a4b80       ?type_case_n@?$output_processor@DV?$stream_output_adapter@D@__crt_stdio_output@@V?$format_validation_base@DV?$stream_output_adapter@D@__crt_stdio_output@@@2@@__crt_stdio_output@@AEAA_NXZ 00000001800a5b80 f i libucrtd:output.obj
 0001:000a4dc0       ?type_case_n@?$output_processor@DV?$stream_output_adapter@D@__crt_stdio_output@@V?$positional_parameter_base@DV?$stream_output_adapter@D@__crt_stdio_output@@@2@@__crt_stdio_output@@AEAA_NXZ 00000001800a5dc0 f i libucrtd:output.obj
 0001:000a5000       ?type_case_n@?$output_processor@DV?$stream_output_adapter@D@__crt_stdio_output@@V?$standard_base@DV?$stream_output_adapter@D@__crt_stdio_output@@@2@@__crt_stdio_output@@AEAA_NXZ 00000001800a6000 f i libucrtd:output.obj
 0001:000a5240       ?type_case_n@?$output_processor@DV?$string_output_adapter@D@__crt_stdio_output@@V?$format_validation_base@DV?$string_output_adapter@D@__crt_stdio_output@@@2@@__crt_stdio_output@@AEAA_NXZ 00000001800a6240 f i libucrtd:output.obj
 0001:000a5480       ?type_case_n@?$output_processor@DV?$string_output_adapter@D@__crt_stdio_output@@V?$positional_parameter_base@DV?$string_output_adapter@D@__crt_stdio_output@@@2@@__crt_stdio_output@@AEAA_NXZ 00000001800a6480 f i libucrtd:output.obj
 0001:000a56c0       ?type_case_n@?$output_processor@DV?$string_output_adapter@D@__crt_stdio_output@@V?$standard_base@DV?$string_output_adapter@D@__crt_stdio_output@@@2@@__crt_stdio_output@@AEAA_NXZ 00000001800a66c0 f i libucrtd:output.obj
 0001:000a5900       ?type_case_n@?$output_processor@_WV?$stream_output_adapter@_W@__crt_stdio_output@@V?$format_validation_base@_WV?$stream_output_adapter@_W@__crt_stdio_output@@@2@@__crt_stdio_output@@AEAA_NXZ 00000001800a6900 f i libucrtd:output.obj
 0001:000a5b40       ?type_case_n@?$output_processor@_WV?$stream_output_adapter@_W@__crt_stdio_output@@V?$positional_parameter_base@_WV?$stream_output_adapter@_W@__crt_stdio_output@@@2@@__crt_stdio_output@@AEAA_NXZ 00000001800a6b40 f i libucrtd:output.obj
 0001:000a5d80       ?type_case_n@?$output_processor@_WV?$stream_output_adapter@_W@__crt_stdio_output@@V?$standard_base@_WV?$stream_output_adapter@_W@__crt_stdio_output@@@2@@__crt_stdio_output@@AEAA_NXZ 00000001800a6d80 f i libucrtd:output.obj
 0001:000a5fc0       ?type_case_n@?$output_processor@_WV?$string_output_adapter@_W@__crt_stdio_output@@V?$format_validation_base@_WV?$string_output_adapter@_W@__crt_stdio_output@@@2@@__crt_stdio_output@@AEAA_NXZ 00000001800a6fc0 f i libucrtd:output.obj
 0001:000a6200       ?type_case_n@?$output_processor@_WV?$string_output_adapter@_W@__crt_stdio_output@@V?$positional_parameter_base@_WV?$string_output_adapter@_W@__crt_stdio_output@@@2@@__crt_stdio_output@@AEAA_NXZ 00000001800a7200 f i libucrtd:output.obj
 0001:000a6440       ?type_case_n@?$output_processor@_WV?$string_output_adapter@_W@__crt_stdio_output@@V?$standard_base@_WV?$string_output_adapter@_W@__crt_stdio_output@@@2@@__crt_stdio_output@@AEAA_NXZ 00000001800a7440 f i libucrtd:output.obj
 0001:000a6680       ?type_case_o@?$output_processor@DV?$stream_output_adapter@D@__crt_stdio_output@@V?$format_validation_base@DV?$stream_output_adapter@D@__crt_stdio_output@@@2@@__crt_stdio_output@@AEAA_NXZ 00000001800a7680 f i libucrtd:output.obj
 0001:000a66d0       ?type_case_o@?$output_processor@DV?$stream_output_adapter@D@__crt_stdio_output@@V?$positional_parameter_base@DV?$stream_output_adapter@D@__crt_stdio_output@@@2@@__crt_stdio_output@@AEAA_NXZ 00000001800a76d0 f i libucrtd:output.obj
 0001:000a6720       ?type_case_o@?$output_processor@DV?$stream_output_adapter@D@__crt_stdio_output@@V?$standard_base@DV?$stream_output_adapter@D@__crt_stdio_output@@@2@@__crt_stdio_output@@AEAA_NXZ 00000001800a7720 f i libucrtd:output.obj
 0001:000a6770       ?type_case_o@?$output_processor@DV?$string_output_adapter@D@__crt_stdio_output@@V?$format_validation_base@DV?$string_output_adapter@D@__crt_stdio_output@@@2@@__crt_stdio_output@@AEAA_NXZ 00000001800a7770 f i libucrtd:output.obj
 0001:000a67c0       ?type_case_o@?$output_processor@DV?$string_output_adapter@D@__crt_stdio_output@@V?$positional_parameter_base@DV?$string_output_adapter@D@__crt_stdio_output@@@2@@__crt_stdio_output@@AEAA_NXZ 00000001800a77c0 f i libucrtd:output.obj
 0001:000a6810       ?type_case_o@?$output_processor@DV?$string_output_adapter@D@__crt_stdio_output@@V?$standard_base@DV?$string_output_adapter@D@__crt_stdio_output@@@2@@__crt_stdio_output@@AEAA_NXZ 00000001800a7810 f i libucrtd:output.obj
 0001:000a6860       ?type_case_o@?$output_processor@_WV?$stream_output_adapter@_W@__crt_stdio_output@@V?$format_validation_base@_WV?$stream_output_adapter@_W@__crt_stdio_output@@@2@@__crt_stdio_output@@AEAA_NXZ 00000001800a7860 f i libucrtd:output.obj
 0001:000a68b0       ?type_case_o@?$output_processor@_WV?$stream_output_adapter@_W@__crt_stdio_output@@V?$positional_parameter_base@_WV?$stream_output_adapter@_W@__crt_stdio_output@@@2@@__crt_stdio_output@@AEAA_NXZ 00000001800a78b0 f i libucrtd:output.obj
 0001:000a6900       ?type_case_o@?$output_processor@_WV?$stream_output_adapter@_W@__crt_stdio_output@@V?$standard_base@_WV?$stream_output_adapter@_W@__crt_stdio_output@@@2@@__crt_stdio_output@@AEAA_NXZ 00000001800a7900 f i libucrtd:output.obj
 0001:000a6950       ?type_case_o@?$output_processor@_WV?$string_output_adapter@_W@__crt_stdio_output@@V?$format_validation_base@_WV?$string_output_adapter@_W@__crt_stdio_output@@@2@@__crt_stdio_output@@AEAA_NXZ 00000001800a7950 f i libucrtd:output.obj
 0001:000a69a0       ?type_case_o@?$output_processor@_WV?$string_output_adapter@_W@__crt_stdio_output@@V?$positional_parameter_base@_WV?$string_output_adapter@_W@__crt_stdio_output@@@2@@__crt_stdio_output@@AEAA_NXZ 00000001800a79a0 f i libucrtd:output.obj
 0001:000a69f0       ?type_case_o@?$output_processor@_WV?$string_output_adapter@_W@__crt_stdio_output@@V?$standard_base@_WV?$string_output_adapter@_W@__crt_stdio_output@@@2@@__crt_stdio_output@@AEAA_NXZ 00000001800a79f0 f i libucrtd:output.obj
 0001:000a6a40       ?type_case_p@?$output_processor@DV?$stream_output_adapter@D@__crt_stdio_output@@V?$format_validation_base@DV?$stream_output_adapter@D@__crt_stdio_output@@@2@@__crt_stdio_output@@AEAA_NXZ 00000001800a7a40 f i libucrtd:output.obj
 0001:000a6a80       ?type_case_p@?$output_processor@DV?$stream_output_adapter@D@__crt_stdio_output@@V?$positional_parameter_base@DV?$stream_output_adapter@D@__crt_stdio_output@@@2@@__crt_stdio_output@@AEAA_NXZ 00000001800a7a80 f i libucrtd:output.obj
 0001:000a6ac0       ?type_case_p@?$output_processor@DV?$stream_output_adapter@D@__crt_stdio_output@@V?$standard_base@DV?$stream_output_adapter@D@__crt_stdio_output@@@2@@__crt_stdio_output@@AEAA_NXZ 00000001800a7ac0 f i libucrtd:output.obj
 0001:000a6b00       ?type_case_p@?$output_processor@DV?$string_output_adapter@D@__crt_stdio_output@@V?$format_validation_base@DV?$string_output_adapter@D@__crt_stdio_output@@@2@@__crt_stdio_output@@AEAA_NXZ 00000001800a7b00 f i libucrtd:output.obj
 0001:000a6b40       ?type_case_p@?$output_processor@DV?$string_output_adapter@D@__crt_stdio_output@@V?$positional_parameter_base@DV?$string_output_adapter@D@__crt_stdio_output@@@2@@__crt_stdio_output@@AEAA_NXZ 00000001800a7b40 f i libucrtd:output.obj
 0001:000a6b80       ?type_case_p@?$output_processor@DV?$string_output_adapter@D@__crt_stdio_output@@V?$standard_base@DV?$string_output_adapter@D@__crt_stdio_output@@@2@@__crt_stdio_output@@AEAA_NXZ 00000001800a7b80 f i libucrtd:output.obj
 0001:000a6bc0       ?type_case_p@?$output_processor@_WV?$stream_output_adapter@_W@__crt_stdio_output@@V?$format_validation_base@_WV?$stream_output_adapter@_W@__crt_stdio_output@@@2@@__crt_stdio_output@@AEAA_NXZ 00000001800a7bc0 f i libucrtd:output.obj
 0001:000a6c00       ?type_case_p@?$output_processor@_WV?$stream_output_adapter@_W@__crt_stdio_output@@V?$positional_parameter_base@_WV?$stream_output_adapter@_W@__crt_stdio_output@@@2@@__crt_stdio_output@@AEAA_NXZ 00000001800a7c00 f i libucrtd:output.obj
 0001:000a6c40       ?type_case_p@?$output_processor@_WV?$stream_output_adapter@_W@__crt_stdio_output@@V?$standard_base@_WV?$stream_output_adapter@_W@__crt_stdio_output@@@2@@__crt_stdio_output@@AEAA_NXZ 00000001800a7c40 f i libucrtd:output.obj
 0001:000a6c80       ?type_case_p@?$output_processor@_WV?$string_output_adapter@_W@__crt_stdio_output@@V?$format_validation_base@_WV?$string_output_adapter@_W@__crt_stdio_output@@@2@@__crt_stdio_output@@AEAA_NXZ 00000001800a7c80 f i libucrtd:output.obj
 0001:000a6cc0       ?type_case_p@?$output_processor@_WV?$string_output_adapter@_W@__crt_stdio_output@@V?$positional_parameter_base@_WV?$string_output_adapter@_W@__crt_stdio_output@@@2@@__crt_stdio_output@@AEAA_NXZ 00000001800a7cc0 f i libucrtd:output.obj
 0001:000a6d00       ?type_case_p@?$output_processor@_WV?$string_output_adapter@_W@__crt_stdio_output@@V?$standard_base@_WV?$string_output_adapter@_W@__crt_stdio_output@@@2@@__crt_stdio_output@@AEAA_NXZ 00000001800a7d00 f i libucrtd:output.obj
 0001:000a6d40       ?type_case_s@?$output_processor@DV?$stream_output_adapter@D@__crt_stdio_output@@V?$format_validation_base@DV?$stream_output_adapter@D@__crt_stdio_output@@@2@@__crt_stdio_output@@AEAA_NXZ 00000001800a7d40 f i libucrtd:output.obj
 0001:000a6e60       ?type_case_s@?$output_processor@DV?$stream_output_adapter@D@__crt_stdio_output@@V?$positional_parameter_base@DV?$stream_output_adapter@D@__crt_stdio_output@@@2@@__crt_stdio_output@@AEAA_NXZ 00000001800a7e60 f i libucrtd:output.obj
 0001:000a6f80       ?type_case_s@?$output_processor@DV?$stream_output_adapter@D@__crt_stdio_output@@V?$standard_base@DV?$stream_output_adapter@D@__crt_stdio_output@@@2@@__crt_stdio_output@@AEAA_NXZ 00000001800a7f80 f i libucrtd:output.obj
 0001:000a70a0       ?type_case_s@?$output_processor@DV?$string_output_adapter@D@__crt_stdio_output@@V?$format_validation_base@DV?$string_output_adapter@D@__crt_stdio_output@@@2@@__crt_stdio_output@@AEAA_NXZ 00000001800a80a0 f i libucrtd:output.obj
 0001:000a71c0       ?type_case_s@?$output_processor@DV?$string_output_adapter@D@__crt_stdio_output@@V?$positional_parameter_base@DV?$string_output_adapter@D@__crt_stdio_output@@@2@@__crt_stdio_output@@AEAA_NXZ 00000001800a81c0 f i libucrtd:output.obj
 0001:000a72e0       ?type_case_s@?$output_processor@DV?$string_output_adapter@D@__crt_stdio_output@@V?$standard_base@DV?$string_output_adapter@D@__crt_stdio_output@@@2@@__crt_stdio_output@@AEAA_NXZ 00000001800a82e0 f i libucrtd:output.obj
 0001:000a7400       ?type_case_s@?$output_processor@_WV?$stream_output_adapter@_W@__crt_stdio_output@@V?$format_validation_base@_WV?$stream_output_adapter@_W@__crt_stdio_output@@@2@@__crt_stdio_output@@AEAA_NXZ 00000001800a8400 f i libucrtd:output.obj
 0001:000a7520       ?type_case_s@?$output_processor@_WV?$stream_output_adapter@_W@__crt_stdio_output@@V?$positional_parameter_base@_WV?$stream_output_adapter@_W@__crt_stdio_output@@@2@@__crt_stdio_output@@AEAA_NXZ 00000001800a8520 f i libucrtd:output.obj
 0001:000a7640       ?type_case_s@?$output_processor@_WV?$stream_output_adapter@_W@__crt_stdio_output@@V?$standard_base@_WV?$stream_output_adapter@_W@__crt_stdio_output@@@2@@__crt_stdio_output@@AEAA_NXZ 00000001800a8640 f i libucrtd:output.obj
 0001:000a7760       ?type_case_s@?$output_processor@_WV?$string_output_adapter@_W@__crt_stdio_output@@V?$format_validation_base@_WV?$string_output_adapter@_W@__crt_stdio_output@@@2@@__crt_stdio_output@@AEAA_NXZ 00000001800a8760 f i libucrtd:output.obj
 0001:000a7880       ?type_case_s@?$output_processor@_WV?$string_output_adapter@_W@__crt_stdio_output@@V?$positional_parameter_base@_WV?$string_output_adapter@_W@__crt_stdio_output@@@2@@__crt_stdio_output@@AEAA_NXZ 00000001800a8880 f i libucrtd:output.obj
 0001:000a79a0       ?type_case_s@?$output_processor@_WV?$string_output_adapter@_W@__crt_stdio_output@@V?$standard_base@_WV?$string_output_adapter@_W@__crt_stdio_output@@@2@@__crt_stdio_output@@AEAA_NXZ 00000001800a89a0 f i libucrtd:output.obj
 0001:000a7ac0       ?type_case_s_compute_narrow_string_length@?$output_processor@DV?$stream_output_adapter@D@__crt_stdio_output@@V?$format_validation_base@DV?$stream_output_adapter@D@__crt_stdio_output@@@2@@__crt_stdio_output@@AEBAHHD@Z 00000001800a8ac0 f i libucrtd:output.obj
 0001:000a7af0       ?type_case_s_compute_narrow_string_length@?$output_processor@DV?$stream_output_adapter@D@__crt_stdio_output@@V?$positional_parameter_base@DV?$stream_output_adapter@D@__crt_stdio_output@@@2@@__crt_stdio_output@@AEBAHHD@Z 00000001800a8af0 f i libucrtd:output.obj
 0001:000a7b20       ?type_case_s_compute_narrow_string_length@?$output_processor@DV?$stream_output_adapter@D@__crt_stdio_output@@V?$standard_base@DV?$stream_output_adapter@D@__crt_stdio_output@@@2@@__crt_stdio_output@@AEBAHHD@Z 00000001800a8b20 f i libucrtd:output.obj
 0001:000a7b50       ?type_case_s_compute_narrow_string_length@?$output_processor@DV?$string_output_adapter@D@__crt_stdio_output@@V?$format_validation_base@DV?$string_output_adapter@D@__crt_stdio_output@@@2@@__crt_stdio_output@@AEBAHHD@Z 00000001800a8b50 f i libucrtd:output.obj
 0001:000a7b80       ?type_case_s_compute_narrow_string_length@?$output_processor@DV?$string_output_adapter@D@__crt_stdio_output@@V?$positional_parameter_base@DV?$string_output_adapter@D@__crt_stdio_output@@@2@@__crt_stdio_output@@AEBAHHD@Z 00000001800a8b80 f i libucrtd:output.obj
 0001:000a7bb0       ?type_case_s_compute_narrow_string_length@?$output_processor@DV?$string_output_adapter@D@__crt_stdio_output@@V?$standard_base@DV?$string_output_adapter@D@__crt_stdio_output@@@2@@__crt_stdio_output@@AEBAHHD@Z 00000001800a8bb0 f i libucrtd:output.obj
 0001:000a7be0       ?type_case_s_compute_narrow_string_length@?$output_processor@_WV?$stream_output_adapter@_W@__crt_stdio_output@@V?$format_validation_base@_WV?$stream_output_adapter@_W@__crt_stdio_output@@@2@@__crt_stdio_output@@AEBAHH_W@Z 00000001800a8be0 f i libucrtd:output.obj
 0001:000a7c70       ?type_case_s_compute_narrow_string_length@?$output_processor@_WV?$stream_output_adapter@_W@__crt_stdio_output@@V?$positional_parameter_base@_WV?$stream_output_adapter@_W@__crt_stdio_output@@@2@@__crt_stdio_output@@AEBAHH_W@Z 00000001800a8c70 f i libucrtd:output.obj
 0001:000a7d00       ?type_case_s_compute_narrow_string_length@?$output_processor@_WV?$stream_output_adapter@_W@__crt_stdio_output@@V?$standard_base@_WV?$stream_output_adapter@_W@__crt_stdio_output@@@2@@__crt_stdio_output@@AEBAHH_W@Z 00000001800a8d00 f i libucrtd:output.obj
 0001:000a7d90       ?type_case_s_compute_narrow_string_length@?$output_processor@_WV?$string_output_adapter@_W@__crt_stdio_output@@V?$format_validation_base@_WV?$string_output_adapter@_W@__crt_stdio_output@@@2@@__crt_stdio_output@@AEBAHH_W@Z 00000001800a8d90 f i libucrtd:output.obj
 0001:000a7e20       ?type_case_s_compute_narrow_string_length@?$output_processor@_WV?$string_output_adapter@_W@__crt_stdio_output@@V?$positional_parameter_base@_WV?$string_output_adapter@_W@__crt_stdio_output@@@2@@__crt_stdio_output@@AEBAHH_W@Z 00000001800a8e20 f i libucrtd:output.obj
 0001:000a7eb0       ?type_case_s_compute_narrow_string_length@?$output_processor@_WV?$string_output_adapter@_W@__crt_stdio_output@@V?$standard_base@_WV?$string_output_adapter@_W@__crt_stdio_output@@@2@@__crt_stdio_output@@AEBAHH_W@Z 00000001800a8eb0 f i libucrtd:output.obj
 0001:000a7f40       ?type_case_u@?$output_processor@DV?$stream_output_adapter@D@__crt_stdio_output@@V?$format_validation_base@DV?$stream_output_adapter@D@__crt_stdio_output@@@2@@__crt_stdio_output@@AEAA_NXZ 00000001800a8f40 f i libucrtd:output.obj
 0001:000a7f60       ?type_case_u@?$output_processor@DV?$stream_output_adapter@D@__crt_stdio_output@@V?$positional_parameter_base@DV?$stream_output_adapter@D@__crt_stdio_output@@@2@@__crt_stdio_output@@AEAA_NXZ 00000001800a8f60 f i libucrtd:output.obj
 0001:000a7f80       ?type_case_u@?$output_processor@DV?$stream_output_adapter@D@__crt_stdio_output@@V?$standard_base@DV?$stream_output_adapter@D@__crt_stdio_output@@@2@@__crt_stdio_output@@AEAA_NXZ 00000001800a8f80 f i libucrtd:output.obj
 0001:000a7fa0       ?type_case_u@?$output_processor@DV?$string_output_adapter@D@__crt_stdio_output@@V?$format_validation_base@DV?$string_output_adapter@D@__crt_stdio_output@@@2@@__crt_stdio_output@@AEAA_NXZ 00000001800a8fa0 f i libucrtd:output.obj
 0001:000a7fc0       ?type_case_u@?$output_processor@DV?$string_output_adapter@D@__crt_stdio_output@@V?$positional_parameter_base@DV?$string_output_adapter@D@__crt_stdio_output@@@2@@__crt_stdio_output@@AEAA_NXZ 00000001800a8fc0 f i libucrtd:output.obj
 0001:000a7fe0       ?type_case_u@?$output_processor@DV?$string_output_adapter@D@__crt_stdio_output@@V?$standard_base@DV?$string_output_adapter@D@__crt_stdio_output@@@2@@__crt_stdio_output@@AEAA_NXZ 00000001800a8fe0 f i libucrtd:output.obj
 0001:000a8000       ?type_case_u@?$output_processor@_WV?$stream_output_adapter@_W@__crt_stdio_output@@V?$format_validation_base@_WV?$stream_output_adapter@_W@__crt_stdio_output@@@2@@__crt_stdio_output@@AEAA_NXZ 00000001800a9000 f i libucrtd:output.obj
 0001:000a8020       ?type_case_u@?$output_processor@_WV?$stream_output_adapter@_W@__crt_stdio_output@@V?$positional_parameter_base@_WV?$stream_output_adapter@_W@__crt_stdio_output@@@2@@__crt_stdio_output@@AEAA_NXZ 00000001800a9020 f i libucrtd:output.obj
 0001:000a8040       ?type_case_u@?$output_processor@_WV?$stream_output_adapter@_W@__crt_stdio_output@@V?$standard_base@_WV?$stream_output_adapter@_W@__crt_stdio_output@@@2@@__crt_stdio_output@@AEAA_NXZ 00000001800a9040 f i libucrtd:output.obj
 0001:000a8060       ?type_case_u@?$output_processor@_WV?$string_output_adapter@_W@__crt_stdio_output@@V?$format_validation_base@_WV?$string_output_adapter@_W@__crt_stdio_output@@@2@@__crt_stdio_output@@AEAA_NXZ 00000001800a9060 f i libucrtd:output.obj
 0001:000a8080       ?type_case_u@?$output_processor@_WV?$string_output_adapter@_W@__crt_stdio_output@@V?$positional_parameter_base@_WV?$string_output_adapter@_W@__crt_stdio_output@@@2@@__crt_stdio_output@@AEAA_NXZ 00000001800a9080 f i libucrtd:output.obj
 0001:000a80a0       ?type_case_u@?$output_processor@_WV?$string_output_adapter@_W@__crt_stdio_output@@V?$standard_base@_WV?$string_output_adapter@_W@__crt_stdio_output@@@2@@__crt_stdio_output@@AEAA_NXZ 00000001800a90a0 f i libucrtd:output.obj
 0001:000a80c0       ?type_case_x@?$output_processor@DV?$stream_output_adapter@D@__crt_stdio_output@@V?$format_validation_base@DV?$stream_output_adapter@D@__crt_stdio_output@@@2@@__crt_stdio_output@@AEAA_NXZ 00000001800a90c0 f i libucrtd:output.obj
 0001:000a80e0       ?type_case_x@?$output_processor@DV?$stream_output_adapter@D@__crt_stdio_output@@V?$positional_parameter_base@DV?$stream_output_adapter@D@__crt_stdio_output@@@2@@__crt_stdio_output@@AEAA_NXZ 00000001800a90e0 f i libucrtd:output.obj
 0001:000a8100       ?type_case_x@?$output_processor@DV?$stream_output_adapter@D@__crt_stdio_output@@V?$standard_base@DV?$stream_output_adapter@D@__crt_stdio_output@@@2@@__crt_stdio_output@@AEAA_NXZ 00000001800a9100 f i libucrtd:output.obj
 0001:000a8120       ?type_case_x@?$output_processor@DV?$string_output_adapter@D@__crt_stdio_output@@V?$format_validation_base@DV?$string_output_adapter@D@__crt_stdio_output@@@2@@__crt_stdio_output@@AEAA_NXZ 00000001800a9120 f i libucrtd:output.obj
 0001:000a8140       ?type_case_x@?$output_processor@DV?$string_output_adapter@D@__crt_stdio_output@@V?$positional_parameter_base@DV?$string_output_adapter@D@__crt_stdio_output@@@2@@__crt_stdio_output@@AEAA_NXZ 00000001800a9140 f i libucrtd:output.obj
 0001:000a8160       ?type_case_x@?$output_processor@DV?$string_output_adapter@D@__crt_stdio_output@@V?$standard_base@DV?$string_output_adapter@D@__crt_stdio_output@@@2@@__crt_stdio_output@@AEAA_NXZ 00000001800a9160 f i libucrtd:output.obj
 0001:000a8180       ?type_case_x@?$output_processor@_WV?$stream_output_adapter@_W@__crt_stdio_output@@V?$format_validation_base@_WV?$stream_output_adapter@_W@__crt_stdio_output@@@2@@__crt_stdio_output@@AEAA_NXZ 00000001800a9180 f i libucrtd:output.obj
 0001:000a81a0       ?type_case_x@?$output_processor@_WV?$stream_output_adapter@_W@__crt_stdio_output@@V?$positional_parameter_base@_WV?$stream_output_adapter@_W@__crt_stdio_output@@@2@@__crt_stdio_output@@AEAA_NXZ 00000001800a91a0 f i libucrtd:output.obj
 0001:000a81c0       ?type_case_x@?$output_processor@_WV?$stream_output_adapter@_W@__crt_stdio_output@@V?$standard_base@_WV?$stream_output_adapter@_W@__crt_stdio_output@@@2@@__crt_stdio_output@@AEAA_NXZ 00000001800a91c0 f i libucrtd:output.obj
 0001:000a81e0       ?type_case_x@?$output_processor@_WV?$string_output_adapter@_W@__crt_stdio_output@@V?$format_validation_base@_WV?$string_output_adapter@_W@__crt_stdio_output@@@2@@__crt_stdio_output@@AEAA_NXZ 00000001800a91e0 f i libucrtd:output.obj
 0001:000a8200       ?type_case_x@?$output_processor@_WV?$string_output_adapter@_W@__crt_stdio_output@@V?$positional_parameter_base@_WV?$string_output_adapter@_W@__crt_stdio_output@@@2@@__crt_stdio_output@@AEAA_NXZ 00000001800a9200 f i libucrtd:output.obj
 0001:000a8220       ?type_case_x@?$output_processor@_WV?$string_output_adapter@_W@__crt_stdio_output@@V?$standard_base@_WV?$string_output_adapter@_W@__crt_stdio_output@@@2@@__crt_stdio_output@@AEAA_NXZ 00000001800a9220 f i libucrtd:output.obj
 0001:000a8240       ?unset_flag@?$output_processor@DV?$stream_output_adapter@D@__crt_stdio_output@@V?$format_validation_base@DV?$stream_output_adapter@D@__crt_stdio_output@@@2@@__crt_stdio_output@@AEAAXI@Z 00000001800a9240 f i libucrtd:output.obj
 0001:000a8270       ?unset_flag@?$output_processor@DV?$stream_output_adapter@D@__crt_stdio_output@@V?$positional_parameter_base@DV?$stream_output_adapter@D@__crt_stdio_output@@@2@@__crt_stdio_output@@AEAAXI@Z 00000001800a9270 f i libucrtd:output.obj
 0001:000a82a0       ?unset_flag@?$output_processor@DV?$stream_output_adapter@D@__crt_stdio_output@@V?$standard_base@DV?$stream_output_adapter@D@__crt_stdio_output@@@2@@__crt_stdio_output@@AEAAXI@Z 00000001800a92a0 f i libucrtd:output.obj
 0001:000a82d0       ?unset_flag@?$output_processor@DV?$string_output_adapter@D@__crt_stdio_output@@V?$format_validation_base@DV?$string_output_adapter@D@__crt_stdio_output@@@2@@__crt_stdio_output@@AEAAXI@Z 00000001800a92d0 f i libucrtd:output.obj
 0001:000a8300       ?unset_flag@?$output_processor@DV?$string_output_adapter@D@__crt_stdio_output@@V?$positional_parameter_base@DV?$string_output_adapter@D@__crt_stdio_output@@@2@@__crt_stdio_output@@AEAAXI@Z 00000001800a9300 f i libucrtd:output.obj
 0001:000a8330       ?unset_flag@?$output_processor@DV?$string_output_adapter@D@__crt_stdio_output@@V?$standard_base@DV?$string_output_adapter@D@__crt_stdio_output@@@2@@__crt_stdio_output@@AEAAXI@Z 00000001800a9330 f i libucrtd:output.obj
 0001:000a8360       ?unset_flag@?$output_processor@_WV?$stream_output_adapter@_W@__crt_stdio_output@@V?$format_validation_base@_WV?$stream_output_adapter@_W@__crt_stdio_output@@@2@@__crt_stdio_output@@AEAAXI@Z 00000001800a9360 f i libucrtd:output.obj
 0001:000a8390       ?unset_flag@?$output_processor@_WV?$stream_output_adapter@_W@__crt_stdio_output@@V?$positional_parameter_base@_WV?$stream_output_adapter@_W@__crt_stdio_output@@@2@@__crt_stdio_output@@AEAAXI@Z 00000001800a9390 f i libucrtd:output.obj
 0001:000a83c0       ?unset_flag@?$output_processor@_WV?$stream_output_adapter@_W@__crt_stdio_output@@V?$standard_base@_WV?$stream_output_adapter@_W@__crt_stdio_output@@@2@@__crt_stdio_output@@AEAAXI@Z 00000001800a93c0 f i libucrtd:output.obj
 0001:000a83f0       ?unset_flag@?$output_processor@_WV?$string_output_adapter@_W@__crt_stdio_output@@V?$format_validation_base@_WV?$string_output_adapter@_W@__crt_stdio_output@@@2@@__crt_stdio_output@@AEAAXI@Z 00000001800a93f0 f i libucrtd:output.obj
 0001:000a8420       ?unset_flag@?$output_processor@_WV?$string_output_adapter@_W@__crt_stdio_output@@V?$positional_parameter_base@_WV?$string_output_adapter@_W@__crt_stdio_output@@@2@@__crt_stdio_output@@AEAAXI@Z 00000001800a9420 f i libucrtd:output.obj
 0001:000a8450       ?unset_flag@?$output_processor@_WV?$string_output_adapter@_W@__crt_stdio_output@@V?$standard_base@_WV?$string_output_adapter@_W@__crt_stdio_output@@@2@@__crt_stdio_output@@AEAAXI@Z 00000001800a9450 f i libucrtd:output.obj
 0001:000a8480       ?update_field_width@?$positional_parameter_base@DV?$stream_output_adapter@D@__crt_stdio_output@@@__crt_stdio_output@@IEAA_NXZ 00000001800a9480 f i libucrtd:output.obj
 0001:000a8670       ?update_field_width@?$positional_parameter_base@DV?$string_output_adapter@D@__crt_stdio_output@@@__crt_stdio_output@@IEAA_NXZ 00000001800a9670 f i libucrtd:output.obj
 0001:000a8860       ?update_field_width@?$positional_parameter_base@_WV?$stream_output_adapter@_W@__crt_stdio_output@@@__crt_stdio_output@@IEAA_NXZ 00000001800a9860 f i libucrtd:output.obj
 0001:000a8a50       ?update_field_width@?$positional_parameter_base@_WV?$string_output_adapter@_W@__crt_stdio_output@@@__crt_stdio_output@@IEAA_NXZ 00000001800a9a50 f i libucrtd:output.obj
 0001:000a8c40       ?update_field_width@?$standard_base@DV?$stream_output_adapter@D@__crt_stdio_output@@@__crt_stdio_output@@IEAA_NXZ 00000001800a9c40 f i libucrtd:output.obj
 0001:000a8c70       ?update_field_width@?$standard_base@DV?$string_output_adapter@D@__crt_stdio_output@@@__crt_stdio_output@@IEAA_NXZ 00000001800a9c70 f i libucrtd:output.obj
 0001:000a8ca0       ?update_field_width@?$standard_base@_WV?$stream_output_adapter@_W@__crt_stdio_output@@@__crt_stdio_output@@IEAA_NXZ 00000001800a9ca0 f i libucrtd:output.obj
 0001:000a8cd0       ?update_field_width@?$standard_base@_WV?$string_output_adapter@_W@__crt_stdio_output@@@__crt_stdio_output@@IEAA_NXZ 00000001800a9cd0 f i libucrtd:output.obj
 0001:000a8d00       ?update_precision@?$positional_parameter_base@DV?$stream_output_adapter@D@__crt_stdio_output@@@__crt_stdio_output@@IEAA_NXZ 00000001800a9d00 f i libucrtd:output.obj
 0001:000a8ef0       ?update_precision@?$positional_parameter_base@DV?$string_output_adapter@D@__crt_stdio_output@@@__crt_stdio_output@@IEAA_NXZ 00000001800a9ef0 f i libucrtd:output.obj
 0001:000a90e0       ?update_precision@?$positional_parameter_base@_WV?$stream_output_adapter@_W@__crt_stdio_output@@@__crt_stdio_output@@IEAA_NXZ 00000001800aa0e0 f i libucrtd:output.obj
 0001:000a92d0       ?update_precision@?$positional_parameter_base@_WV?$string_output_adapter@_W@__crt_stdio_output@@@__crt_stdio_output@@IEAA_NXZ 00000001800aa2d0 f i libucrtd:output.obj
 0001:000a94c0       ?update_precision@?$standard_base@DV?$stream_output_adapter@D@__crt_stdio_output@@@__crt_stdio_output@@IEAA_NXZ 00000001800aa4c0 f i libucrtd:output.obj
 0001:000a94f0       ?update_precision@?$standard_base@DV?$string_output_adapter@D@__crt_stdio_output@@@__crt_stdio_output@@IEAA_NXZ 00000001800aa4f0 f i libucrtd:output.obj
 0001:000a9520       ?update_precision@?$standard_base@_WV?$stream_output_adapter@_W@__crt_stdio_output@@@__crt_stdio_output@@IEAA_NXZ 00000001800aa520 f i libucrtd:output.obj
 0001:000a9550       ?update_precision@?$standard_base@_WV?$string_output_adapter@_W@__crt_stdio_output@@@__crt_stdio_output@@IEAA_NXZ 00000001800aa550 f i libucrtd:output.obj
 0001:000a9580       ?valid@__crt_stdio_stream@@QEBA_NXZ 00000001800aa580 f i libucrtd:output.obj
 0001:000a95b0       ?validate@?$stream_output_adapter@D@__crt_stdio_output@@QEBA_NXZ 00000001800aa5b0 f i libucrtd:output.obj
 0001:000a9690       ?validate@?$stream_output_adapter@_W@__crt_stdio_output@@QEBA_NXZ 00000001800aa690 f i libucrtd:output.obj
 0001:000a9770       ?validate@?$string_output_adapter@D@__crt_stdio_output@@QEBA_NXZ 00000001800aa770 f i libucrtd:output.obj
 0001:000a9830       ?validate@?$string_output_adapter@_W@__crt_stdio_output@@QEBA_NXZ 00000001800aa830 f i libucrtd:output.obj
 0001:000a98f0       ?validate_and_store_parameter_data@?$positional_parameter_base@DV?$stream_output_adapter@D@__crt_stdio_output@@@__crt_stdio_output@@AEAA_NAEAUparameter_data@12@W4parameter_type@12@DW4length_modifier@2@@Z 00000001800aa8f0 f i libucrtd:output.obj
 0001:000a9a10       ?validate_and_store_parameter_data@?$positional_parameter_base@DV?$string_output_adapter@D@__crt_stdio_output@@@__crt_stdio_output@@AEAA_NAEAUparameter_data@12@W4parameter_type@12@DW4length_modifier@2@@Z 00000001800aaa10 f i libucrtd:output.obj
 0001:000a9b30       ?validate_and_store_parameter_data@?$positional_parameter_base@_WV?$stream_output_adapter@_W@__crt_stdio_output@@@__crt_stdio_output@@AEAA_NAEAUparameter_data@12@W4parameter_type@12@_WW4length_modifier@2@@Z 00000001800aab30 f i libucrtd:output.obj
 0001:000a9c50       ?validate_and_store_parameter_data@?$positional_parameter_base@_WV?$string_output_adapter@_W@__crt_stdio_output@@@__crt_stdio_output@@AEAA_NAEAUparameter_data@12@W4parameter_type@12@_WW4length_modifier@2@@Z 00000001800aac50 f i libucrtd:output.obj
 0001:000a9d70       ?validate_and_update_state_at_beginning_of_format_character@?$positional_parameter_base@DV?$stream_output_adapter@D@__crt_stdio_output@@@__crt_stdio_output@@IEAA_NXZ 00000001800aad70 f i libucrtd:output.obj
 0001:000aa050       ?validate_and_update_state_at_beginning_of_format_character@?$positional_parameter_base@DV?$string_output_adapter@D@__crt_stdio_output@@@__crt_stdio_output@@IEAA_NXZ 00000001800ab050 f i libucrtd:output.obj
 0001:000aa330       ?validate_and_update_state_at_beginning_of_format_character@?$positional_parameter_base@_WV?$stream_output_adapter@_W@__crt_stdio_output@@@__crt_stdio_output@@IEAA_NXZ 00000001800ab330 f i libucrtd:output.obj
 0001:000aa610       ?validate_and_update_state_at_beginning_of_format_character@?$positional_parameter_base@_WV?$string_output_adapter@_W@__crt_stdio_output@@@__crt_stdio_output@@IEAA_NXZ 00000001800ab610 f i libucrtd:output.obj
 0001:000aa8f0       ?validate_and_update_state_at_beginning_of_format_character@?$standard_base@DV?$stream_output_adapter@D@__crt_stdio_output@@@__crt_stdio_output@@IEAA_NXZ 00000001800ab8f0 f i libucrtd:output.obj
 0001:000aa900       ?validate_and_update_state_at_beginning_of_format_character@?$standard_base@DV?$string_output_adapter@D@__crt_stdio_output@@@__crt_stdio_output@@IEAA_NXZ 00000001800ab900 f i libucrtd:output.obj
 0001:000aa910       ?validate_and_update_state_at_beginning_of_format_character@?$standard_base@_WV?$stream_output_adapter@_W@__crt_stdio_output@@@__crt_stdio_output@@IEAA_NXZ 00000001800ab910 f i libucrtd:output.obj
 0001:000aa920       ?validate_and_update_state_at_beginning_of_format_character@?$standard_base@_WV?$string_output_adapter@_W@__crt_stdio_output@@@__crt_stdio_output@@IEAA_NXZ 00000001800ab920 f i libucrtd:output.obj
 0001:000aa930       ?validate_and_update_state_at_end_of_format_string@?$format_validation_base@DV?$stream_output_adapter@D@__crt_stdio_output@@@__crt_stdio_output@@IEBA_NXZ 00000001800ab930 f i libucrtd:output.obj
 0001:000aa9f0       ?validate_and_update_state_at_end_of_format_string@?$format_validation_base@DV?$string_output_adapter@D@__crt_stdio_output@@@__crt_stdio_output@@IEBA_NXZ 00000001800ab9f0 f i libucrtd:output.obj
 0001:000aaab0       ?validate_and_update_state_at_end_of_format_string@?$format_validation_base@_WV?$stream_output_adapter@_W@__crt_stdio_output@@@__crt_stdio_output@@IEBA_NXZ 00000001800abab0 f i libucrtd:output.obj
 0001:000aab70       ?validate_and_update_state_at_end_of_format_string@?$format_validation_base@_WV?$string_output_adapter@_W@__crt_stdio_output@@@__crt_stdio_output@@IEBA_NXZ 00000001800abb70 f i libucrtd:output.obj
 0001:000aac30       ?validate_and_update_state_at_end_of_format_string@?$positional_parameter_base@DV?$stream_output_adapter@D@__crt_stdio_output@@@__crt_stdio_output@@IEAA_NXZ 00000001800abc30 f i libucrtd:output.obj
 0001:000aae20       ?validate_and_update_state_at_end_of_format_string@?$positional_parameter_base@DV?$string_output_adapter@D@__crt_stdio_output@@@__crt_stdio_output@@IEAA_NXZ 00000001800abe20 f i libucrtd:output.obj
 0001:000ab010       ?validate_and_update_state_at_end_of_format_string@?$positional_parameter_base@_WV?$stream_output_adapter@_W@__crt_stdio_output@@@__crt_stdio_output@@IEAA_NXZ 00000001800ac010 f i libucrtd:output.obj
 0001:000ab200       ?validate_and_update_state_at_end_of_format_string@?$positional_parameter_base@_WV?$string_output_adapter@_W@__crt_stdio_output@@@__crt_stdio_output@@IEAA_NXZ 00000001800ac200 f i libucrtd:output.obj
 0001:000ab3f0       ?validate_and_update_state_at_end_of_format_string@?$standard_base@DV?$stream_output_adapter@D@__crt_stdio_output@@@__crt_stdio_output@@IEBA_NXZ 00000001800ac3f0 f i libucrtd:output.obj
 0001:000ab400       ?validate_and_update_state_at_end_of_format_string@?$standard_base@DV?$string_output_adapter@D@__crt_stdio_output@@@__crt_stdio_output@@IEBA_NXZ 00000001800ac400 f i libucrtd:output.obj
 0001:000ab410       ?validate_and_update_state_at_end_of_format_string@?$standard_base@_WV?$stream_output_adapter@_W@__crt_stdio_output@@@__crt_stdio_output@@IEBA_NXZ 00000001800ac410 f i libucrtd:output.obj
 0001:000ab420       ?validate_and_update_state_at_end_of_format_string@?$standard_base@_WV?$string_output_adapter@_W@__crt_stdio_output@@@__crt_stdio_output@@IEBA_NXZ 00000001800ac420 f i libucrtd:output.obj
 0001:000ab430       ?validate_state_for_type_case_a@?$positional_parameter_base@DV?$stream_output_adapter@D@__crt_stdio_output@@@__crt_stdio_output@@IEAA_NXZ 00000001800ac430 f i libucrtd:output.obj
 0001:000ab570       ?validate_state_for_type_case_a@?$positional_parameter_base@DV?$string_output_adapter@D@__crt_stdio_output@@@__crt_stdio_output@@IEAA_NXZ 00000001800ac570 f i libucrtd:output.obj
 0001:000ab6b0       ?validate_state_for_type_case_a@?$positional_parameter_base@_WV?$stream_output_adapter@_W@__crt_stdio_output@@@__crt_stdio_output@@IEAA_NXZ 00000001800ac6b0 f i libucrtd:output.obj
 0001:000ab7f0       ?validate_state_for_type_case_a@?$positional_parameter_base@_WV?$string_output_adapter@_W@__crt_stdio_output@@@__crt_stdio_output@@IEAA_NXZ 00000001800ac7f0 f i libucrtd:output.obj
 0001:000ab930       ?validate_state_for_type_case_a@?$standard_base@DV?$stream_output_adapter@D@__crt_stdio_output@@@__crt_stdio_output@@IEBA_NXZ 00000001800ac930 f i libucrtd:output.obj
 0001:000ab940       ?validate_state_for_type_case_a@?$standard_base@DV?$string_output_adapter@D@__crt_stdio_output@@@__crt_stdio_output@@IEBA_NXZ 00000001800ac940 f i libucrtd:output.obj
 0001:000ab950       ?validate_state_for_type_case_a@?$standard_base@_WV?$stream_output_adapter@_W@__crt_stdio_output@@@__crt_stdio_output@@IEBA_NXZ 00000001800ac950 f i libucrtd:output.obj
 0001:000ab960       ?validate_state_for_type_case_a@?$standard_base@_WV?$string_output_adapter@_W@__crt_stdio_output@@@__crt_stdio_output@@IEBA_NXZ 00000001800ac960 f i libucrtd:output.obj
 0001:000ab970       ?validate_stream_is_ansi_if_required@?$__acrt_stdio_char_traits@D@@SA_NQEAU_iobuf@@@Z 00000001800ac970 f i libucrtd:output.obj
 0001:000abb00       ?validate_stream_is_ansi_if_required@?$__acrt_stdio_char_traits@_W@@SA_NQEAU_iobuf@@@Z 00000001800acb00 f i libucrtd:output.obj
 0001:000abb10       ?wide_null_string@?$output_processor@DV?$stream_output_adapter@D@__crt_stdio_output@@V?$format_validation_base@DV?$stream_output_adapter@D@__crt_stdio_output@@@2@@__crt_stdio_output@@CAPEA_WXZ 00000001800acb10 f i libucrtd:output.obj
 0001:000abb20       ?wide_null_string@?$output_processor@DV?$stream_output_adapter@D@__crt_stdio_output@@V?$positional_parameter_base@DV?$stream_output_adapter@D@__crt_stdio_output@@@2@@__crt_stdio_output@@CAPEA_WXZ 00000001800acb20 f i libucrtd:output.obj
 0001:000abb30       ?wide_null_string@?$output_processor@DV?$stream_output_adapter@D@__crt_stdio_output@@V?$standard_base@DV?$stream_output_adapter@D@__crt_stdio_output@@@2@@__crt_stdio_output@@CAPEA_WXZ 00000001800acb30 f i libucrtd:output.obj
 0001:000abb40       ?wide_null_string@?$output_processor@DV?$string_output_adapter@D@__crt_stdio_output@@V?$format_validation_base@DV?$string_output_adapter@D@__crt_stdio_output@@@2@@__crt_stdio_output@@CAPEA_WXZ 00000001800acb40 f i libucrtd:output.obj
 0001:000abb50       ?wide_null_string@?$output_processor@DV?$string_output_adapter@D@__crt_stdio_output@@V?$positional_parameter_base@DV?$string_output_adapter@D@__crt_stdio_output@@@2@@__crt_stdio_output@@CAPEA_WXZ 00000001800acb50 f i libucrtd:output.obj
 0001:000abb60       ?wide_null_string@?$output_processor@DV?$string_output_adapter@D@__crt_stdio_output@@V?$standard_base@DV?$string_output_adapter@D@__crt_stdio_output@@@2@@__crt_stdio_output@@CAPEA_WXZ 00000001800acb60 f i libucrtd:output.obj
 0001:000abb70       ?wide_null_string@?$output_processor@_WV?$stream_output_adapter@_W@__crt_stdio_output@@V?$format_validation_base@_WV?$stream_output_adapter@_W@__crt_stdio_output@@@2@@__crt_stdio_output@@CAPEA_WXZ 00000001800acb70 f i libucrtd:output.obj
 0001:000abb80       ?wide_null_string@?$output_processor@_WV?$stream_output_adapter@_W@__crt_stdio_output@@V?$positional_parameter_base@_WV?$stream_output_adapter@_W@__crt_stdio_output@@@2@@__crt_stdio_output@@CAPEA_WXZ 00000001800acb80 f i libucrtd:output.obj
 0001:000abb90       ?wide_null_string@?$output_processor@_WV?$stream_output_adapter@_W@__crt_stdio_output@@V?$standard_base@_WV?$stream_output_adapter@_W@__crt_stdio_output@@@2@@__crt_stdio_output@@CAPEA_WXZ 00000001800acb90 f i libucrtd:output.obj
 0001:000abba0       ?wide_null_string@?$output_processor@_WV?$string_output_adapter@_W@__crt_stdio_output@@V?$format_validation_base@_WV?$string_output_adapter@_W@__crt_stdio_output@@@2@@__crt_stdio_output@@CAPEA_WXZ 00000001800acba0 f i libucrtd:output.obj
 0001:000abbb0       ?wide_null_string@?$output_processor@_WV?$string_output_adapter@_W@__crt_stdio_output@@V?$positional_parameter_base@_WV?$string_output_adapter@_W@__crt_stdio_output@@@2@@__crt_stdio_output@@CAPEA_WXZ 00000001800acbb0 f i libucrtd:output.obj
 0001:000abbc0       ?wide_null_string@?$output_processor@_WV?$string_output_adapter@_W@__crt_stdio_output@@V?$standard_base@_WV?$string_output_adapter@_W@__crt_stdio_output@@@2@@__crt_stdio_output@@CAPEA_WXZ 00000001800acbc0 f i libucrtd:output.obj
 0001:000abbd0       ?write_character@?$output_adapter_common@DV?$stream_output_adapter@D@__crt_stdio_output@@@__crt_stdio_output@@QEBAXDQEAH@Z 00000001800acbd0 f i libucrtd:output.obj
 0001:000abc20       ?write_character@?$output_adapter_common@_WV?$stream_output_adapter@_W@__crt_stdio_output@@@__crt_stdio_output@@QEBAX_WQEAH@Z 00000001800acc20 f i libucrtd:output.obj
 0001:000abc70       ?write_character@?$string_output_adapter@D@__crt_stdio_output@@QEBA_NDQEAH@Z 00000001800acc70 f i libucrtd:output.obj
 0001:000abd30       ?write_character@?$string_output_adapter@_W@__crt_stdio_output@@QEBA_N_WQEAH@Z 00000001800acd30 f i libucrtd:output.obj
 0001:000abdf0       ?write_character_without_count_update@?$stream_output_adapter@D@__crt_stdio_output@@QEBA_ND@Z 00000001800acdf0 f i libucrtd:output.obj
 0001:000abe70       ?write_character_without_count_update@?$stream_output_adapter@_W@__crt_stdio_output@@QEBA_N_W@Z 00000001800ace70 f i libucrtd:output.obj
 0001:000abf00       ?write_stored_string_tchar@?$output_processor@DV?$stream_output_adapter@D@__crt_stdio_output@@V?$format_validation_base@DV?$stream_output_adapter@D@__crt_stdio_output@@@2@@__crt_stdio_output@@AEAA_ND@Z 00000001800acf00 f i libucrtd:output.obj
 0001:000ac0c0       ?write_stored_string_tchar@?$output_processor@DV?$stream_output_adapter@D@__crt_stdio_output@@V?$positional_parameter_base@DV?$stream_output_adapter@D@__crt_stdio_output@@@2@@__crt_stdio_output@@AEAA_ND@Z 00000001800ad0c0 f i libucrtd:output.obj
 0001:000ac280       ?write_stored_string_tchar@?$output_processor@DV?$stream_output_adapter@D@__crt_stdio_output@@V?$standard_base@DV?$stream_output_adapter@D@__crt_stdio_output@@@2@@__crt_stdio_output@@AEAA_ND@Z 00000001800ad280 f i libucrtd:output.obj
 0001:000ac440       ?write_stored_string_tchar@?$output_processor@DV?$string_output_adapter@D@__crt_stdio_output@@V?$format_validation_base@DV?$string_output_adapter@D@__crt_stdio_output@@@2@@__crt_stdio_output@@AEAA_ND@Z 00000001800ad440 f i libucrtd:output.obj
 0001:000ac600       ?write_stored_string_tchar@?$output_processor@DV?$string_output_adapter@D@__crt_stdio_output@@V?$positional_parameter_base@DV?$string_output_adapter@D@__crt_stdio_output@@@2@@__crt_stdio_output@@AEAA_ND@Z 00000001800ad600 f i libucrtd:output.obj
 0001:000ac7c0       ?write_stored_string_tchar@?$output_processor@DV?$string_output_adapter@D@__crt_stdio_output@@V?$standard_base@DV?$string_output_adapter@D@__crt_stdio_output@@@2@@__crt_stdio_output@@AEAA_ND@Z 00000001800ad7c0 f i libucrtd:output.obj
 0001:000ac980       ?write_stored_string_tchar@?$output_processor@_WV?$stream_output_adapter@_W@__crt_stdio_output@@V?$format_validation_base@_WV?$stream_output_adapter@_W@__crt_stdio_output@@@2@@__crt_stdio_output@@AEAA_N_W@Z 00000001800ad980 f i libucrtd:output.obj
 0001:000acad0       ?write_stored_string_tchar@?$output_processor@_WV?$stream_output_adapter@_W@__crt_stdio_output@@V?$positional_parameter_base@_WV?$stream_output_adapter@_W@__crt_stdio_output@@@2@@__crt_stdio_output@@AEAA_N_W@Z 00000001800adad0 f i libucrtd:output.obj
 0001:000acc20       ?write_stored_string_tchar@?$output_processor@_WV?$stream_output_adapter@_W@__crt_stdio_output@@V?$standard_base@_WV?$stream_output_adapter@_W@__crt_stdio_output@@@2@@__crt_stdio_output@@AEAA_N_W@Z 00000001800adc20 f i libucrtd:output.obj
 0001:000acd70       ?write_stored_string_tchar@?$output_processor@_WV?$string_output_adapter@_W@__crt_stdio_output@@V?$format_validation_base@_WV?$string_output_adapter@_W@__crt_stdio_output@@@2@@__crt_stdio_output@@AEAA_N_W@Z 00000001800add70 f i libucrtd:output.obj
 0001:000acec0       ?write_stored_string_tchar@?$output_processor@_WV?$string_output_adapter@_W@__crt_stdio_output@@V?$positional_parameter_base@_WV?$string_output_adapter@_W@__crt_stdio_output@@@2@@__crt_stdio_output@@AEAA_N_W@Z 00000001800adec0 f i libucrtd:output.obj
 0001:000ad010       ?write_stored_string_tchar@?$output_processor@_WV?$string_output_adapter@_W@__crt_stdio_output@@V?$standard_base@_WV?$string_output_adapter@_W@__crt_stdio_output@@@2@@__crt_stdio_output@@AEAA_N_W@Z 00000001800ae010 f i libucrtd:output.obj
 0001:000ad160       ?write_string@?$stream_output_adapter@D@__crt_stdio_output@@QEBAXQEBDHQEAHAEAV__crt_deferred_errno_cache@@@Z 00000001800ae160 f i libucrtd:output.obj
 0001:000ad1e0       ?write_string@?$stream_output_adapter@_W@__crt_stdio_output@@QEBAXQEB_WHQEAHAEAV__crt_deferred_errno_cache@@@Z 00000001800ae1e0 f i libucrtd:output.obj
 0001:000ad260       ?write_string@?$string_output_adapter@D@__crt_stdio_output@@QEBAXQEBDHQEAHAEAV__crt_deferred_errno_cache@@@Z 00000001800ae260 f i libucrtd:output.obj
 0001:000ad3d0       ?write_string@?$string_output_adapter@_W@__crt_stdio_output@@QEBAXQEB_WHQEAHAEAV__crt_deferred_errno_cache@@@Z 00000001800ae3d0 f i libucrtd:output.obj
 0001:000ad540       ?write_string_impl@?$output_adapter_common@DV?$stream_output_adapter@D@__crt_stdio_output@@@__crt_stdio_output@@IEBAXQEBDHQEAHAEAV__crt_deferred_errno_cache@@@Z 00000001800ae540 f i libucrtd:output.obj
 0001:000ad620       ?write_string_impl@?$output_adapter_common@_WV?$stream_output_adapter@_W@__crt_stdio_output@@@__crt_stdio_output@@IEBAXQEB_WHQEAHAEAV__crt_deferred_errno_cache@@@Z 00000001800ae620 f i libucrtd:output.obj
 0001:000ad700       __acrt_isleadbyte_l_noupdate 00000001800ae700 f i libucrtd:output.obj
 0001:000ad730       __acrt_locale_get_ctype_array_value 00000001800ae730 f i libucrtd:output.obj
 0001:000ad770       __stdio_common_vfprintf    00000001800ae770 f   libucrtd:output.obj
 0001:000ad7b0       __stdio_common_vfprintf_p  00000001800ae7b0 f   libucrtd:output.obj
 0001:000ad7f0       __stdio_common_vfprintf_s  00000001800ae7f0 f   libucrtd:output.obj
 0001:000ad830       __stdio_common_vfwprintf   00000001800ae830 f   libucrtd:output.obj
 0001:000ad870       __stdio_common_vfwprintf_p 00000001800ae870 f   libucrtd:output.obj
 0001:000ad8b0       __stdio_common_vfwprintf_s 00000001800ae8b0 f   libucrtd:output.obj
 0001:000ad8f0       __stdio_common_vsnprintf_s 00000001800ae8f0 f   libucrtd:output.obj
 0001:000ad950       __stdio_common_vsnwprintf_s 00000001800ae950 f   libucrtd:output.obj
 0001:000ad9b0       __stdio_common_vsprintf    00000001800ae9b0 f   libucrtd:output.obj
 0001:000ada00       __stdio_common_vsprintf_p  00000001800aea00 f   libucrtd:output.obj
 0001:000ada50       __stdio_common_vsprintf_s  00000001800aea50 f   libucrtd:output.obj
 0001:000adaa0       __stdio_common_vswprintf   00000001800aeaa0 f   libucrtd:output.obj
 0001:000adaf0       __stdio_common_vswprintf_p 00000001800aeaf0 f   libucrtd:output.obj
 0001:000adb40       __stdio_common_vswprintf_s 00000001800aeb40 f   libucrtd:output.obj
 0001:000adb90       _ctype_fast_check_internal 00000001800aeb90 f i libucrtd:output.obj
 0001:000adbc0       _isdigit_fast_internal     00000001800aebc0 f i libucrtd:output.obj
 0001:000adbf0       _tolower_fast_internal     00000001800aebf0 f i libucrtd:output.obj
 0001:000ae9e0       _makepath                  00000001800af9e0 f   libucrtd:makepath.obj
 0001:000aea30       _makepath_s                00000001800afa30 f   libucrtd:makepath.obj
 0001:000aea80       _wmakepath                 00000001800afa80 f   libucrtd:makepath.obj
 0001:000aead0       _wmakepath_s               00000001800afad0 f   libucrtd:makepath.obj
 0001:000b1100       ??$tcsncpy_s@AEAPEAD_KAEAPEBDAEB_K@?$__crt_char_traits@D@@SAHAEAPEAD$$QEA_KAEAPEBDAEB_K@Z 00000001800b2100 f i libucrtd:splitpath.obj
 0001:000b1150       ??$tcsncpy_s@AEAPEAD_KAEAPEBDH@?$__crt_char_traits@D@@SAHAEAPEAD$$QEA_KAEAPEBD$$QEAH@Z 00000001800b2150 f i libucrtd:splitpath.obj
 0001:000b11a0       ??$tcsncpy_s@AEAPEA_W_KAEAPEB_WAEB_K@?$__crt_char_traits@_W@@SAHAEAPEA_W$$QEA_KAEAPEB_WAEB_K@Z 00000001800b21a0 f i libucrtd:splitpath.obj
 0001:000b11f0       ??$tcsncpy_s@AEAPEA_W_KAEAPEB_WH@?$__crt_char_traits@_W@@SAHAEAPEA_W$$QEA_KAEAPEB_W$$QEAH@Z 00000001800b21f0 f i libucrtd:splitpath.obj
 0001:000b14a0       _splitpath                 00000001800b24a0 f   libucrtd:splitpath.obj
 0001:000b14e0       _splitpath_s               00000001800b24e0 f   libucrtd:splitpath.obj
 0001:000b1580       _wsplitpath                00000001800b2580 f   libucrtd:splitpath.obj
 0001:000b15c0       _wsplitpath_s              00000001800b25c0 f   libucrtd:splitpath.obj
 0001:000b1b40       wcscpy_s                   00000001800b2b40 f   libucrtd:wcscpy_s.obj
 0001:000b1b70       _set_abort_behavior        00000001800b2b70 f   libucrtd:abort.obj
 0001:000b1bb0       abort                      00000001800b2bb0 f   libucrtd:abort.obj
 0001:000b1c40       strlen                     00000001800b2c40 f   libucrtd:strlen.obj
 0001:000b1cf0       ??$__crt_fast_decode_pointer@P6AXPEB_W00I_K@Z@@YAP6AXPEB_W00I_K@ZQ6AX000I1@Z@Z 00000001800b2cf0 f i libucrtd:invalid_parameter.obj
 0001:000b1d30       ??$__crt_fast_encode_pointer@P6AXPEB_W00I_K@Z@@YAP6AXPEB_W00I_K@ZQ6AX000I1@Z@Z 00000001800b2d30 f i libucrtd:invalid_parameter.obj
 0001:000b1d70       ??$initialize_from_array@$$BY00Q6AXPEB_W00I_K@Z@?$dual_state_global@P6AXPEB_W00I_K@Z@__crt_state_management@@QEAAXAEAY00Q6AXPEB_W00I_K@Z@Z 00000001800b2d70 f i libucrtd:invalid_parameter.obj
 0001:000b1e70       ?dangerous_get_state_array@?$dual_state_global@P6AXPEB_W00I_K@Z@__crt_state_management@@QEAAPEAP6AXPEB_W00I_K@ZXZ 00000001800b2e70 f i libucrtd:invalid_parameter.obj
 0001:000b1e80       ?value@?$dual_state_global@P6AXPEB_W00I_K@Z@__crt_state_management@@QEAAAEAP6AXPEB_W00I_K@ZXZ 00000001800b2e80 f i libucrtd:invalid_parameter.obj
 0001:000b1ea0       __acrt_call_reportfault    00000001800b2ea0 f   libucrtd:invalid_parameter.obj
 0001:000b1fd0       __acrt_initialize_invalid_parameter_handler 00000001800b2fd0 f   libucrtd:invalid_parameter.obj
 0001:000b2000       _get_invalid_parameter_handler 00000001800b3000 f   libucrtd:invalid_parameter.obj
 0001:000b2020       _get_thread_local_invalid_parameter_handler 00000001800b3020 f   libucrtd:invalid_parameter.obj
 0001:000b2050       _invalid_parameter         00000001800b3050 f   libucrtd:invalid_parameter.obj
 0001:000b2150       _invalid_parameter_noinfo  00000001800b3150 f   libucrtd:invalid_parameter.obj
 0001:000b2180       _invalid_parameter_noinfo_noreturn 00000001800b3180 f   libucrtd:invalid_parameter.obj
 0001:000b21c0       _invoke_watson             00000001800b31c0 f   libucrtd:invalid_parameter.obj
 0001:000b2220       _set_invalid_parameter_handler 00000001800b3220 f   libucrtd:invalid_parameter.obj
 0001:000b2270       _set_thread_local_invalid_parameter_handler 00000001800b3270 f   libucrtd:invalid_parameter.obj
 0001:000b22b0       ??$is_overflow_condition@K@__crt_strtox@@YA_NIK@Z 00000001800b32b0 f i libucrtd:atox.obj
 0001:000b2320       ??$is_overflow_condition@_K@__crt_strtox@@YA_NI_K@Z 00000001800b3320 f i libucrtd:atox.obj
 0001:000b2390       ??$make_c_string_character_source@D$$T@__crt_strtox@@YA?AV?$c_string_character_source@D@0@QEBD$$T@Z 00000001800b3390 f i libucrtd:atox.obj
 0001:000b23d0       ??$make_c_string_character_source@_W$$T@__crt_strtox@@YA?AV?$c_string_character_source@_W@0@QEB_W$$T@Z 00000001800b33d0 f i libucrtd:atox.obj
 0001:000b2410       ??$parse_integer@KV?$c_string_character_source@D@__crt_strtox@@@__crt_strtox@@YAKQEAU__crt_locale_pointers@@V?$c_string_character_source@D@0@H_N@Z 00000001800b3410 f i libucrtd:atox.obj
 0001:000b28a0       ??$parse_integer@KV?$c_string_character_source@_W@__crt_strtox@@@__crt_strtox@@YAKQEAU__crt_locale_pointers@@V?$c_string_character_source@_W@0@H_N@Z 00000001800b38a0 f i libucrtd:atox.obj
 0001:000b2d50       ??$parse_integer@_KV?$c_string_character_source@D@__crt_strtox@@@__crt_strtox@@YA_KQEAU__crt_locale_pointers@@V?$c_string_character_source@D@0@H_N@Z 00000001800b3d50 f i libucrtd:atox.obj
 0001:000b3270       ??$parse_integer@_KV?$c_string_character_source@_W@__crt_strtox@@@__crt_strtox@@YA_KQEAU__crt_locale_pointers@@V?$c_string_character_source@_W@0@H_N@Z 00000001800b4270 f i libucrtd:atox.obj
